
/Pace-2024-ectf/component/build/max78000.elf:     file format elf32-littlearm


Disassembly of section .text:

1000e000 <__isr_vector>:
1000e000:	20020000 	.word	0x20020000
1000e004:	10010ebd 	.word	0x10010ebd
1000e008:	10010cf1 	.word	0x10010cf1
1000e00c:	10010efb 	.word	0x10010efb
1000e010:	10010efd 	.word	0x10010efd
1000e014:	10010eff 	.word	0x10010eff
1000e018:	10010f01 	.word	0x10010f01
	...
1000e02c:	10010f03 	.word	0x10010f03
1000e030:	10010f05 	.word	0x10010f05
1000e034:	00000000 	.word	0x00000000
1000e038:	10010f07 	.word	0x10010f07
1000e03c:	10010f09 	.word	0x10010f09
1000e040:	10010f0d 	.word	0x10010f0d
1000e044:	10010f0f 	.word	0x10010f0f
1000e048:	10010f11 	.word	0x10010f11
1000e04c:	10010f13 	.word	0x10010f13
1000e050:	1000e2b1 	.word	0x1000e2b1
1000e054:	10010f17 	.word	0x10010f17
1000e058:	10010f19 	.word	0x10010f19
1000e05c:	10010f1b 	.word	0x10010f1b
1000e060:	10010f1d 	.word	0x10010f1d
1000e064:	10010f1f 	.word	0x10010f1f
1000e068:	10010f21 	.word	0x10010f21
1000e06c:	10010f23 	.word	0x10010f23
1000e070:	10010f25 	.word	0x10010f25
1000e074:	10010f27 	.word	0x10010f27
1000e078:	10010f29 	.word	0x10010f29
1000e07c:	10010f2b 	.word	0x10010f2b
1000e080:	10010f2d 	.word	0x10010f2d
1000e084:	10010f2f 	.word	0x10010f2f
1000e088:	10010f31 	.word	0x10010f31
1000e08c:	10010f33 	.word	0x10010f33
1000e090:	10010f35 	.word	0x10010f35
1000e094:	10010f37 	.word	0x10010f37
1000e098:	10010f39 	.word	0x10010f39
1000e09c:	10010f3b 	.word	0x10010f3b
1000e0a0:	10010c75 	.word	0x10010c75
1000e0a4:	10010c7d 	.word	0x10010c7d
1000e0a8:	10010f41 	.word	0x10010f41
1000e0ac:	10010f43 	.word	0x10010f43
1000e0b0:	10010f45 	.word	0x10010f45
1000e0b4:	10010f47 	.word	0x10010f47
1000e0b8:	10010f49 	.word	0x10010f49
1000e0bc:	10010f4b 	.word	0x10010f4b
1000e0c0:	10010f4d 	.word	0x10010f4d
1000e0c4:	10010f4f 	.word	0x10010f4f
1000e0c8:	10010f51 	.word	0x10010f51
1000e0cc:	10010f53 	.word	0x10010f53
1000e0d0:	10010f55 	.word	0x10010f55
1000e0d4:	10010f57 	.word	0x10010f57
1000e0d8:	10010f59 	.word	0x10010f59
1000e0dc:	10010f5b 	.word	0x10010f5b
1000e0e0:	10010f5d 	.word	0x10010f5d
1000e0e4:	10010f5f 	.word	0x10010f5f
1000e0e8:	10010f61 	.word	0x10010f61
1000e0ec:	10010f63 	.word	0x10010f63
1000e0f0:	10010f65 	.word	0x10010f65
1000e0f4:	10010f67 	.word	0x10010f67
1000e0f8:	10010f69 	.word	0x10010f69
1000e0fc:	10010f6b 	.word	0x10010f6b
1000e100:	10010f6d 	.word	0x10010f6d
1000e104:	10010f6f 	.word	0x10010f6f
1000e108:	10010f71 	.word	0x10010f71
1000e10c:	10010f73 	.word	0x10010f73
1000e110:	10010f75 	.word	0x10010f75
1000e114:	10010f77 	.word	0x10010f77
1000e118:	10010f79 	.word	0x10010f79
1000e11c:	10010f7b 	.word	0x10010f7b
1000e120:	10010f7d 	.word	0x10010f7d
1000e124:	10010f7f 	.word	0x10010f7f
1000e128:	10010f81 	.word	0x10010f81
1000e12c:	10010f83 	.word	0x10010f83
1000e130:	10010f85 	.word	0x10010f85
1000e134:	10010f87 	.word	0x10010f87
1000e138:	10010f89 	.word	0x10010f89
1000e13c:	10010f8b 	.word	0x10010f8b
1000e140:	10010f8d 	.word	0x10010f8d
1000e144:	10010f8f 	.word	0x10010f8f
1000e148:	10010f91 	.word	0x10010f91
1000e14c:	10010f93 	.word	0x10010f93
1000e150:	10010f95 	.word	0x10010f95
1000e154:	10010f97 	.word	0x10010f97
1000e158:	10010f99 	.word	0x10010f99
1000e15c:	10010f9b 	.word	0x10010f9b
1000e160:	10010f9d 	.word	0x10010f9d
1000e164:	10010f9f 	.word	0x10010f9f
1000e168:	10010fa1 	.word	0x10010fa1
1000e16c:	10010fa3 	.word	0x10010fa3
1000e170:	10010fa5 	.word	0x10010fa5
1000e174:	10010fa7 	.word	0x10010fa7
1000e178:	10010fa9 	.word	0x10010fa9
1000e17c:	10010fab 	.word	0x10010fab
1000e180:	10010fad 	.word	0x10010fad
1000e184:	10010faf 	.word	0x10010faf
1000e188:	10010fb1 	.word	0x10010fb1
1000e18c:	10010fb3 	.word	0x10010fb3
1000e190:	10010fb5 	.word	0x10010fb5
1000e194:	10010fb7 	.word	0x10010fb7
1000e198:	10010fb9 	.word	0x10010fb9
1000e19c:	10010fbb 	.word	0x10010fbb
1000e1a0:	10010fbd 	.word	0x10010fbd
1000e1a4:	10010fbf 	.word	0x10010fbf
1000e1a8:	10010fc1 	.word	0x10010fc1
1000e1ac:	10010fc3 	.word	0x10010fc3
1000e1b0:	10010fc5 	.word	0x10010fc5
1000e1b4:	10010fc7 	.word	0x10010fc7
1000e1b8:	10010fc9 	.word	0x10010fc9
1000e1bc:	10010fcb 	.word	0x10010fcb
1000e1c0:	10010fcd 	.word	0x10010fcd
1000e1c4:	10010fcf 	.word	0x10010fcf
1000e1c8:	10010fd1 	.word	0x10010fd1
1000e1cc:	10010fd3 	.word	0x10010fd3
1000e1d0:	10010fd5 	.word	0x10010fd5
1000e1d4:	10010fd7 	.word	0x10010fd7
1000e1d8:	10010fd9 	.word	0x10010fd9
1000e1dc:	10010fdb 	.word	0x10010fdb
	...

1000e200 <firmware_startup>:
1000e200:	4800      	ldr	r0, [pc, #0]	@ (1000e204 <firmware_startup+0x4>)
1000e202:	4780      	blx	r0
1000e204:	10010ebd 	.word	0x10010ebd

1000e208 <deregister_tm_clones>:
1000e208:	4803      	ldr	r0, [pc, #12]	@ (1000e218 <deregister_tm_clones+0x10>)
1000e20a:	4b04      	ldr	r3, [pc, #16]	@ (1000e21c <deregister_tm_clones+0x14>)
1000e20c:	4283      	cmp	r3, r0
1000e20e:	d002      	beq.n	1000e216 <deregister_tm_clones+0xe>
1000e210:	4b03      	ldr	r3, [pc, #12]	@ (1000e220 <deregister_tm_clones+0x18>)
1000e212:	b103      	cbz	r3, 1000e216 <deregister_tm_clones+0xe>
1000e214:	4718      	bx	r3
1000e216:	4770      	bx	lr
1000e218:	20000708 	.word	0x20000708
1000e21c:	20000708 	.word	0x20000708
1000e220:	00000000 	.word	0x00000000

1000e224 <register_tm_clones>:
1000e224:	4805      	ldr	r0, [pc, #20]	@ (1000e23c <register_tm_clones+0x18>)
1000e226:	4b06      	ldr	r3, [pc, #24]	@ (1000e240 <register_tm_clones+0x1c>)
1000e228:	1a1b      	subs	r3, r3, r0
1000e22a:	0fd9      	lsrs	r1, r3, #31
1000e22c:	eb01 01a3 	add.w	r1, r1, r3, asr #2
1000e230:	1049      	asrs	r1, r1, #1
1000e232:	d002      	beq.n	1000e23a <register_tm_clones+0x16>
1000e234:	4b03      	ldr	r3, [pc, #12]	@ (1000e244 <register_tm_clones+0x20>)
1000e236:	b103      	cbz	r3, 1000e23a <register_tm_clones+0x16>
1000e238:	4718      	bx	r3
1000e23a:	4770      	bx	lr
1000e23c:	20000708 	.word	0x20000708
1000e240:	20000708 	.word	0x20000708
1000e244:	00000000 	.word	0x00000000

1000e248 <__do_global_dtors_aux>:
1000e248:	b510      	push	{r4, lr}
1000e24a:	4c06      	ldr	r4, [pc, #24]	@ (1000e264 <__do_global_dtors_aux+0x1c>)
1000e24c:	7823      	ldrb	r3, [r4, #0]
1000e24e:	b943      	cbnz	r3, 1000e262 <__do_global_dtors_aux+0x1a>
1000e250:	f7ff ffda 	bl	1000e208 <deregister_tm_clones>
1000e254:	4b04      	ldr	r3, [pc, #16]	@ (1000e268 <__do_global_dtors_aux+0x20>)
1000e256:	b113      	cbz	r3, 1000e25e <__do_global_dtors_aux+0x16>
1000e258:	4804      	ldr	r0, [pc, #16]	@ (1000e26c <__do_global_dtors_aux+0x24>)
1000e25a:	f3af 8000 	nop.w
1000e25e:	2301      	movs	r3, #1
1000e260:	7023      	strb	r3, [r4, #0]
1000e262:	bd10      	pop	{r4, pc}
1000e264:	20000800 	.word	0x20000800
1000e268:	00000000 	.word	0x00000000
1000e26c:	1001dd40 	.word	0x1001dd40

1000e270 <frame_dummy>:
1000e270:	b508      	push	{r3, lr}
1000e272:	4b05      	ldr	r3, [pc, #20]	@ (1000e288 <frame_dummy+0x18>)
1000e274:	b11b      	cbz	r3, 1000e27e <frame_dummy+0xe>
1000e276:	4905      	ldr	r1, [pc, #20]	@ (1000e28c <frame_dummy+0x1c>)
1000e278:	4805      	ldr	r0, [pc, #20]	@ (1000e290 <frame_dummy+0x20>)
1000e27a:	f3af 8000 	nop.w
1000e27e:	e8bd 4008 	ldmia.w	sp!, {r3, lr}
1000e282:	f7ff bfcf 	b.w	1000e224 <register_tm_clones>
1000e286:	bf00      	nop
1000e288:	00000000 	.word	0x00000000
1000e28c:	20000804 	.word	0x20000804
1000e290:	1001dd40 	.word	0x1001dd40

1000e294 <Rand_NASYC>:
    int ret = MXC_TRNG_RandomInt();
    MXC_TRNG_Shutdown();
    return ret;
}

void Rand_NASYC(uint8_t *buf, uint32_t len){
1000e294:	b538      	push	{r3, r4, r5, lr}
1000e296:	4604      	mov	r4, r0
1000e298:	460d      	mov	r5, r1
    MXC_TRNG_Init();
1000e29a:	f003 fd69 	bl	10011d70 <MXC_TRNG_Init>
    MXC_TRNG_Random(buf, len);
1000e29e:	4629      	mov	r1, r5
1000e2a0:	4620      	mov	r0, r4
1000e2a2:	f003 fd83 	bl	10011dac <MXC_TRNG_Random>
    MXC_TRNG_Shutdown();
}
1000e2a6:	e8bd 4038 	ldmia.w	sp!, {r3, r4, r5, lr}
    MXC_TRNG_Shutdown();
1000e2aa:	f003 bd69 	b.w	10011d80 <MXC_TRNG_Shutdown>
1000e2ae:	bf00      	nop

1000e2b0 <TRNG_IRQHandler>:
}


void TRNG_IRQHandler(void)
{
    MXC_TRNG_Handler();
1000e2b0:	f003 bd70 	b.w	10011d94 <MXC_TRNG_Handler>

1000e2b4 <board_link_init>:
 * @return int: negative if error, zero if successful
 *
 * Initialized the underlying i2c_simple interface
*/
int board_link_init(i2c_addr_t addr) {
    return i2c_simple_peripheral_init(addr);
1000e2b4:	f000 bc16 	b.w	1000eae4 <i2c_simple_peripheral_init>

1000e2b8 <component_id_to_i2c_addr>:
 * 
 * @return i2c_addr_t, i2c address
*/
i2c_addr_t component_id_to_i2c_addr(uint32_t component_id) {
    return (uint8_t) component_id & COMPONENT_ADDR_MASK;
}
1000e2b8:	b2c0      	uxtb	r0, r0
1000e2ba:	4770      	bx	lr

1000e2bc <send_packet_and_ack>:
 * @param len: uint8_t, length of the packet
 * @param packet: uint8_t*, message to be sent
 * This function utilizes the simple_i2c_peripheral library to
 * send a packet to the AP and wait for the message to be received
*/
void send_packet_and_ack(uint8_t len, uint8_t* packet) {
1000e2bc:	b510      	push	{r4, lr}
    I2C_REGS[TRANSMIT_LEN][0] = len;
1000e2be:	4c09      	ldr	r4, [pc, #36]	@ (1000e2e4 <send_packet_and_ack+0x28>)
1000e2c0:	6963      	ldr	r3, [r4, #20]
1000e2c2:	7018      	strb	r0, [r3, #0]
void send_packet_and_ack(uint8_t len, uint8_t* packet) {
1000e2c4:	4602      	mov	r2, r0
    memcpy((void*)I2C_REGS[TRANSMIT], (void*)packet, len);
1000e2c6:	68e0      	ldr	r0, [r4, #12]
1000e2c8:	f007 fe7a 	bl	10015fc0 <memcpy>
    I2C_REGS[TRANSMIT_DONE][0] = false;
1000e2cc:	6923      	ldr	r3, [r4, #16]
1000e2ce:	2200      	movs	r2, #0
1000e2d0:	701a      	strb	r2, [r3, #0]

    // Wait for ack from AP
    while(!I2C_REGS[TRANSMIT_DONE][0]);
1000e2d2:	6922      	ldr	r2, [r4, #16]
1000e2d4:	7813      	ldrb	r3, [r2, #0]
1000e2d6:	2b00      	cmp	r3, #0
1000e2d8:	d0fc      	beq.n	1000e2d4 <send_packet_and_ack+0x18>
    I2C_REGS[RECEIVE_DONE][0] = false;
1000e2da:	6863      	ldr	r3, [r4, #4]
1000e2dc:	2200      	movs	r2, #0
1000e2de:	701a      	strb	r2, [r3, #0]
}
1000e2e0:	bd10      	pop	{r4, pc}
1000e2e2:	bf00      	nop
1000e2e4:	20000028 	.word	0x20000028

1000e2e8 <wait_and_receive_packet>:
 * @param packet: uint8_t*, message received
 * 
 * This function waits for a new message to be available from the AP,
 * once the message is available it is returned in the buffer pointer to by packet 
*/
uint8_t wait_and_receive_packet(uint8_t* packet) {
1000e2e8:	b538      	push	{r3, r4, r5, lr}
    while(!I2C_REGS[RECEIVE_DONE][0]);
1000e2ea:	4d08      	ldr	r5, [pc, #32]	@ (1000e30c <wait_and_receive_packet+0x24>)
1000e2ec:	686a      	ldr	r2, [r5, #4]
1000e2ee:	7813      	ldrb	r3, [r2, #0]
1000e2f0:	2b00      	cmp	r3, #0
1000e2f2:	d0fc      	beq.n	1000e2ee <wait_and_receive_packet+0x6>

    uint8_t len = I2C_REGS[RECEIVE_LEN][0];
1000e2f4:	68ab      	ldr	r3, [r5, #8]
    memcpy(packet, (void*)I2C_REGS[RECEIVE], len);
1000e2f6:	6829      	ldr	r1, [r5, #0]
    uint8_t len = I2C_REGS[RECEIVE_LEN][0];
1000e2f8:	781c      	ldrb	r4, [r3, #0]
1000e2fa:	b2e4      	uxtb	r4, r4
    memcpy(packet, (void*)I2C_REGS[RECEIVE], len);
1000e2fc:	4622      	mov	r2, r4
1000e2fe:	f007 fe5f 	bl	10015fc0 <memcpy>

    I2C_REGS[RECEIVE_DONE][0] = false;
1000e302:	686b      	ldr	r3, [r5, #4]
1000e304:	2200      	movs	r2, #0
1000e306:	701a      	strb	r2, [r3, #0]
    return len;
}
1000e308:	4620      	mov	r0, r4
1000e30a:	bd38      	pop	{r3, r4, r5, pc}
1000e30c:	20000028 	.word	0x20000028

1000e310 <secure_send_packet_and_ack>:
 * @param packet: uint8_t*, message to be sent
 * @param GLOBAL_KEY: 16 byte globel key
 * This function utilizes the simple_i2c_peripheral library to
 * send a packet to the AP and wait for the message to be received
*/
void secure_send_packet_and_ack(uint8_t* packet, uint8_t* GLOBAL_KEY) {
1000e310:	b510      	push	{r4, lr}
    I2C_REGS[TRANSMIT_LEN][0] = len;
1000e312:	4c0d      	ldr	r4, [pc, #52]	@ (1000e348 <secure_send_packet_and_ack+0x38>)
void secure_send_packet_and_ack(uint8_t* packet, uint8_t* GLOBAL_KEY) {
1000e314:	b0c0      	sub	sp, #256	@ 0x100
1000e316:	460a      	mov	r2, r1
    uint8_t ciphertext[MAX_I2C_MESSAGE_LEN];
    encrypt_sym(packet, MAX_I2C_MESSAGE_LEN, GLOBAL_KEY, ciphertext);
1000e318:	466b      	mov	r3, sp
1000e31a:	f44f 7180 	mov.w	r1, #256	@ 0x100
1000e31e:	f000 fa5b 	bl	1000e7d8 <encrypt_sym>
    I2C_REGS[TRANSMIT_LEN][0] = len;
1000e322:	6963      	ldr	r3, [r4, #20]
1000e324:	22ff      	movs	r2, #255	@ 0xff
1000e326:	701a      	strb	r2, [r3, #0]
    memcpy((void*)I2C_REGS[TRANSMIT], (void*)packet, len);
1000e328:	68e0      	ldr	r0, [r4, #12]
1000e32a:	4669      	mov	r1, sp
1000e32c:	f007 fe48 	bl	10015fc0 <memcpy>
    I2C_REGS[TRANSMIT_DONE][0] = false;
1000e330:	6923      	ldr	r3, [r4, #16]
1000e332:	2200      	movs	r2, #0
1000e334:	701a      	strb	r2, [r3, #0]
    while(!I2C_REGS[TRANSMIT_DONE][0]);
1000e336:	6922      	ldr	r2, [r4, #16]
1000e338:	7813      	ldrb	r3, [r2, #0]
1000e33a:	2b00      	cmp	r3, #0
1000e33c:	d0fc      	beq.n	1000e338 <secure_send_packet_and_ack+0x28>
    I2C_REGS[RECEIVE_DONE][0] = false;
1000e33e:	6863      	ldr	r3, [r4, #4]
1000e340:	2200      	movs	r2, #0
1000e342:	701a      	strb	r2, [r3, #0]
    send_packet_and_ack(MAX_I2C_MESSAGE_LEN-1, ciphertext);
}
1000e344:	b040      	add	sp, #256	@ 0x100
1000e346:	bd10      	pop	{r4, pc}
1000e348:	20000028 	.word	0x20000028

1000e34c <secure_wait_and_receive_packet>:
 * @param packet: uint8_t*, message received
 * @param GLOBAL_KEY: 16 byte globel key
 * This function waits for a new message to be available from the AP,
 * once the message is available it is returned in the buffer pointer to by packet 
*/
uint8_t secure_wait_and_receive_packet(uint8_t* packet, uint8_t* GLOBAL_KEY) {
1000e34c:	b5f0      	push	{r4, r5, r6, r7, lr}
    while(!I2C_REGS[RECEIVE_DONE][0]);
1000e34e:	4f31      	ldr	r7, [pc, #196]	@ (1000e414 <secure_wait_and_receive_packet+0xc8>)
1000e350:	687a      	ldr	r2, [r7, #4]
uint8_t secure_wait_and_receive_packet(uint8_t* packet, uint8_t* GLOBAL_KEY) {
1000e352:	b0c3      	sub	sp, #268	@ 0x10c
1000e354:	4604      	mov	r4, r0
1000e356:	460d      	mov	r5, r1
    while(!I2C_REGS[RECEIVE_DONE][0]);
1000e358:	7813      	ldrb	r3, [r2, #0]
1000e35a:	2b00      	cmp	r3, #0
1000e35c:	d0fc      	beq.n	1000e358 <secure_wait_and_receive_packet+0xc>
    uint8_t len = I2C_REGS[RECEIVE_LEN][0];
1000e35e:	68bb      	ldr	r3, [r7, #8]
    memcpy(packet, (void*)I2C_REGS[RECEIVE], len);
1000e360:	6839      	ldr	r1, [r7, #0]
    uint8_t len = I2C_REGS[RECEIVE_LEN][0];
1000e362:	781e      	ldrb	r6, [r3, #0]
1000e364:	b2f6      	uxtb	r6, r6
    memcpy(packet, (void*)I2C_REGS[RECEIVE], len);
1000e366:	4632      	mov	r2, r6
1000e368:	4620      	mov	r0, r4
1000e36a:	f007 fe29 	bl	10015fc0 <memcpy>
    I2C_REGS[RECEIVE_DONE][0] = false;
1000e36e:	687a      	ldr	r2, [r7, #4]
1000e370:	2300      	movs	r3, #0
1000e372:	7013      	strb	r3, [r2, #0]
    uint8_t plaintext[MAX_I2C_MESSAGE_LEN];
    uint8_t len = wait_and_receive_packet(packet);
    volatile int lst_cnt = 0;
1000e374:	f104 0e40 	add.w	lr, r4, #64	@ 0x40
1000e378:	9300      	str	r3, [sp, #0]
    volatile int sync_cnt = 0;
1000e37a:	9301      	str	r3, [sp, #4]
    for(int i = 0; i < 16; ++i){
1000e37c:	4623      	mov	r3, r4
1000e37e:	e00a      	b.n	1000e396 <secure_wait_and_receive_packet+0x4a>
        if(packet[i*4] == 'B' && packet[i*4+1] == 'E' && packet[i*4+2] == 'E' && packet[i*4+3] == 'F'){
            lst_cnt++;
        }
        if(packet[i*4] == 'D' && packet[i*4+1] == 'E' && packet[i*4+2] == 'A' && packet[i*4+3] == 'D'){
1000e380:	f1bc 0f44 	cmp.w	ip, #68	@ 0x44
1000e384:	d104      	bne.n	1000e390 <secure_wait_and_receive_packet+0x44>
1000e386:	f893 c001 	ldrb.w	ip, [r3, #1]
1000e38a:	f1bc 0f45 	cmp.w	ip, #69	@ 0x45
1000e38e:	d02e      	beq.n	1000e3ee <secure_wait_and_receive_packet+0xa2>
    for(int i = 0; i < 16; ++i){
1000e390:	3304      	adds	r3, #4
1000e392:	459e      	cmp	lr, r3
1000e394:	d015      	beq.n	1000e3c2 <secure_wait_and_receive_packet+0x76>
        if(packet[i*4] == 'B' && packet[i*4+1] == 'E' && packet[i*4+2] == 'E' && packet[i*4+3] == 'F'){
1000e396:	f893 c000 	ldrb.w	ip, [r3]
1000e39a:	f1bc 0f42 	cmp.w	ip, #66	@ 0x42
1000e39e:	d1ef      	bne.n	1000e380 <secure_wait_and_receive_packet+0x34>
1000e3a0:	f893 c001 	ldrb.w	ip, [r3, #1]
1000e3a4:	f1bc 0f45 	cmp.w	ip, #69	@ 0x45
1000e3a8:	d1f2      	bne.n	1000e390 <secure_wait_and_receive_packet+0x44>
1000e3aa:	789a      	ldrb	r2, [r3, #2]
1000e3ac:	2a45      	cmp	r2, #69	@ 0x45
1000e3ae:	d1ef      	bne.n	1000e390 <secure_wait_and_receive_packet+0x44>
1000e3b0:	78da      	ldrb	r2, [r3, #3]
1000e3b2:	2a46      	cmp	r2, #70	@ 0x46
1000e3b4:	d1ec      	bne.n	1000e390 <secure_wait_and_receive_packet+0x44>
            lst_cnt++;
1000e3b6:	9a00      	ldr	r2, [sp, #0]
    for(int i = 0; i < 16; ++i){
1000e3b8:	3304      	adds	r3, #4
            lst_cnt++;
1000e3ba:	3201      	adds	r2, #1
    for(int i = 0; i < 16; ++i){
1000e3bc:	459e      	cmp	lr, r3
            lst_cnt++;
1000e3be:	9200      	str	r2, [sp, #0]
    for(int i = 0; i < 16; ++i){
1000e3c0:	d1e9      	bne.n	1000e396 <secure_wait_and_receive_packet+0x4a>
            sync_cnt++;
        }
    }
    if (lst_cnt == 16){
1000e3c2:	9b00      	ldr	r3, [sp, #0]
1000e3c4:	2b10      	cmp	r3, #16
1000e3c6:	d01c      	beq.n	1000e402 <secure_wait_and_receive_packet+0xb6>
        // process_scan();
        return 1;
    }
    else if(sync_cnt == 16){
1000e3c8:	9b01      	ldr	r3, [sp, #4]
1000e3ca:	2b10      	cmp	r3, #16
1000e3cc:	d01d      	beq.n	1000e40a <secure_wait_and_receive_packet+0xbe>
        // process_sync();
        return 2;
    }
    decrypt_sym(packet, MAX_I2C_MESSAGE_LEN, GLOBAL_KEY, plaintext);
1000e3ce:	462a      	mov	r2, r5
1000e3d0:	ab02      	add	r3, sp, #8
1000e3d2:	f44f 7180 	mov.w	r1, #256	@ 0x100
1000e3d6:	4620      	mov	r0, r4
1000e3d8:	f000 fa28 	bl	1000e82c <decrypt_sym>
    memmove(packet, plaintext, MAX_I2C_MESSAGE_LEN);
1000e3dc:	f44f 7280 	mov.w	r2, #256	@ 0x100
1000e3e0:	a902      	add	r1, sp, #8
1000e3e2:	4620      	mov	r0, r4
1000e3e4:	f007 fdec 	bl	10015fc0 <memcpy>
    return len;
}
1000e3e8:	4630      	mov	r0, r6
1000e3ea:	b043      	add	sp, #268	@ 0x10c
1000e3ec:	bdf0      	pop	{r4, r5, r6, r7, pc}
        if(packet[i*4] == 'D' && packet[i*4+1] == 'E' && packet[i*4+2] == 'A' && packet[i*4+3] == 'D'){
1000e3ee:	789a      	ldrb	r2, [r3, #2]
1000e3f0:	2a41      	cmp	r2, #65	@ 0x41
1000e3f2:	d1cd      	bne.n	1000e390 <secure_wait_and_receive_packet+0x44>
1000e3f4:	78da      	ldrb	r2, [r3, #3]
1000e3f6:	2a44      	cmp	r2, #68	@ 0x44
1000e3f8:	d1ca      	bne.n	1000e390 <secure_wait_and_receive_packet+0x44>
            sync_cnt++;
1000e3fa:	9a01      	ldr	r2, [sp, #4]
1000e3fc:	3201      	adds	r2, #1
1000e3fe:	9201      	str	r2, [sp, #4]
1000e400:	e7c6      	b.n	1000e390 <secure_wait_and_receive_packet+0x44>
        return 1;
1000e402:	2601      	movs	r6, #1
}
1000e404:	4630      	mov	r0, r6
1000e406:	b043      	add	sp, #268	@ 0x10c
1000e408:	bdf0      	pop	{r4, r5, r6, r7, pc}
        return 2;
1000e40a:	2602      	movs	r6, #2
}
1000e40c:	4630      	mov	r0, r6
1000e40e:	b043      	add	sp, #268	@ 0x10c
1000e410:	bdf0      	pop	{r4, r5, r6, r7, pc}
1000e412:	bf00      	nop
1000e414:	20000028 	.word	0x20000028

1000e418 <boot>:
1000e418:	b508      	push	{r3, lr}
1000e41a:	2000      	movs	r0, #0
1000e41c:	f002 fd12 	bl	10010e44 <LED_Off>
1000e420:	2001      	movs	r0, #1
1000e422:	f002 fd0f 	bl	10010e44 <LED_Off>
1000e426:	2002      	movs	r0, #2
1000e428:	f002 fd0c 	bl	10010e44 <LED_Off>
1000e42c:	4c12      	ldr	r4, [pc, #72]	@ (1000e478 <boot+0x60>)
1000e42e:	2000      	movs	r0, #0
1000e430:	f002 fce8 	bl	10010e04 <LED_On>
1000e434:	4620      	mov	r0, r4
1000e436:	f002 ff03 	bl	10011240 <MXC_Delay>
1000e43a:	2001      	movs	r0, #1
1000e43c:	f002 fce2 	bl	10010e04 <LED_On>
1000e440:	4620      	mov	r0, r4
1000e442:	f002 fefd 	bl	10011240 <MXC_Delay>
1000e446:	2002      	movs	r0, #2
1000e448:	f002 fcdc 	bl	10010e04 <LED_On>
1000e44c:	4620      	mov	r0, r4
1000e44e:	f002 fef7 	bl	10011240 <MXC_Delay>
1000e452:	2000      	movs	r0, #0
1000e454:	f002 fcf6 	bl	10010e44 <LED_Off>
1000e458:	4620      	mov	r0, r4
1000e45a:	f002 fef1 	bl	10011240 <MXC_Delay>
1000e45e:	2001      	movs	r0, #1
1000e460:	f002 fcf0 	bl	10010e44 <LED_Off>
1000e464:	4620      	mov	r0, r4
1000e466:	f002 feeb 	bl	10011240 <MXC_Delay>
1000e46a:	2002      	movs	r0, #2
1000e46c:	f002 fcea 	bl	10010e44 <LED_Off>
1000e470:	4620      	mov	r0, r4
1000e472:	f002 fee5 	bl	10011240 <MXC_Delay>
1000e476:	e7da      	b.n	1000e42e <boot+0x16>
1000e478:	0007a120 	.word	0x0007a120

1000e47c <process_boot>:
1000e47c:	b510      	push	{r4, lr}
1000e47e:	4c1e      	ldr	r4, [pc, #120]	@ (1000e4f8 <process_boot+0x7c>)
1000e480:	7863      	ldrb	r3, [r4, #1]
1000e482:	78a2      	ldrb	r2, [r4, #2]
1000e484:	f1a3 0399 	sub.w	r3, r3, #153	@ 0x99
1000e488:	fab3 f383 	clz	r3, r3
1000e48c:	2a88      	cmp	r2, #136	@ 0x88
1000e48e:	ea4f 1353 	mov.w	r3, r3, lsr #5
1000e492:	d004      	beq.n	1000e49e <process_boot+0x22>
1000e494:	e8bd 4010 	ldmia.w	sp!, {r4, lr}
1000e498:	4818      	ldr	r0, [pc, #96]	@ (1000e4fc <process_boot+0x80>)
1000e49a:	f006 bb5d 	b.w	10014b58 <printf>
1000e49e:	78e2      	ldrb	r2, [r4, #3]
1000e4a0:	2a77      	cmp	r2, #119	@ 0x77
1000e4a2:	d1f7      	bne.n	1000e494 <process_boot+0x18>
1000e4a4:	7922      	ldrb	r2, [r4, #4]
1000e4a6:	2a20      	cmp	r2, #32
1000e4a8:	d1f4      	bne.n	1000e494 <process_boot+0x18>
1000e4aa:	2b00      	cmp	r3, #0
1000e4ac:	d0f2      	beq.n	1000e494 <process_boot+0x18>
1000e4ae:	4b14      	ldr	r3, [pc, #80]	@ (1000e500 <process_boot+0x84>)
1000e4b0:	22f4      	movs	r2, #244	@ 0xf4
1000e4b2:	2100      	movs	r1, #0
1000e4b4:	4618      	mov	r0, r3
1000e4b6:	f006 fa1b 	bl	100148f0 <memset>
1000e4ba:	4a12      	ldr	r2, [pc, #72]	@ (1000e504 <process_boot+0x88>)
1000e4bc:	f8d4 1009 	ldr.w	r1, [r4, #9]
1000e4c0:	4603      	mov	r3, r0
1000e4c2:	f8d4 0005 	ldr.w	r0, [r4, #5]
1000e4c6:	f843 0c07 	str.w	r0, [r3, #-7]
1000e4ca:	f843 1c03 	str.w	r1, [r3, #-3]
1000e4ce:	ca03      	ldmia	r2!, {r0, r1}
1000e4d0:	2403      	movs	r4, #3
1000e4d2:	7812      	ldrb	r2, [r2, #0]
1000e4d4:	f803 4c0c 	strb.w	r4, [r3, #-12]
1000e4d8:	f8c3 0009 	str.w	r0, [r3, #9]
1000e4dc:	f8c3 100d 	str.w	r1, [r3, #13]
1000e4e0:	4c09      	ldr	r4, [pc, #36]	@ (1000e508 <process_boot+0x8c>)
1000e4e2:	490a      	ldr	r1, [pc, #40]	@ (1000e50c <process_boot+0x90>)
1000e4e4:	f843 4c0b 	str.w	r4, [r3, #-11]
1000e4e8:	f1a3 000c 	sub.w	r0, r3, #12
1000e4ec:	745a      	strb	r2, [r3, #17]
1000e4ee:	f7ff ff0f 	bl	1000e310 <secure_send_packet_and_ack>
1000e4f2:	f7ff ff91 	bl	1000e418 <boot>
1000e4f6:	bf00      	nop
1000e4f8:	20000a08 	.word	0x20000a08
1000e4fc:	1001b510 	.word	0x1001b510
1000e500:	20000914 	.word	0x20000914
1000e504:	1001b548 	.word	0x1001b548
1000e508:	20778899 	.word	0x20778899
1000e50c:	20000b0c 	.word	0x20000b0c

1000e510 <process_scan>:
1000e510:	4b0e      	ldr	r3, [pc, #56]	@ (1000e54c <process_scan+0x3c>)
1000e512:	b510      	push	{r4, lr}
1000e514:	2100      	movs	r1, #0
1000e516:	22f4      	movs	r2, #244	@ 0xf4
1000e518:	4618      	mov	r0, r3
1000e51a:	f006 f9e9 	bl	100148f0 <memset>
1000e51e:	4a0c      	ldr	r2, [pc, #48]	@ (1000e550 <process_scan+0x40>)
1000e520:	4c0c      	ldr	r4, [pc, #48]	@ (1000e554 <process_scan+0x44>)
1000e522:	f8d2 1005 	ldr.w	r1, [r2, #5]
1000e526:	f8d2 2009 	ldr.w	r2, [r2, #9]
1000e52a:	4603      	mov	r3, r0
1000e52c:	2001      	movs	r0, #1
1000e52e:	f803 0c0c 	strb.w	r0, [r3, #-12]
1000e532:	f843 1c07 	str.w	r1, [r3, #-7]
1000e536:	f843 2c03 	str.w	r2, [r3, #-3]
1000e53a:	f843 4c0b 	str.w	r4, [r3, #-11]
1000e53e:	e8bd 4010 	ldmia.w	sp!, {r4, lr}
1000e542:	f1a3 010c 	sub.w	r1, r3, #12
1000e546:	20ff      	movs	r0, #255	@ 0xff
1000e548:	f7ff beb8 	b.w	1000e2bc <send_packet_and_ack>
1000e54c:	20000914 	.word	0x20000914
1000e550:	20000a08 	.word	0x20000a08
1000e554:	20778899 	.word	0x20778899

1000e558 <process_attest>:
1000e558:	b530      	push	{r4, r5, lr}
1000e55a:	4c25      	ldr	r4, [pc, #148]	@ (1000e5f0 <process_attest+0x98>)
1000e55c:	7863      	ldrb	r3, [r4, #1]
1000e55e:	78a2      	ldrb	r2, [r4, #2]
1000e560:	f1a3 0399 	sub.w	r3, r3, #153	@ 0x99
1000e564:	fab3 f383 	clz	r3, r3
1000e568:	2a88      	cmp	r2, #136	@ 0x88
1000e56a:	b083      	sub	sp, #12
1000e56c:	ea4f 1353 	mov.w	r3, r3, lsr #5
1000e570:	d005      	beq.n	1000e57e <process_attest+0x26>
1000e572:	4820      	ldr	r0, [pc, #128]	@ (1000e5f4 <process_attest+0x9c>)
1000e574:	b003      	add	sp, #12
1000e576:	e8bd 4030 	ldmia.w	sp!, {r4, r5, lr}
1000e57a:	f006 baed 	b.w	10014b58 <printf>
1000e57e:	78e2      	ldrb	r2, [r4, #3]
1000e580:	2a77      	cmp	r2, #119	@ 0x77
1000e582:	d1f6      	bne.n	1000e572 <process_attest+0x1a>
1000e584:	7922      	ldrb	r2, [r4, #4]
1000e586:	2a20      	cmp	r2, #32
1000e588:	f103 0302 	add.w	r3, r3, #2
1000e58c:	d1f1      	bne.n	1000e572 <process_attest+0x1a>
1000e58e:	2b02      	cmp	r3, #2
1000e590:	d0ef      	beq.n	1000e572 <process_attest+0x1a>
1000e592:	22eb      	movs	r2, #235	@ 0xeb
1000e594:	2100      	movs	r1, #0
1000e596:	4818      	ldr	r0, [pc, #96]	@ (1000e5f8 <process_attest+0xa0>)
1000e598:	f006 f9aa 	bl	100148f0 <memset>
1000e59c:	4817      	ldr	r0, [pc, #92]	@ (1000e5fc <process_attest+0xa4>)
1000e59e:	9000      	str	r0, [sp, #0]
1000e5a0:	4b17      	ldr	r3, [pc, #92]	@ (1000e600 <process_attest+0xa8>)
1000e5a2:	4a18      	ldr	r2, [pc, #96]	@ (1000e604 <process_attest+0xac>)
1000e5a4:	4918      	ldr	r1, [pc, #96]	@ (1000e608 <process_attest+0xb0>)
1000e5a6:	4814      	ldr	r0, [pc, #80]	@ (1000e5f8 <process_attest+0xa0>)
1000e5a8:	f004 f80a 	bl	100125c0 <sprintf>
1000e5ac:	4817      	ldr	r0, [pc, #92]	@ (1000e60c <process_attest+0xb4>)
1000e5ae:	4912      	ldr	r1, [pc, #72]	@ (1000e5f8 <process_attest+0xa0>)
1000e5b0:	2300      	movs	r3, #0
1000e5b2:	e9c0 3300 	strd	r3, r3, [r0]
1000e5b6:	7203      	strb	r3, [r0, #8]
1000e5b8:	2204      	movs	r2, #4
1000e5ba:	f8d4 3005 	ldr.w	r3, [r4, #5]
1000e5be:	f800 2c0c 	strb.w	r2, [r0, #-12]
1000e5c2:	f840 3c07 	str.w	r3, [r0, #-7]
1000e5c6:	f8d4 2009 	ldr.w	r2, [r4, #9]
1000e5ca:	4b11      	ldr	r3, [pc, #68]	@ (1000e610 <process_attest+0xb8>)
1000e5cc:	f840 2c03 	str.w	r2, [r0, #-3]
1000e5d0:	f1a0 050c 	sub.w	r5, r0, #12
1000e5d4:	f840 3c0b 	str.w	r3, [r0, #-11]
1000e5d8:	22eb      	movs	r2, #235	@ 0xeb
1000e5da:	3009      	adds	r0, #9
1000e5dc:	f007 fcf0 	bl	10015fc0 <memcpy>
1000e5e0:	490c      	ldr	r1, [pc, #48]	@ (1000e614 <process_attest+0xbc>)
1000e5e2:	4628      	mov	r0, r5
1000e5e4:	b003      	add	sp, #12
1000e5e6:	e8bd 4030 	ldmia.w	sp!, {r4, r5, lr}
1000e5ea:	f7ff be91 	b.w	1000e310 <secure_send_packet_and_ack>
1000e5ee:	bf00      	nop
1000e5f0:	20000a08 	.word	0x20000a08
1000e5f4:	1001b510 	.word	0x1001b510
1000e5f8:	2000081c 	.word	0x2000081c
1000e5fc:	1001b580 	.word	0x1001b580
1000e600:	1001b554 	.word	0x1001b554
1000e604:	1001b55c 	.word	0x1001b55c
1000e608:	1001b568 	.word	0x1001b568
1000e60c:	20000914 	.word	0x20000914
1000e610:	20778899 	.word	0x20778899
1000e614:	20000b0c 	.word	0x20000b0c

1000e618 <component_process_cmd>:
1000e618:	b510      	push	{r4, lr}
1000e61a:	f44f 7280 	mov.w	r2, #256	@ 0x100
1000e61e:	2100      	movs	r1, #0
1000e620:	4818      	ldr	r0, [pc, #96]	@ (1000e684 <component_process_cmd+0x6c>)
1000e622:	f006 f965 	bl	100148f0 <memset>
1000e626:	4918      	ldr	r1, [pc, #96]	@ (1000e688 <component_process_cmd+0x70>)
1000e628:	4816      	ldr	r0, [pc, #88]	@ (1000e684 <component_process_cmd+0x6c>)
1000e62a:	f7ff fe8f 	bl	1000e34c <secure_wait_and_receive_packet>
1000e62e:	2801      	cmp	r0, #1
1000e630:	d024      	beq.n	1000e67c <component_process_cmd+0x64>
1000e632:	4c16      	ldr	r4, [pc, #88]	@ (1000e68c <component_process_cmd+0x74>)
1000e634:	2802      	cmp	r0, #2
1000e636:	7823      	ldrb	r3, [r4, #0]
1000e638:	d013      	beq.n	1000e662 <component_process_cmd+0x4a>
1000e63a:	b1d3      	cbz	r3, 1000e672 <component_process_cmd+0x5a>
1000e63c:	4b11      	ldr	r3, [pc, #68]	@ (1000e684 <component_process_cmd+0x6c>)
1000e63e:	7819      	ldrb	r1, [r3, #0]
1000e640:	2902      	cmp	r1, #2
1000e642:	d00a      	beq.n	1000e65a <component_process_cmd+0x42>
1000e644:	2904      	cmp	r1, #4
1000e646:	d004      	beq.n	1000e652 <component_process_cmd+0x3a>
1000e648:	e8bd 4010 	ldmia.w	sp!, {r4, lr}
1000e64c:	4810      	ldr	r0, [pc, #64]	@ (1000e690 <component_process_cmd+0x78>)
1000e64e:	f006 ba83 	b.w	10014b58 <printf>
1000e652:	e8bd 4010 	ldmia.w	sp!, {r4, lr}
1000e656:	f7ff bf7f 	b.w	1000e558 <process_attest>
1000e65a:	e8bd 4010 	ldmia.w	sp!, {r4, lr}
1000e65e:	f7ff bf0d 	b.w	1000e47c <process_boot>
1000e662:	2b00      	cmp	r3, #0
1000e664:	d1ea      	bne.n	1000e63c <component_process_cmd+0x24>
1000e666:	4808      	ldr	r0, [pc, #32]	@ (1000e688 <component_process_cmd+0x70>)
1000e668:	f000 f896 	bl	1000e798 <key_sync>
1000e66c:	2301      	movs	r3, #1
1000e66e:	7023      	strb	r3, [r4, #0]
1000e670:	bd10      	pop	{r4, pc}
1000e672:	e8bd 4010 	ldmia.w	sp!, {r4, lr}
1000e676:	4807      	ldr	r0, [pc, #28]	@ (1000e694 <component_process_cmd+0x7c>)
1000e678:	f006 ba6e 	b.w	10014b58 <printf>
1000e67c:	e8bd 4010 	ldmia.w	sp!, {r4, lr}
1000e680:	f7ff bf46 	b.w	1000e510 <process_scan>
1000e684:	20000a08 	.word	0x20000a08
1000e688:	20000b0c 	.word	0x20000b0c
1000e68c:	20000b08 	.word	0x20000b08
1000e690:	1001b5a4 	.word	0x1001b5a4
1000e694:	1001b58c 	.word	0x1001b58c

1000e698 <main>:
1000e698:	b508      	push	{r3, lr}
1000e69a:	480e      	ldr	r0, [pc, #56]	@ (1000e6d4 <main+0x3c>)
1000e69c:	f006 fabc 	bl	10014c18 <puts>
1000e6a0:	480d      	ldr	r0, [pc, #52]	@ (1000e6d8 <main+0x40>)
1000e6a2:	f003 fb43 	bl	10011d2c <MXC_ICC_Disable>
1000e6a6:	b662      	cpsie	i
1000e6a8:	480c      	ldr	r0, [pc, #48]	@ (1000e6dc <main+0x44>)
1000e6aa:	f7ff fe05 	bl	1000e2b8 <component_id_to_i2c_addr>
1000e6ae:	f7ff fe01 	bl	1000e2b4 <board_link_init>
1000e6b2:	480b      	ldr	r0, [pc, #44]	@ (1000e6e0 <main+0x48>)
1000e6b4:	2110      	movs	r1, #16
1000e6b6:	f7ff fded 	bl	1000e294 <Rand_NASYC>
1000e6ba:	480a      	ldr	r0, [pc, #40]	@ (1000e6e4 <main+0x4c>)
1000e6bc:	2110      	movs	r1, #16
1000e6be:	f7ff fde9 	bl	1000e294 <Rand_NASYC>
1000e6c2:	4b09      	ldr	r3, [pc, #36]	@ (1000e6e8 <main+0x50>)
1000e6c4:	2200      	movs	r2, #0
1000e6c6:	2001      	movs	r0, #1
1000e6c8:	701a      	strb	r2, [r3, #0]
1000e6ca:	f002 fb9b 	bl	10010e04 <LED_On>
1000e6ce:	f7ff ffa3 	bl	1000e618 <component_process_cmd>
1000e6d2:	e7fc      	b.n	1000e6ce <main+0x36>
1000e6d4:	1001b5d0 	.word	0x1001b5d0
1000e6d8:	4002a000 	.word	0x4002a000
1000e6dc:	99887720 	.word	0x99887720
1000e6e0:	20000b0c 	.word	0x20000b0c
1000e6e4:	20000000 	.word	0x20000000
1000e6e8:	20000b08 	.word	0x20000b08

1000e6ec <sync2>:
1000e6ec:	b570      	push	{r4, r5, r6, lr}
1000e6ee:	460c      	mov	r4, r1
1000e6f0:	b086      	sub	sp, #24
1000e6f2:	4915      	ldr	r1, [pc, #84]	@ (1000e748 <sync2+0x5c>)
1000e6f4:	2210      	movs	r2, #16
1000e6f6:	ab01      	add	r3, sp, #4
1000e6f8:	4606      	mov	r6, r0
1000e6fa:	4620      	mov	r0, r4
1000e6fc:	f000 fa38 	bl	1000eb70 <XOR_secure>
1000e700:	4623      	mov	r3, r4
1000e702:	2210      	movs	r2, #16
1000e704:	4810      	ldr	r0, [pc, #64]	@ (1000e748 <sync2+0x5c>)
1000e706:	4911      	ldr	r1, [pc, #68]	@ (1000e74c <sync2+0x60>)
1000e708:	f000 fa32 	bl	1000eb70 <XOR_secure>
1000e70c:	4621      	mov	r1, r4
1000e70e:	2010      	movs	r0, #16
1000e710:	f7ff fdd4 	bl	1000e2bc <send_packet_and_ack>
1000e714:	4620      	mov	r0, r4
1000e716:	f7ff fde7 	bl	1000e2e8 <wait_and_receive_packet>
1000e71a:	2810      	cmp	r0, #16
1000e71c:	d003      	beq.n	1000e726 <sync2+0x3a>
1000e71e:	25ff      	movs	r5, #255	@ 0xff
1000e720:	4628      	mov	r0, r5
1000e722:	b006      	add	sp, #24
1000e724:	bd70      	pop	{r4, r5, r6, pc}
1000e726:	4605      	mov	r5, r0
1000e728:	4621      	mov	r1, r4
1000e72a:	a801      	add	r0, sp, #4
1000e72c:	4633      	mov	r3, r6
1000e72e:	462a      	mov	r2, r5
1000e730:	f000 fa1e 	bl	1000eb70 <XOR_secure>
1000e734:	4630      	mov	r0, r6
1000e736:	4906      	ldr	r1, [pc, #24]	@ (1000e750 <sync2+0x64>)
1000e738:	4633      	mov	r3, r6
1000e73a:	462a      	mov	r2, r5
1000e73c:	f000 fa18 	bl	1000eb70 <XOR_secure>
1000e740:	4628      	mov	r0, r5
1000e742:	b006      	add	sp, #24
1000e744:	bd70      	pop	{r4, r5, r6, pc}
1000e746:	bf00      	nop
1000e748:	20000000 	.word	0x20000000
1000e74c:	1001b5f4 	.word	0x1001b5f4
1000e750:	1001b5e4 	.word	0x1001b5e4

1000e754 <sync1>:
1000e754:	b570      	push	{r4, r5, r6, lr}
1000e756:	4e0d      	ldr	r6, [pc, #52]	@ (1000e78c <sync1+0x38>)
1000e758:	460c      	mov	r4, r1
1000e75a:	4605      	mov	r5, r0
1000e75c:	4631      	mov	r1, r6
1000e75e:	4603      	mov	r3, r0
1000e760:	2210      	movs	r2, #16
1000e762:	4620      	mov	r0, r4
1000e764:	f000 fa04 	bl	1000eb70 <XOR_secure>
1000e768:	462b      	mov	r3, r5
1000e76a:	4628      	mov	r0, r5
1000e76c:	4908      	ldr	r1, [pc, #32]	@ (1000e790 <sync1+0x3c>)
1000e76e:	2210      	movs	r2, #16
1000e770:	f000 f9fe 	bl	1000eb70 <XOR_secure>
1000e774:	4630      	mov	r0, r6
1000e776:	4907      	ldr	r1, [pc, #28]	@ (1000e794 <sync1+0x40>)
1000e778:	4623      	mov	r3, r4
1000e77a:	2210      	movs	r2, #16
1000e77c:	f000 f9f8 	bl	1000eb70 <XOR_secure>
1000e780:	4621      	mov	r1, r4
1000e782:	2010      	movs	r0, #16
1000e784:	e8bd 4070 	ldmia.w	sp!, {r4, r5, r6, lr}
1000e788:	f7ff bd98 	b.w	1000e2bc <send_packet_and_ack>
1000e78c:	20000000 	.word	0x20000000
1000e790:	1001b5f4 	.word	0x1001b5f4
1000e794:	1001b5e4 	.word	0x1001b5e4

1000e798 <key_sync>:
1000e798:	b570      	push	{r4, r5, r6, lr}
1000e79a:	4e0e      	ldr	r6, [pc, #56]	@ (1000e7d4 <key_sync+0x3c>)
1000e79c:	4605      	mov	r5, r0
1000e79e:	4630      	mov	r0, r6
1000e7a0:	f7ff fda2 	bl	1000e2e8 <wait_and_receive_packet>
1000e7a4:	2812      	cmp	r0, #18
1000e7a6:	d104      	bne.n	1000e7b2 <key_sync+0x1a>
1000e7a8:	7c73      	ldrb	r3, [r6, #17]
1000e7aa:	2b31      	cmp	r3, #49	@ 0x31
1000e7ac:	d00a      	beq.n	1000e7c4 <key_sync+0x2c>
1000e7ae:	2b32      	cmp	r3, #50	@ 0x32
1000e7b0:	d002      	beq.n	1000e7b8 <key_sync+0x20>
1000e7b2:	24ff      	movs	r4, #255	@ 0xff
1000e7b4:	4620      	mov	r0, r4
1000e7b6:	bd70      	pop	{r4, r5, r6, pc}
1000e7b8:	4631      	mov	r1, r6
1000e7ba:	4628      	mov	r0, r5
1000e7bc:	e8bd 4070 	ldmia.w	sp!, {r4, r5, r6, lr}
1000e7c0:	f7ff bf94 	b.w	1000e6ec <sync2>
1000e7c4:	4604      	mov	r4, r0
1000e7c6:	4631      	mov	r1, r6
1000e7c8:	4628      	mov	r0, r5
1000e7ca:	f7ff ffc3 	bl	1000e754 <sync1>
1000e7ce:	4620      	mov	r0, r4
1000e7d0:	bd70      	pop	{r4, r5, r6, pc}
1000e7d2:	bf00      	nop
1000e7d4:	20000b1c 	.word	0x20000b1c

1000e7d8 <encrypt_sym>:
 * @param ciphertext A pointer to a buffer of length len where the resulting
 *          ciphertext will be written to
 *
 * @return 0 on success, -1 on bad length, other non-zero for other error
 */
int encrypt_sym(uint8_t *plaintext, size_t len, uint8_t *key, uint8_t *ciphertext) {
1000e7d8:	e92d 41f0 	stmdb	sp!, {r4, r5, r6, r7, r8, lr}
1000e7dc:	460c      	mov	r4, r1
1000e7de:	b0dc      	sub	sp, #368	@ 0x170
    Aes ctx; // Context for encryption
    int result; // Library result

    // Ensure valid length
    if (len <= 0 || len % BLOCK_SIZE)
1000e7e0:	b309      	cbz	r1, 1000e826 <encrypt_sym+0x4e>
1000e7e2:	461e      	mov	r6, r3
1000e7e4:	f011 030f 	ands.w	r3, r1, #15
1000e7e8:	d11d      	bne.n	1000e826 <encrypt_sym+0x4e>
        return -1;

    // Set the key for encryption
    result = wc_AesSetKey(&ctx, key, 16, NULL, AES_ENCRYPTION);
1000e7ea:	4611      	mov	r1, r2
1000e7ec:	4605      	mov	r5, r0
1000e7ee:	9300      	str	r3, [sp, #0]
1000e7f0:	2210      	movs	r2, #16
1000e7f2:	a803      	add	r0, sp, #12
1000e7f4:	f002 f9f6 	bl	10010be4 <wc_AesSetKey>
    if (result != 0)
1000e7f8:	4680      	mov	r8, r0
1000e7fa:	b980      	cbnz	r0, 1000e81e <encrypt_sym+0x46>
        return result; // Report error


    // Encrypt each block
    for (int i = 0; i < len - 1; i += BLOCK_SIZE) {
1000e7fc:	2c01      	cmp	r4, #1
1000e7fe:	f104 37ff 	add.w	r7, r4, #4294967295	@ 0xffffffff
1000e802:	d00c      	beq.n	1000e81e <encrypt_sym+0x46>
1000e804:	4604      	mov	r4, r0
1000e806:	e001      	b.n	1000e80c <encrypt_sym+0x34>
1000e808:	42a7      	cmp	r7, r4
1000e80a:	d908      	bls.n	1000e81e <encrypt_sym+0x46>
        result = wc_AesEncryptDirect(&ctx, ciphertext + i, plaintext + i);
1000e80c:	192a      	adds	r2, r5, r4
1000e80e:	1931      	adds	r1, r6, r4
1000e810:	a803      	add	r0, sp, #12
    for (int i = 0; i < len - 1; i += BLOCK_SIZE) {
1000e812:	3410      	adds	r4, #16
        result = wc_AesEncryptDirect(&ctx, ciphertext + i, plaintext + i);
1000e814:	f002 f9f6 	bl	10010c04 <wc_AesEncryptDirect>
        if (result != 0)
1000e818:	2800      	cmp	r0, #0
1000e81a:	d0f5      	beq.n	1000e808 <encrypt_sym+0x30>
        result = wc_AesEncryptDirect(&ctx, ciphertext + i, plaintext + i);
1000e81c:	4680      	mov	r8, r0
            return result; // Report error
    }
    return 0;
}
1000e81e:	4640      	mov	r0, r8
1000e820:	b05c      	add	sp, #368	@ 0x170
1000e822:	e8bd 81f0 	ldmia.w	sp!, {r4, r5, r6, r7, r8, pc}
        return -1;
1000e826:	f04f 38ff 	mov.w	r8, #4294967295	@ 0xffffffff
1000e82a:	e7f8      	b.n	1000e81e <encrypt_sym+0x46>

1000e82c <decrypt_sym>:
 * @param plaintext A pointer to a buffer of length len where the resulting
 *          plaintext will be written to
 *
 * @return 0 on success, -1 on bad length, other non-zero for other error
 */
int decrypt_sym(uint8_t *ciphertext, size_t len, uint8_t *key, uint8_t *plaintext) {
1000e82c:	e92d 41f0 	stmdb	sp!, {r4, r5, r6, r7, r8, lr}
1000e830:	b0dc      	sub	sp, #368	@ 0x170
    Aes ctx; // Context for decryption
    int result; // Library result

    // Ensure valid length
    if (len <= 0 || len % BLOCK_SIZE)
1000e832:	b319      	cbz	r1, 1000e87c <decrypt_sym+0x50>
1000e834:	461e      	mov	r6, r3
1000e836:	f011 030f 	ands.w	r3, r1, #15
1000e83a:	460c      	mov	r4, r1
1000e83c:	d11e      	bne.n	1000e87c <decrypt_sym+0x50>
        return -1;

    // Set the key for decryption
    result = wc_AesSetKey(&ctx, key, 16, NULL, AES_DECRYPTION);
1000e83e:	4611      	mov	r1, r2
1000e840:	2201      	movs	r2, #1
1000e842:	9200      	str	r2, [sp, #0]
1000e844:	4605      	mov	r5, r0
1000e846:	2210      	movs	r2, #16
1000e848:	a803      	add	r0, sp, #12
1000e84a:	f002 f9cb 	bl	10010be4 <wc_AesSetKey>
    if (result != 0)
1000e84e:	4680      	mov	r8, r0
1000e850:	b980      	cbnz	r0, 1000e874 <decrypt_sym+0x48>
        return result; // Report error

    // Decrypt each block
    for (int i = 0; i < len - 1; i += BLOCK_SIZE) {
1000e852:	2c01      	cmp	r4, #1
1000e854:	f104 37ff 	add.w	r7, r4, #4294967295	@ 0xffffffff
1000e858:	d00c      	beq.n	1000e874 <decrypt_sym+0x48>
1000e85a:	4604      	mov	r4, r0
1000e85c:	e001      	b.n	1000e862 <decrypt_sym+0x36>
1000e85e:	42a7      	cmp	r7, r4
1000e860:	d908      	bls.n	1000e874 <decrypt_sym+0x48>
        result = wc_AesDecryptDirect(&ctx, plaintext + i, ciphertext + i);
1000e862:	192a      	adds	r2, r5, r4
1000e864:	1931      	adds	r1, r6, r4
1000e866:	a803      	add	r0, sp, #12
    for (int i = 0; i < len - 1; i += BLOCK_SIZE) {
1000e868:	3410      	adds	r4, #16
        result = wc_AesDecryptDirect(&ctx, plaintext + i, ciphertext + i);
1000e86a:	f002 f9e3 	bl	10010c34 <wc_AesDecryptDirect>
        if (result != 0)
1000e86e:	2800      	cmp	r0, #0
1000e870:	d0f5      	beq.n	1000e85e <decrypt_sym+0x32>
        result = wc_AesDecryptDirect(&ctx, plaintext + i, ciphertext + i);
1000e872:	4680      	mov	r8, r0
            return result; // Report error
    }
    return 0;
}
1000e874:	4640      	mov	r0, r8
1000e876:	b05c      	add	sp, #368	@ 0x170
1000e878:	e8bd 81f0 	ldmia.w	sp!, {r4, r5, r6, r7, r8, pc}
        return -1;
1000e87c:	f04f 38ff 	mov.w	r8, #4294967295	@ 0xffffffff
1000e880:	e7f8      	b.n	1000e874 <decrypt_sym+0x48>
1000e882:	bf00      	nop

1000e884 <i2c_simple_isr>:
    static int READ_INDEX = 0;
    static int WRITE_INDEX = 0;
    static ECTF_I2C_REGS ACTIVE_REG = RECEIVE;

    // Read interrupt flags
    uint32_t Flags = I2C_INTERFACE->intfl0;
1000e884:	4890      	ldr	r0, [pc, #576]	@ (1000eac8 <i2c_simple_isr+0x244>)
void i2c_simple_isr (void) {
1000e886:	b5f8      	push	{r3, r4, r5, r6, r7, lr}
    uint32_t Flags = I2C_INTERFACE->intfl0;
1000e888:	6884      	ldr	r4, [r0, #8]
    
    // Transaction over interrupt
    if (Flags & MXC_F_I2C_INTFL0_STOP) {
1000e88a:	0663      	lsls	r3, r4, #25
1000e88c:	d549      	bpl.n	1000e922 <i2c_simple_isr+0x9e>
        
        // Ready any remaining data
        if (WRITE_START == true) {
1000e88e:	4e8f      	ldr	r6, [pc, #572]	@ (1000eacc <i2c_simple_isr+0x248>)
1000e890:	7833      	ldrb	r3, [r6, #0]
1000e892:	2b00      	cmp	r3, #0
1000e894:	f040 80cb 	bne.w	1000ea2e <i2c_simple_isr+0x1aa>
            MXC_I2C_ReadRXFIFO(I2C_INTERFACE, (volatile unsigned char*) &ACTIVE_REG, 1);
            WRITE_START = false;
        }
        if (ACTIVE_REG <= MAX_REG) {
1000e898:	4d8d      	ldr	r5, [pc, #564]	@ (1000ead0 <i2c_simple_isr+0x24c>)
            int available = MXC_I2C_GetRXFIFOAvailable(I2C_INTERFACE);
1000e89a:	488b      	ldr	r0, [pc, #556]	@ (1000eac8 <i2c_simple_isr+0x244>)
        if (ACTIVE_REG <= MAX_REG) {
1000e89c:	782b      	ldrb	r3, [r5, #0]
1000e89e:	2b05      	cmp	r3, #5
1000e8a0:	d81b      	bhi.n	1000e8da <i2c_simple_isr+0x56>
            int available = MXC_I2C_GetRXFIFOAvailable(I2C_INTERFACE);
1000e8a2:	f003 f84d 	bl	10011940 <MXC_I2C_GetRXFIFOAvailable>
            if (available < (I2C_REGS_LEN[ACTIVE_REG]-WRITE_INDEX)) {
1000e8a6:	7829      	ldrb	r1, [r5, #0]
1000e8a8:	4b8a      	ldr	r3, [pc, #552]	@ (1000ead4 <i2c_simple_isr+0x250>)
1000e8aa:	4d8b      	ldr	r5, [pc, #556]	@ (1000ead8 <i2c_simple_isr+0x254>)
1000e8ac:	f853 2021 	ldr.w	r2, [r3, r1, lsl #2]
1000e8b0:	682b      	ldr	r3, [r5, #0]
1000e8b2:	1ad2      	subs	r2, r2, r3
1000e8b4:	4282      	cmp	r2, r0
1000e8b6:	f340 80da 	ble.w	1000ea6e <i2c_simple_isr+0x1ea>
                WRITE_INDEX += MXC_I2C_ReadRXFIFO(I2C_INTERFACE,
                    &I2C_REGS[ACTIVE_REG][WRITE_INDEX],
1000e8ba:	4a88      	ldr	r2, [pc, #544]	@ (1000eadc <i2c_simple_isr+0x258>)
                    MXC_I2C_GetRXFIFOAvailable(I2C_INTERFACE));
1000e8bc:	4882      	ldr	r0, [pc, #520]	@ (1000eac8 <i2c_simple_isr+0x244>)
                    &I2C_REGS[ACTIVE_REG][WRITE_INDEX],
1000e8be:	f852 7021 	ldr.w	r7, [r2, r1, lsl #2]
1000e8c2:	441f      	add	r7, r3
                    MXC_I2C_GetRXFIFOAvailable(I2C_INTERFACE));
1000e8c4:	f003 f83c 	bl	10011940 <MXC_I2C_GetRXFIFOAvailable>
                WRITE_INDEX += MXC_I2C_ReadRXFIFO(I2C_INTERFACE,
1000e8c8:	4639      	mov	r1, r7
                    MXC_I2C_GetRXFIFOAvailable(I2C_INTERFACE));
1000e8ca:	4602      	mov	r2, r0
            }
            else {
                WRITE_INDEX += MXC_I2C_ReadRXFIFO(I2C_INTERFACE,
1000e8cc:	487e      	ldr	r0, [pc, #504]	@ (1000eac8 <i2c_simple_isr+0x244>)
1000e8ce:	f003 f835 	bl	1001193c <MXC_I2C_ReadRXFIFO>
1000e8d2:	682b      	ldr	r3, [r5, #0]
1000e8d4:	4403      	add	r3, r0
1000e8d6:	602b      	str	r3, [r5, #0]
1000e8d8:	e002      	b.n	1000e8e0 <i2c_simple_isr+0x5c>
                    &I2C_REGS[ACTIVE_REG][WRITE_INDEX],
                    I2C_REGS_LEN[ACTIVE_REG]-WRITE_INDEX);
            }
        } else {
            MXC_I2C_ClearRXFIFO(I2C_INTERFACE);
1000e8da:	f003 f837 	bl	1001194c <MXC_I2C_ClearRXFIFO>
1000e8de:	4d7e      	ldr	r5, [pc, #504]	@ (1000ead8 <i2c_simple_isr+0x254>)
        }

        // Disable bulk send/receive interrupts
        MXC_I2C_DisableInt(I2C_INTERFACE, MXC_F_I2C_INTEN0_RX_THD, 0);
1000e8e0:	4879      	ldr	r0, [pc, #484]	@ (1000eac8 <i2c_simple_isr+0x244>)
1000e8e2:	2200      	movs	r2, #0
1000e8e4:	2110      	movs	r1, #16
1000e8e6:	f003 f839 	bl	1001195c <MXC_I2C_DisableInt>
        MXC_I2C_DisableInt(I2C_INTERFACE, MXC_F_I2C_INTEN0_TX_THD, 0);
1000e8ea:	4877      	ldr	r0, [pc, #476]	@ (1000eac8 <i2c_simple_isr+0x244>)
1000e8ec:	2200      	movs	r2, #0
1000e8ee:	2120      	movs	r1, #32
1000e8f0:	f003 f834 	bl	1001195c <MXC_I2C_DisableInt>

        // Clear FIFOs if full
        if (MXC_I2C_GetRXFIFOAvailable(I2C_INTERFACE) != 0) {
1000e8f4:	4874      	ldr	r0, [pc, #464]	@ (1000eac8 <i2c_simple_isr+0x244>)
1000e8f6:	f003 f823 	bl	10011940 <MXC_I2C_GetRXFIFOAvailable>
1000e8fa:	2800      	cmp	r0, #0
1000e8fc:	f040 80df 	bne.w	1000eabe <i2c_simple_isr+0x23a>
            MXC_I2C_ClearRXFIFO(I2C_INTERFACE);
        }
        if (MXC_I2C_GetTXFIFOAvailable(I2C_INTERFACE) != 8) {
1000e900:	4871      	ldr	r0, [pc, #452]	@ (1000eac8 <i2c_simple_isr+0x244>)
1000e902:	f003 f821 	bl	10011948 <MXC_I2C_GetTXFIFOAvailable>
1000e906:	2808      	cmp	r0, #8
1000e908:	d002      	beq.n	1000e910 <i2c_simple_isr+0x8c>
            MXC_I2C_ClearTXFIFO(I2C_INTERFACE);
1000e90a:	486f      	ldr	r0, [pc, #444]	@ (1000eac8 <i2c_simple_isr+0x244>)
1000e90c:	f003 f820 	bl	10011950 <MXC_I2C_ClearTXFIFO>
        }

        // Reset state
        READ_INDEX = 0;
1000e910:	4b73      	ldr	r3, [pc, #460]	@ (1000eae0 <i2c_simple_isr+0x25c>)
        WRITE_INDEX = 0;
        WRITE_START = false;

        // Clear ISR flag
        MXC_I2C_ClearFlags(I2C_INTERFACE, MXC_F_I2C_INTFL0_STOP, 0);
1000e912:	486d      	ldr	r0, [pc, #436]	@ (1000eac8 <i2c_simple_isr+0x244>)
        READ_INDEX = 0;
1000e914:	2200      	movs	r2, #0
        MXC_I2C_ClearFlags(I2C_INTERFACE, MXC_F_I2C_INTFL0_STOP, 0);
1000e916:	2140      	movs	r1, #64	@ 0x40
        WRITE_INDEX = 0;
1000e918:	602a      	str	r2, [r5, #0]
        READ_INDEX = 0;
1000e91a:	601a      	str	r2, [r3, #0]
        WRITE_START = false;
1000e91c:	7032      	strb	r2, [r6, #0]
        MXC_I2C_ClearFlags(I2C_INTERFACE, MXC_F_I2C_INTFL0_STOP, 0);
1000e91e:	f003 f819 	bl	10011954 <MXC_I2C_ClearFlags>
    }

    // TX Fifo Threshold Met on Read
    if (Flags & MXC_F_I2C_INTEN0_TX_THD && (I2C_INTERFACE->inten0 & MXC_F_I2C_INTEN0_TX_THD)) {
1000e922:	06a7      	lsls	r7, r4, #26
1000e924:	d503      	bpl.n	1000e92e <i2c_simple_isr+0xaa>
1000e926:	4868      	ldr	r0, [pc, #416]	@ (1000eac8 <i2c_simple_isr+0x244>)
1000e928:	68c3      	ldr	r3, [r0, #12]
1000e92a:	069e      	lsls	r6, r3, #26
1000e92c:	d433      	bmi.n	1000e996 <i2c_simple_isr+0x112>
        // Clear ISR flag
        MXC_I2C_ClearFlags(I2C_INTERFACE, MXC_F_I2C_INTFL0_TX_THD, 0);
    }

    // Read from Peripheral from Controller Match
    if (Flags & MXC_F_I2C_INTFL0_WR_ADDR_MATCH) {
1000e92e:	0220      	lsls	r0, r4, #8
1000e930:	d43f      	bmi.n	1000e9b2 <i2c_simple_isr+0x12e>
            }
        }
    }

    // Write to Peripheral from Controller Match
    if (Flags & MXC_F_I2C_INTFL0_RD_ADDR_MATCH) {
1000e932:	0262      	lsls	r2, r4, #9
1000e934:	d46c      	bmi.n	1000ea10 <i2c_simple_isr+0x18c>
        // Clear flag
        MXC_I2C_ClearFlags(I2C_INTERFACE, MXC_F_I2C_INTFL0_RD_ADDR_MATCH, 0);
    }

    // RX Fifo Threshold Met on Write
    if (Flags & MXC_F_I2C_INTEN0_RX_THD) {
1000e936:	06e3      	lsls	r3, r4, #27
1000e938:	d511      	bpl.n	1000e95e <i2c_simple_isr+0xda>
        // We always write a register before writing data so select register
        if (WRITE_START == true) {
1000e93a:	4c64      	ldr	r4, [pc, #400]	@ (1000eacc <i2c_simple_isr+0x248>)
1000e93c:	7823      	ldrb	r3, [r4, #0]
1000e93e:	2b00      	cmp	r3, #0
1000e940:	d17c      	bne.n	1000ea3c <i2c_simple_isr+0x1b8>
            MXC_I2C_ReadRXFIFO(I2C_INTERFACE, (volatile unsigned char*) &ACTIVE_REG, 1);
            WRITE_START = false;
        }
        // Read remaining data
        if (ACTIVE_REG <= MAX_REG) {
1000e942:	4c63      	ldr	r4, [pc, #396]	@ (1000ead0 <i2c_simple_isr+0x24c>)
            int available = MXC_I2C_GetRXFIFOAvailable(I2C_INTERFACE);
1000e944:	4860      	ldr	r0, [pc, #384]	@ (1000eac8 <i2c_simple_isr+0x244>)
        if (ACTIVE_REG <= MAX_REG) {
1000e946:	7823      	ldrb	r3, [r4, #0]
1000e948:	2b05      	cmp	r3, #5
1000e94a:	d909      	bls.n	1000e960 <i2c_simple_isr+0xdc>
                    &I2C_REGS[ACTIVE_REG][WRITE_INDEX],
                    I2C_REGS_LEN[ACTIVE_REG]-WRITE_INDEX);
            }
        // Clear out FIFO if invalid register specified
        } else {
            MXC_I2C_ClearRXFIFO(I2C_INTERFACE);
1000e94c:	f002 fffe 	bl	1001194c <MXC_I2C_ClearRXFIFO>
        }

        // Clear ISR flag
        MXC_I2C_ClearFlags(I2C_INTERFACE, MXC_F_I2C_INTFL0_RX_THD, 0);
    }
}
1000e950:	e8bd 40f8 	ldmia.w	sp!, {r3, r4, r5, r6, r7, lr}
        MXC_I2C_ClearFlags(I2C_INTERFACE, MXC_F_I2C_INTFL0_RX_THD, 0);
1000e954:	485c      	ldr	r0, [pc, #368]	@ (1000eac8 <i2c_simple_isr+0x244>)
1000e956:	2200      	movs	r2, #0
1000e958:	2110      	movs	r1, #16
1000e95a:	f002 bffb 	b.w	10011954 <MXC_I2C_ClearFlags>
}
1000e95e:	bdf8      	pop	{r3, r4, r5, r6, r7, pc}
            int available = MXC_I2C_GetRXFIFOAvailable(I2C_INTERFACE);
1000e960:	f002 ffee 	bl	10011940 <MXC_I2C_GetRXFIFOAvailable>
            if (available < (I2C_REGS_LEN[ACTIVE_REG]-WRITE_INDEX)) {
1000e964:	7821      	ldrb	r1, [r4, #0]
1000e966:	4a5b      	ldr	r2, [pc, #364]	@ (1000ead4 <i2c_simple_isr+0x250>)
1000e968:	4c5b      	ldr	r4, [pc, #364]	@ (1000ead8 <i2c_simple_isr+0x254>)
1000e96a:	f852 2021 	ldr.w	r2, [r2, r1, lsl #2]
1000e96e:	6823      	ldr	r3, [r4, #0]
1000e970:	1ad2      	subs	r2, r2, r3
1000e972:	4282      	cmp	r2, r0
1000e974:	dd70      	ble.n	1000ea58 <i2c_simple_isr+0x1d4>
                    &I2C_REGS[ACTIVE_REG][WRITE_INDEX],
1000e976:	4a59      	ldr	r2, [pc, #356]	@ (1000eadc <i2c_simple_isr+0x258>)
                    MXC_I2C_GetRXFIFOAvailable(I2C_INTERFACE));
1000e978:	4853      	ldr	r0, [pc, #332]	@ (1000eac8 <i2c_simple_isr+0x244>)
                    &I2C_REGS[ACTIVE_REG][WRITE_INDEX],
1000e97a:	f852 5021 	ldr.w	r5, [r2, r1, lsl #2]
1000e97e:	441d      	add	r5, r3
                    MXC_I2C_GetRXFIFOAvailable(I2C_INTERFACE));
1000e980:	f002 ffde 	bl	10011940 <MXC_I2C_GetRXFIFOAvailable>
                WRITE_INDEX += MXC_I2C_ReadRXFIFO(I2C_INTERFACE,
1000e984:	4629      	mov	r1, r5
                    MXC_I2C_GetRXFIFOAvailable(I2C_INTERFACE));
1000e986:	4602      	mov	r2, r0
                WRITE_INDEX += MXC_I2C_ReadRXFIFO(I2C_INTERFACE,
1000e988:	484f      	ldr	r0, [pc, #316]	@ (1000eac8 <i2c_simple_isr+0x244>)
1000e98a:	f002 ffd7 	bl	1001193c <MXC_I2C_ReadRXFIFO>
1000e98e:	6823      	ldr	r3, [r4, #0]
1000e990:	4403      	add	r3, r0
1000e992:	6023      	str	r3, [r4, #0]
1000e994:	e7dc      	b.n	1000e950 <i2c_simple_isr+0xcc>
        if (Flags & MXC_F_I2C_INTFL0_TX_LOCKOUT) {
1000e996:	0425      	lsls	r5, r4, #16
1000e998:	f100 808b 	bmi.w	1000eab2 <i2c_simple_isr+0x22e>
        if (ACTIVE_REG <= MAX_REG) {
1000e99c:	4d4c      	ldr	r5, [pc, #304]	@ (1000ead0 <i2c_simple_isr+0x24c>)
1000e99e:	782b      	ldrb	r3, [r5, #0]
1000e9a0:	2b05      	cmp	r3, #5
1000e9a2:	d969      	bls.n	1000ea78 <i2c_simple_isr+0x1f4>
        MXC_I2C_ClearFlags(I2C_INTERFACE, MXC_F_I2C_INTFL0_TX_THD, 0);
1000e9a4:	4848      	ldr	r0, [pc, #288]	@ (1000eac8 <i2c_simple_isr+0x244>)
1000e9a6:	2200      	movs	r2, #0
1000e9a8:	2120      	movs	r1, #32
1000e9aa:	f002 ffd3 	bl	10011954 <MXC_I2C_ClearFlags>
    if (Flags & MXC_F_I2C_INTFL0_WR_ADDR_MATCH) {
1000e9ae:	0220      	lsls	r0, r4, #8
1000e9b0:	d5bf      	bpl.n	1000e932 <i2c_simple_isr+0xae>
        MXC_I2C_ClearFlags(I2C_INTERFACE, MXC_F_I2C_INTFL0_WR_ADDR_MATCH, 0);
1000e9b2:	f44f 0100 	mov.w	r1, #8388608	@ 0x800000
1000e9b6:	4844      	ldr	r0, [pc, #272]	@ (1000eac8 <i2c_simple_isr+0x244>)
1000e9b8:	2200      	movs	r2, #0
1000e9ba:	f002 ffcb 	bl	10011954 <MXC_I2C_ClearFlags>
        if (Flags & MXC_F_I2C_INTFL0_TX_LOCKOUT) {
1000e9be:	0421      	lsls	r1, r4, #16
1000e9c0:	d5b7      	bpl.n	1000e932 <i2c_simple_isr+0xae>
            MXC_I2C_ReadRXFIFO(I2C_INTERFACE, (volatile unsigned char*) &ACTIVE_REG, 1);
1000e9c2:	4d43      	ldr	r5, [pc, #268]	@ (1000ead0 <i2c_simple_isr+0x24c>)
            MXC_I2C_ClearFlags(I2C_INTERFACE, MXC_F_I2C_INTFL0_TX_LOCKOUT, 0);
1000e9c4:	4840      	ldr	r0, [pc, #256]	@ (1000eac8 <i2c_simple_isr+0x244>)
1000e9c6:	2200      	movs	r2, #0
1000e9c8:	f44f 4100 	mov.w	r1, #32768	@ 0x8000
1000e9cc:	f002 ffc2 	bl	10011954 <MXC_I2C_ClearFlags>
            MXC_I2C_ReadRXFIFO(I2C_INTERFACE, (volatile unsigned char*) &ACTIVE_REG, 1);
1000e9d0:	483d      	ldr	r0, [pc, #244]	@ (1000eac8 <i2c_simple_isr+0x244>)
1000e9d2:	2201      	movs	r2, #1
1000e9d4:	4629      	mov	r1, r5
1000e9d6:	f002 ffb1 	bl	1001193c <MXC_I2C_ReadRXFIFO>
            if (ACTIVE_REG <= MAX_REG) {
1000e9da:	782b      	ldrb	r3, [r5, #0]
1000e9dc:	2b05      	cmp	r3, #5
1000e9de:	d8a8      	bhi.n	1000e932 <i2c_simple_isr+0xae>
                READ_INDEX += MXC_I2C_WriteTXFIFO(I2C_INTERFACE, (volatile unsigned char*)I2C_REGS[ACTIVE_REG], I2C_REGS_LEN[ACTIVE_REG]);
1000e9e0:	4e3c      	ldr	r6, [pc, #240]	@ (1000ead4 <i2c_simple_isr+0x250>)
1000e9e2:	4a3e      	ldr	r2, [pc, #248]	@ (1000eadc <i2c_simple_isr+0x258>)
1000e9e4:	4838      	ldr	r0, [pc, #224]	@ (1000eac8 <i2c_simple_isr+0x244>)
1000e9e6:	f852 1023 	ldr.w	r1, [r2, r3, lsl #2]
1000e9ea:	f856 2023 	ldr.w	r2, [r6, r3, lsl #2]
1000e9ee:	f002 ffa9 	bl	10011944 <MXC_I2C_WriteTXFIFO>
1000e9f2:	4b3b      	ldr	r3, [pc, #236]	@ (1000eae0 <i2c_simple_isr+0x25c>)
                if (READ_INDEX < I2C_REGS_LEN[ACTIVE_REG]) {
1000e9f4:	782a      	ldrb	r2, [r5, #0]
                READ_INDEX += MXC_I2C_WriteTXFIFO(I2C_INTERFACE, (volatile unsigned char*)I2C_REGS[ACTIVE_REG], I2C_REGS_LEN[ACTIVE_REG]);
1000e9f6:	6819      	ldr	r1, [r3, #0]
                if (READ_INDEX < I2C_REGS_LEN[ACTIVE_REG]) {
1000e9f8:	f856 2022 	ldr.w	r2, [r6, r2, lsl #2]
                READ_INDEX += MXC_I2C_WriteTXFIFO(I2C_INTERFACE, (volatile unsigned char*)I2C_REGS[ACTIVE_REG], I2C_REGS_LEN[ACTIVE_REG]);
1000e9fc:	4408      	add	r0, r1
                if (READ_INDEX < I2C_REGS_LEN[ACTIVE_REG]) {
1000e9fe:	4290      	cmp	r0, r2
                READ_INDEX += MXC_I2C_WriteTXFIFO(I2C_INTERFACE, (volatile unsigned char*)I2C_REGS[ACTIVE_REG], I2C_REGS_LEN[ACTIVE_REG]);
1000ea00:	6018      	str	r0, [r3, #0]
                if (READ_INDEX < I2C_REGS_LEN[ACTIVE_REG]) {
1000ea02:	da96      	bge.n	1000e932 <i2c_simple_isr+0xae>
                    MXC_I2C_EnableInt(I2C_INTERFACE, MXC_F_I2C_INTEN0_TX_THD, 0);
1000ea04:	4830      	ldr	r0, [pc, #192]	@ (1000eac8 <i2c_simple_isr+0x244>)
1000ea06:	2200      	movs	r2, #0
1000ea08:	2120      	movs	r1, #32
1000ea0a:	f002 ffa5 	bl	10011958 <MXC_I2C_EnableInt>
1000ea0e:	e790      	b.n	1000e932 <i2c_simple_isr+0xae>
        WRITE_START = true;
1000ea10:	4b2e      	ldr	r3, [pc, #184]	@ (1000eacc <i2c_simple_isr+0x248>)
        MXC_I2C_EnableInt(I2C_INTERFACE, MXC_F_I2C_INTEN0_RX_THD, 0);
1000ea12:	482d      	ldr	r0, [pc, #180]	@ (1000eac8 <i2c_simple_isr+0x244>)
1000ea14:	2200      	movs	r2, #0
1000ea16:	2110      	movs	r1, #16
        WRITE_START = true;
1000ea18:	2501      	movs	r5, #1
1000ea1a:	701d      	strb	r5, [r3, #0]
        MXC_I2C_EnableInt(I2C_INTERFACE, MXC_F_I2C_INTEN0_RX_THD, 0);
1000ea1c:	f002 ff9c 	bl	10011958 <MXC_I2C_EnableInt>
        MXC_I2C_ClearFlags(I2C_INTERFACE, MXC_F_I2C_INTFL0_RD_ADDR_MATCH, 0);
1000ea20:	4829      	ldr	r0, [pc, #164]	@ (1000eac8 <i2c_simple_isr+0x244>)
1000ea22:	2200      	movs	r2, #0
1000ea24:	f44f 0180 	mov.w	r1, #4194304	@ 0x400000
1000ea28:	f002 ff94 	bl	10011954 <MXC_I2C_ClearFlags>
1000ea2c:	e783      	b.n	1000e936 <i2c_simple_isr+0xb2>
            MXC_I2C_ReadRXFIFO(I2C_INTERFACE, (volatile unsigned char*) &ACTIVE_REG, 1);
1000ea2e:	4928      	ldr	r1, [pc, #160]	@ (1000ead0 <i2c_simple_isr+0x24c>)
1000ea30:	2201      	movs	r2, #1
1000ea32:	f002 ff83 	bl	1001193c <MXC_I2C_ReadRXFIFO>
            WRITE_START = false;
1000ea36:	2300      	movs	r3, #0
1000ea38:	7033      	strb	r3, [r6, #0]
1000ea3a:	e72d      	b.n	1000e898 <i2c_simple_isr+0x14>
            MXC_I2C_ReadRXFIFO(I2C_INTERFACE, (volatile unsigned char*) &ACTIVE_REG, 1);
1000ea3c:	4924      	ldr	r1, [pc, #144]	@ (1000ead0 <i2c_simple_isr+0x24c>)
1000ea3e:	4822      	ldr	r0, [pc, #136]	@ (1000eac8 <i2c_simple_isr+0x244>)
1000ea40:	2201      	movs	r2, #1
1000ea42:	f002 ff7b 	bl	1001193c <MXC_I2C_ReadRXFIFO>
            WRITE_START = false;
1000ea46:	2300      	movs	r3, #0
1000ea48:	7023      	strb	r3, [r4, #0]
        if (ACTIVE_REG <= MAX_REG) {
1000ea4a:	4c21      	ldr	r4, [pc, #132]	@ (1000ead0 <i2c_simple_isr+0x24c>)
            int available = MXC_I2C_GetRXFIFOAvailable(I2C_INTERFACE);
1000ea4c:	481e      	ldr	r0, [pc, #120]	@ (1000eac8 <i2c_simple_isr+0x244>)
        if (ACTIVE_REG <= MAX_REG) {
1000ea4e:	7823      	ldrb	r3, [r4, #0]
1000ea50:	2b05      	cmp	r3, #5
1000ea52:	f63f af7b 	bhi.w	1000e94c <i2c_simple_isr+0xc8>
1000ea56:	e783      	b.n	1000e960 <i2c_simple_isr+0xdc>
                    &I2C_REGS[ACTIVE_REG][WRITE_INDEX],
1000ea58:	4820      	ldr	r0, [pc, #128]	@ (1000eadc <i2c_simple_isr+0x258>)
1000ea5a:	f850 1021 	ldr.w	r1, [r0, r1, lsl #2]
                WRITE_INDEX += MXC_I2C_ReadRXFIFO(I2C_INTERFACE,
1000ea5e:	481a      	ldr	r0, [pc, #104]	@ (1000eac8 <i2c_simple_isr+0x244>)
1000ea60:	4419      	add	r1, r3
1000ea62:	f002 ff6b 	bl	1001193c <MXC_I2C_ReadRXFIFO>
1000ea66:	6823      	ldr	r3, [r4, #0]
1000ea68:	4403      	add	r3, r0
1000ea6a:	6023      	str	r3, [r4, #0]
1000ea6c:	e770      	b.n	1000e950 <i2c_simple_isr+0xcc>
                    &I2C_REGS[ACTIVE_REG][WRITE_INDEX],
1000ea6e:	481b      	ldr	r0, [pc, #108]	@ (1000eadc <i2c_simple_isr+0x258>)
1000ea70:	f850 1021 	ldr.w	r1, [r0, r1, lsl #2]
                WRITE_INDEX += MXC_I2C_ReadRXFIFO(I2C_INTERFACE,
1000ea74:	4419      	add	r1, r3
1000ea76:	e729      	b.n	1000e8cc <i2c_simple_isr+0x48>
            READ_INDEX += MXC_I2C_WriteTXFIFO(I2C_INTERFACE,
1000ea78:	4e19      	ldr	r6, [pc, #100]	@ (1000eae0 <i2c_simple_isr+0x25c>)
                I2C_REGS_LEN[ACTIVE_REG]-READ_INDEX);
1000ea7a:	4f16      	ldr	r7, [pc, #88]	@ (1000ead4 <i2c_simple_isr+0x250>)
                (volatile unsigned char*)&I2C_REGS[ACTIVE_REG][READ_INDEX],
1000ea7c:	4917      	ldr	r1, [pc, #92]	@ (1000eadc <i2c_simple_isr+0x258>)
            READ_INDEX += MXC_I2C_WriteTXFIFO(I2C_INTERFACE,
1000ea7e:	6832      	ldr	r2, [r6, #0]
                (volatile unsigned char*)&I2C_REGS[ACTIVE_REG][READ_INDEX],
1000ea80:	f851 1023 	ldr.w	r1, [r1, r3, lsl #2]
                I2C_REGS_LEN[ACTIVE_REG]-READ_INDEX);
1000ea84:	f857 3023 	ldr.w	r3, [r7, r3, lsl #2]
            READ_INDEX += MXC_I2C_WriteTXFIFO(I2C_INTERFACE,
1000ea88:	480f      	ldr	r0, [pc, #60]	@ (1000eac8 <i2c_simple_isr+0x244>)
1000ea8a:	4411      	add	r1, r2
1000ea8c:	1a9a      	subs	r2, r3, r2
1000ea8e:	f002 ff59 	bl	10011944 <MXC_I2C_WriteTXFIFO>
            if (I2C_REGS_LEN[ACTIVE_REG]-1 == READ_INDEX) {
1000ea92:	782b      	ldrb	r3, [r5, #0]
            READ_INDEX += MXC_I2C_WriteTXFIFO(I2C_INTERFACE,
1000ea94:	6832      	ldr	r2, [r6, #0]
            if (I2C_REGS_LEN[ACTIVE_REG]-1 == READ_INDEX) {
1000ea96:	f857 3023 	ldr.w	r3, [r7, r3, lsl #2]
            READ_INDEX += MXC_I2C_WriteTXFIFO(I2C_INTERFACE,
1000ea9a:	4410      	add	r0, r2
            if (I2C_REGS_LEN[ACTIVE_REG]-1 == READ_INDEX) {
1000ea9c:	3b01      	subs	r3, #1
1000ea9e:	4298      	cmp	r0, r3
            READ_INDEX += MXC_I2C_WriteTXFIFO(I2C_INTERFACE,
1000eaa0:	6030      	str	r0, [r6, #0]
            if (I2C_REGS_LEN[ACTIVE_REG]-1 == READ_INDEX) {
1000eaa2:	f47f af7f 	bne.w	1000e9a4 <i2c_simple_isr+0x120>
                MXC_I2C_DisableInt(I2C_INTERFACE, MXC_F_I2C_INTEN0_TX_THD, 0);
1000eaa6:	4808      	ldr	r0, [pc, #32]	@ (1000eac8 <i2c_simple_isr+0x244>)
1000eaa8:	2200      	movs	r2, #0
1000eaaa:	2120      	movs	r1, #32
1000eaac:	f002 ff56 	bl	1001195c <MXC_I2C_DisableInt>
1000eab0:	e778      	b.n	1000e9a4 <i2c_simple_isr+0x120>
            MXC_I2C_ClearFlags(I2C_INTERFACE, MXC_F_I2C_INTFL0_TX_LOCKOUT, 0);
1000eab2:	2200      	movs	r2, #0
1000eab4:	f44f 4100 	mov.w	r1, #32768	@ 0x8000
1000eab8:	f002 ff4c 	bl	10011954 <MXC_I2C_ClearFlags>
1000eabc:	e76e      	b.n	1000e99c <i2c_simple_isr+0x118>
            MXC_I2C_ClearRXFIFO(I2C_INTERFACE);
1000eabe:	4802      	ldr	r0, [pc, #8]	@ (1000eac8 <i2c_simple_isr+0x244>)
1000eac0:	f002 ff44 	bl	1001194c <MXC_I2C_ClearRXFIFO>
1000eac4:	e71c      	b.n	1000e900 <i2c_simple_isr+0x7c>
1000eac6:	bf00      	nop
1000eac8:	4001e000 	.word	0x4001e000
1000eacc:	20000c25 	.word	0x20000c25
1000ead0:	20000c24 	.word	0x20000c24
1000ead4:	20000010 	.word	0x20000010
1000ead8:	20000c20 	.word	0x20000c20
1000eadc:	20000028 	.word	0x20000028
1000eae0:	20000c1c 	.word	0x20000c1c

1000eae4 <i2c_simple_peripheral_init>:
int i2c_simple_peripheral_init(uint8_t addr) {
1000eae4:	b510      	push	{r4, lr}
1000eae6:	4602      	mov	r2, r0
    error = MXC_I2C_Init(I2C_INTERFACE, false, addr);
1000eae8:	2100      	movs	r1, #0
1000eaea:	481b      	ldr	r0, [pc, #108]	@ (1000eb58 <i2c_simple_peripheral_init+0x74>)
1000eaec:	f002 fed8 	bl	100118a0 <MXC_I2C_Init>
    if (error != E_NO_ERROR) {
1000eaf0:	4604      	mov	r4, r0
1000eaf2:	bb60      	cbnz	r0, 1000eb4e <i2c_simple_peripheral_init+0x6a>
    MXC_I2C_SetFrequency(I2C_INTERFACE, I2C_FREQ);
1000eaf4:	4919      	ldr	r1, [pc, #100]	@ (1000eb5c <i2c_simple_peripheral_init+0x78>)
1000eaf6:	4818      	ldr	r0, [pc, #96]	@ (1000eb58 <i2c_simple_peripheral_init+0x74>)
1000eaf8:	f002 ff1c 	bl	10011934 <MXC_I2C_SetFrequency>
    MXC_I2C_ClearRXFIFO(I2C_INTERFACE);
1000eafc:	4816      	ldr	r0, [pc, #88]	@ (1000eb58 <i2c_simple_peripheral_init+0x74>)
1000eafe:	f002 ff25 	bl	1001194c <MXC_I2C_ClearRXFIFO>
    MXC_I2C_EnableInt(I2C_INTERFACE, MXC_F_I2C_INTFL0_RD_ADDR_MATCH, 0);
1000eb02:	4622      	mov	r2, r4
1000eb04:	4814      	ldr	r0, [pc, #80]	@ (1000eb58 <i2c_simple_peripheral_init+0x74>)
1000eb06:	f44f 0180 	mov.w	r1, #4194304	@ 0x400000
1000eb0a:	f002 ff25 	bl	10011958 <MXC_I2C_EnableInt>
    MXC_I2C_EnableInt(I2C_INTERFACE, MXC_F_I2C_INTFL0_WR_ADDR_MATCH, 0);
1000eb0e:	4622      	mov	r2, r4
1000eb10:	4811      	ldr	r0, [pc, #68]	@ (1000eb58 <i2c_simple_peripheral_init+0x74>)
1000eb12:	f44f 0100 	mov.w	r1, #8388608	@ 0x800000
1000eb16:	f002 ff1f 	bl	10011958 <MXC_I2C_EnableInt>
    MXC_I2C_EnableInt(I2C_INTERFACE, MXC_F_I2C_INTFL0_STOP, 0);
1000eb1a:	4622      	mov	r2, r4
1000eb1c:	480e      	ldr	r0, [pc, #56]	@ (1000eb58 <i2c_simple_peripheral_init+0x74>)
1000eb1e:	2140      	movs	r1, #64	@ 0x40
1000eb20:	f002 ff1a 	bl	10011958 <MXC_I2C_EnableInt>
    MXC_NVIC_SetVector(MXC_I2C_GET_IRQ(MXC_I2C_GET_IDX(I2C_INTERFACE)), i2c_simple_isr);
1000eb24:	490e      	ldr	r1, [pc, #56]	@ (1000eb60 <i2c_simple_peripheral_init+0x7c>)
1000eb26:	2024      	movs	r0, #36	@ 0x24
1000eb28:	f002 fbc4 	bl	100112b4 <MXC_NVIC_SetVector>
__STATIC_INLINE void __NVIC_EnableIRQ(IRQn_Type IRQn)
{
  if ((int32_t)(IRQn) >= 0)
  {
    __COMPILER_BARRIER();
    NVIC->ISER[(((uint32_t)IRQn) >> 5UL)] = (uint32_t)(1UL << (((uint32_t)IRQn) & 0x1FUL));
1000eb2c:	4b0d      	ldr	r3, [pc, #52]	@ (1000eb64 <i2c_simple_peripheral_init+0x80>)
1000eb2e:	2210      	movs	r2, #16
1000eb30:	605a      	str	r2, [r3, #4]
    MXC_I2C_ClearFlags(I2C_INTERFACE, 0xFFFFFFFF, 0xFFFFFFFF);
1000eb32:	f04f 32ff 	mov.w	r2, #4294967295	@ 0xffffffff
1000eb36:	4611      	mov	r1, r2
1000eb38:	4807      	ldr	r0, [pc, #28]	@ (1000eb58 <i2c_simple_peripheral_init+0x74>)
1000eb3a:	f002 ff0b 	bl	10011954 <MXC_I2C_ClearFlags>
    I2C_REGS[RECEIVE_DONE][0] = false;
1000eb3e:	4b0a      	ldr	r3, [pc, #40]	@ (1000eb68 <i2c_simple_peripheral_init+0x84>)
1000eb40:	6859      	ldr	r1, [r3, #4]
1000eb42:	700c      	strb	r4, [r1, #0]
    I2C_REGS[TRANSMIT_DONE][0] = true;
1000eb44:	691b      	ldr	r3, [r3, #16]
1000eb46:	2201      	movs	r2, #1
1000eb48:	701a      	strb	r2, [r3, #0]
}
1000eb4a:	4620      	mov	r0, r4
1000eb4c:	bd10      	pop	{r4, pc}
        printf("Failed to initialize I2C.\n");
1000eb4e:	4807      	ldr	r0, [pc, #28]	@ (1000eb6c <i2c_simple_peripheral_init+0x88>)
1000eb50:	f006 f862 	bl	10014c18 <puts>
}
1000eb54:	4620      	mov	r0, r4
1000eb56:	bd10      	pop	{r4, pc}
1000eb58:	4001e000 	.word	0x4001e000
1000eb5c:	000186a0 	.word	0x000186a0
1000eb60:	1000e885 	.word	0x1000e885
1000eb64:	e000e100 	.word	0xe000e100
1000eb68:	20000028 	.word	0x20000028
1000eb6c:	1001b604 	.word	0x1001b604

1000eb70 <XOR_secure>:
        Dest: result array
    
    Outputs: None
    */

    for (int i = 0; i < size; i++) {
1000eb70:	2a00      	cmp	r2, #0
1000eb72:	dd10      	ble.n	1000eb96 <XOR_secure+0x26>
void XOR_secure(unsigned char* arr1, unsigned char* arr2, int size, unsigned char* dest){
1000eb74:	b500      	push	{lr}
1000eb76:	3801      	subs	r0, #1
1000eb78:	3901      	subs	r1, #1
1000eb7a:	3b01      	subs	r3, #1
1000eb7c:	4402      	add	r2, r0
        dest[i] = arr1[i] ^ arr2[i];
1000eb7e:	f810 cf01 	ldrb.w	ip, [r0, #1]!
1000eb82:	f811 ef01 	ldrb.w	lr, [r1, #1]!
    for (int i = 0; i < size; i++) {
1000eb86:	4290      	cmp	r0, r2
        dest[i] = arr1[i] ^ arr2[i];
1000eb88:	ea8c 0c0e 	eor.w	ip, ip, lr
1000eb8c:	f803 cf01 	strb.w	ip, [r3, #1]!
    for (int i = 0; i < size; i++) {
1000eb90:	d1f5      	bne.n	1000eb7e <XOR_secure+0xe>
    }
    return;
1000eb92:	f85d fb04 	ldr.w	pc, [sp], #4
1000eb96:	4770      	bx	lr

1000eb98 <AesEncrypt_C>:
 * @param [out] outBlock  Encrypted block.
 * @param [in]  r         Rounds divided by 2.
 */
static void AesEncrypt_C(Aes* aes, const byte* inBlock, byte* outBlock,
        word32 r)
{
1000eb98:	e92d 4ff0 	stmdb	sp!, {r4, r5, r6, r7, r8, r9, sl, fp, lr}
1000eb9c:	b087      	sub	sp, #28
1000eb9e:	680d      	ldr	r5, [r1, #0]
1000eba0:	684f      	ldr	r7, [r1, #4]
1000eba2:	688e      	ldr	r6, [r1, #8]
1000eba4:	68cc      	ldr	r4, [r1, #12]
1000eba6:	e9cd 3200 	strd	r3, r2, [sp]
    s2 = ByteReverseWord32(s2);
    s3 = ByteReverseWord32(s3);
#endif

    /* AddRoundKey */
    s0 ^= rk[0];
1000ebaa:	6803      	ldr	r3, [r0, #0]
1000ebac:	ba2d      	rev	r5, r5
1000ebae:	405d      	eors	r5, r3
    s1 ^= rk[1];
1000ebb0:	6843      	ldr	r3, [r0, #4]
1000ebb2:	ba3f      	rev	r7, r7
1000ebb4:	405f      	eors	r7, r3
    s2 ^= rk[2];
1000ebb6:	6883      	ldr	r3, [r0, #8]
1000ebb8:	ba36      	rev	r6, r6
1000ebba:	405e      	eors	r6, r3
    s3 ^= rk[3];
1000ebbc:	68c3      	ldr	r3, [r0, #12]
    s0 ^= rk[(o)+0]; s1 ^= rk[(o)+1]; s2 ^= rk[(o)+2]; s3 ^= rk[(o)+3];
#endif

#ifndef WOLFSSL_AES_NO_UNROLL
/* Unroll the loop. */
                       ENC_ROUND_T_S( 0);
1000ebbe:	b2f9      	uxtb	r1, r7
1000ebc0:	b2f2      	uxtb	r2, r6
1000ebc2:	ba24      	rev	r4, r4
    s3 ^= rk[3];
1000ebc4:	405c      	eors	r4, r3
                       ENC_ROUND_T_S( 0);
1000ebc6:	f501 7140 	add.w	r1, r1, #768	@ 0x300
1000ebca:	4bea      	ldr	r3, [pc, #936]	@ (1000ef74 <AesEncrypt_C+0x3dc>)
1000ebcc:	f502 7240 	add.w	r2, r2, #768	@ 0x300
1000ebd0:	fa5f fe84 	uxtb.w	lr, r4
1000ebd4:	f853 8021 	ldr.w	r8, [r3, r1, lsl #2]
1000ebd8:	f853 1022 	ldr.w	r1, [r3, r2, lsl #2]
1000ebdc:	f50e 7e40 	add.w	lr, lr, #768	@ 0x300
1000ebe0:	0e2a      	lsrs	r2, r5, #24
1000ebe2:	f853 e02e 	ldr.w	lr, [r3, lr, lsl #2]
1000ebe6:	f853 2022 	ldr.w	r2, [r3, r2, lsl #2]
1000ebea:	fa5f fc85 	uxtb.w	ip, r5
1000ebee:	ea82 020e 	eor.w	r2, r2, lr
1000ebf2:	f50c 7c40 	add.w	ip, ip, #768	@ 0x300
1000ebf6:	ea4f 6e17 	mov.w	lr, r7, lsr #24
1000ebfa:	f853 c02c 	ldr.w	ip, [r3, ip, lsl #2]
1000ebfe:	f853 e02e 	ldr.w	lr, [r3, lr, lsl #2]
1000ec02:	ea8e 0e0c 	eor.w	lr, lr, ip
1000ec06:	ea4f 6c16 	mov.w	ip, r6, lsr #24
1000ec0a:	f853 c02c 	ldr.w	ip, [r3, ip, lsl #2]
1000ec0e:	ea8c 0c08 	eor.w	ip, ip, r8
1000ec12:	ea4f 6814 	mov.w	r8, r4, lsr #24
1000ec16:	f853 8028 	ldr.w	r8, [r3, r8, lsl #2]
1000ec1a:	ea88 0101 	eor.w	r1, r8, r1
1000ec1e:	f3c7 4807 	ubfx	r8, r7, #16, #8
1000ec22:	f3c7 2707 	ubfx	r7, r7, #8, #8
1000ec26:	f507 7700 	add.w	r7, r7, #512	@ 0x200
1000ec2a:	9102      	str	r1, [sp, #8]
1000ec2c:	f853 b027 	ldr.w	fp, [r3, r7, lsl #2]
1000ec30:	6901      	ldr	r1, [r0, #16]
1000ec32:	f3c6 4707 	ubfx	r7, r6, #16, #8
1000ec36:	f3c6 2607 	ubfx	r6, r6, #8, #8
1000ec3a:	f506 7600 	add.w	r6, r6, #512	@ 0x200
1000ec3e:	f508 7880 	add.w	r8, r8, #256	@ 0x100
1000ec42:	f853 9026 	ldr.w	r9, [r3, r6, lsl #2]
1000ec46:	f853 a028 	ldr.w	sl, [r3, r8, lsl #2]
1000ec4a:	f3c4 4607 	ubfx	r6, r4, #16, #8
1000ec4e:	f3c4 2407 	ubfx	r4, r4, #8, #8
1000ec52:	f507 7780 	add.w	r7, r7, #256	@ 0x100
1000ec56:	f504 7400 	add.w	r4, r4, #512	@ 0x200
1000ec5a:	404a      	eors	r2, r1
1000ec5c:	6941      	ldr	r1, [r0, #20]
1000ec5e:	f853 8027 	ldr.w	r8, [r3, r7, lsl #2]
1000ec62:	f853 7024 	ldr.w	r7, [r3, r4, lsl #2]
1000ec66:	f506 7680 	add.w	r6, r6, #256	@ 0x100
1000ec6a:	f3c5 4407 	ubfx	r4, r5, #16, #8
1000ec6e:	f3c5 2507 	ubfx	r5, r5, #8, #8
1000ec72:	ea8e 0e01 	eor.w	lr, lr, r1
1000ec76:	f505 7500 	add.w	r5, r5, #512	@ 0x200
1000ec7a:	6981      	ldr	r1, [r0, #24]
1000ec7c:	f853 6026 	ldr.w	r6, [r3, r6, lsl #2]
1000ec80:	f853 5025 	ldr.w	r5, [r3, r5, lsl #2]
1000ec84:	ea8c 0c01 	eor.w	ip, ip, r1
1000ec88:	f504 7480 	add.w	r4, r4, #256	@ 0x100
1000ec8c:	ea8c 0c06 	eor.w	ip, ip, r6
1000ec90:	ea8c 0c05 	eor.w	ip, ip, r5
1000ec94:	f853 4024 	ldr.w	r4, [r3, r4, lsl #2]
1000ec98:	69c5      	ldr	r5, [r0, #28]
1000ec9a:	9902      	ldr	r1, [sp, #8]
1000ec9c:	4069      	eors	r1, r5
1000ec9e:	4061      	eors	r1, r4
1000eca0:	ea81 010b 	eor.w	r1, r1, fp
    ENC_ROUND_S_T( 8); ENC_ROUND_T_S( 8);
1000eca4:	b2cc      	uxtb	r4, r1
                       ENC_ROUND_T_S( 0);
1000eca6:	ea8e 0e08 	eor.w	lr, lr, r8
    ENC_ROUND_S_T( 8); ENC_ROUND_T_S( 8);
1000ecaa:	f504 7440 	add.w	r4, r4, #768	@ 0x300
                       ENC_ROUND_T_S( 0);
1000ecae:	ea8e 0e07 	eor.w	lr, lr, r7
    ENC_ROUND_S_T( 8); ENC_ROUND_T_S( 8);
1000ecb2:	f853 5024 	ldr.w	r5, [r3, r4, lsl #2]
1000ecb6:	f3ce 4407 	ubfx	r4, lr, #16, #8
1000ecba:	f504 7480 	add.w	r4, r4, #256	@ 0x100
                       ENC_ROUND_T_S( 0);
1000ecbe:	ea82 020a 	eor.w	r2, r2, sl
    ENC_ROUND_S_T( 8); ENC_ROUND_T_S( 8);
1000ecc2:	f853 7024 	ldr.w	r7, [r3, r4, lsl #2]
1000ecc6:	fa5f f48e 	uxtb.w	r4, lr
1000ecca:	f504 7440 	add.w	r4, r4, #768	@ 0x300
                       ENC_ROUND_T_S( 0);
1000ecce:	ea82 0209 	eor.w	r2, r2, r9
    ENC_ROUND_S_T( 8); ENC_ROUND_T_S( 8);
1000ecd2:	9403      	str	r4, [sp, #12]
1000ecd4:	fa5f f48c 	uxtb.w	r4, ip
1000ecd8:	f504 7940 	add.w	r9, r4, #768	@ 0x300
1000ecdc:	0e14      	lsrs	r4, r2, #24
1000ecde:	b2d6      	uxtb	r6, r2
1000ece0:	f3c2 4b07 	ubfx	fp, r2, #16, #8
1000ece4:	f3c2 2207 	ubfx	r2, r2, #8, #8
1000ece8:	f853 4024 	ldr.w	r4, [r3, r4, lsl #2]
1000ecec:	f8cd 9014 	str.w	r9, [sp, #20]
1000ecf0:	f502 7200 	add.w	r2, r2, #512	@ 0x200
1000ecf4:	9204      	str	r2, [sp, #16]
1000ecf6:	f3cc 2807 	ubfx	r8, ip, #8, #8
1000ecfa:	6a02      	ldr	r2, [r0, #32]
1000ecfc:	f508 7800 	add.w	r8, r8, #512	@ 0x200
1000ed00:	406c      	eors	r4, r5
1000ed02:	4054      	eors	r4, r2
1000ed04:	ea4f 691e 	mov.w	r9, lr, lsr #24
1000ed08:	407c      	eors	r4, r7
1000ed0a:	f506 7640 	add.w	r6, r6, #768	@ 0x300
1000ed0e:	f853 7028 	ldr.w	r7, [r3, r8, lsl #2]
1000ed12:	f853 6026 	ldr.w	r6, [r3, r6, lsl #2]
1000ed16:	4067      	eors	r7, r4
1000ed18:	f853 4029 	ldr.w	r4, [r3, r9, lsl #2]
1000ed1c:	f3ce 2e07 	ubfx	lr, lr, #8, #8
1000ed20:	ea84 0206 	eor.w	r2, r4, r6
1000ed24:	f50e 7a00 	add.w	sl, lr, #512	@ 0x200
1000ed28:	9c03      	ldr	r4, [sp, #12]
1000ed2a:	f853 a02a 	ldr.w	sl, [r3, sl, lsl #2]
1000ed2e:	ea4f 6e1c 	mov.w	lr, ip, lsr #24
1000ed32:	f3cc 4c07 	ubfx	ip, ip, #16, #8
1000ed36:	f853 602e 	ldr.w	r6, [r3, lr, lsl #2]
1000ed3a:	f853 e024 	ldr.w	lr, [r3, r4, lsl #2]
1000ed3e:	9c05      	ldr	r4, [sp, #20]
1000ed40:	f50c 7580 	add.w	r5, ip, #256	@ 0x100
1000ed44:	ea4f 6c11 	mov.w	ip, r1, lsr #24
1000ed48:	9502      	str	r5, [sp, #8]
1000ed4a:	f853 c02c 	ldr.w	ip, [r3, ip, lsl #2]
1000ed4e:	ea86 060e 	eor.w	r6, r6, lr
1000ed52:	f853 e024 	ldr.w	lr, [r3, r4, lsl #2]
1000ed56:	9c02      	ldr	r4, [sp, #8]
1000ed58:	f3c1 4507 	ubfx	r5, r1, #16, #8
1000ed5c:	f3c1 2107 	ubfx	r1, r1, #8, #8
1000ed60:	f501 7100 	add.w	r1, r1, #512	@ 0x200
1000ed64:	ea8c 0c0e 	eor.w	ip, ip, lr
1000ed68:	f853 e024 	ldr.w	lr, [r3, r4, lsl #2]
1000ed6c:	6a44      	ldr	r4, [r0, #36]	@ 0x24
1000ed6e:	f853 9021 	ldr.w	r9, [r3, r1, lsl #2]
1000ed72:	9904      	ldr	r1, [sp, #16]
1000ed74:	f505 7580 	add.w	r5, r5, #256	@ 0x100
1000ed78:	4054      	eors	r4, r2
1000ed7a:	6a82      	ldr	r2, [r0, #40]	@ 0x28
1000ed7c:	f853 8025 	ldr.w	r8, [r3, r5, lsl #2]
1000ed80:	f853 1021 	ldr.w	r1, [r3, r1, lsl #2]
1000ed84:	4056      	eors	r6, r2
1000ed86:	f50b 7b80 	add.w	fp, fp, #256	@ 0x100
1000ed8a:	ea86 0608 	eor.w	r6, r6, r8
1000ed8e:	404e      	eors	r6, r1
1000ed90:	6ac1      	ldr	r1, [r0, #44]	@ 0x2c
1000ed92:	f853 502b 	ldr.w	r5, [r3, fp, lsl #2]
1000ed96:	ea8c 0c01 	eor.w	ip, ip, r1
1000ed9a:	ea8c 0c05 	eor.w	ip, ip, r5
1000ed9e:	ea8c 0c0a 	eor.w	ip, ip, sl
1000eda2:	fa5f f28c 	uxtb.w	r2, ip
1000eda6:	ea84 040e 	eor.w	r4, r4, lr
1000edaa:	f502 7240 	add.w	r2, r2, #768	@ 0x300
1000edae:	ea84 0409 	eor.w	r4, r4, r9
1000edb2:	f853 1022 	ldr.w	r1, [r3, r2, lsl #2]
1000edb6:	f3c4 4207 	ubfx	r2, r4, #16, #8
1000edba:	f502 7280 	add.w	r2, r2, #256	@ 0x100
1000edbe:	fa5f fe86 	uxtb.w	lr, r6
1000edc2:	f853 a022 	ldr.w	sl, [r3, r2, lsl #2]
1000edc6:	f3c6 2207 	ubfx	r2, r6, #8, #8
1000edca:	f502 7200 	add.w	r2, r2, #512	@ 0x200
1000edce:	f50e 7e40 	add.w	lr, lr, #768	@ 0x300
1000edd2:	f853 2022 	ldr.w	r2, [r3, r2, lsl #2]
1000edd6:	9202      	str	r2, [sp, #8]
1000edd8:	b2fa      	uxtb	r2, r7
1000edda:	f502 7240 	add.w	r2, r2, #768	@ 0x300
1000edde:	f853 5022 	ldr.w	r5, [r3, r2, lsl #2]
1000ede2:	f3c6 4207 	ubfx	r2, r6, #16, #8
1000ede6:	f502 7280 	add.w	r2, r2, #256	@ 0x100
1000edea:	0e36      	lsrs	r6, r6, #24
1000edec:	f853 2022 	ldr.w	r2, [r3, r2, lsl #2]
1000edf0:	9203      	str	r2, [sp, #12]
1000edf2:	f3cc 2207 	ubfx	r2, ip, #8, #8
1000edf6:	f502 7200 	add.w	r2, r2, #512	@ 0x200
1000edfa:	f853 6026 	ldr.w	r6, [r3, r6, lsl #2]
1000edfe:	f853 2022 	ldr.w	r2, [r3, r2, lsl #2]
1000ee02:	9204      	str	r2, [sp, #16]
1000ee04:	b2e2      	uxtb	r2, r4
1000ee06:	f502 7240 	add.w	r2, r2, #768	@ 0x300
1000ee0a:	f853 b022 	ldr.w	fp, [r3, r2, lsl #2]
1000ee0e:	f3cc 4207 	ubfx	r2, ip, #16, #8
1000ee12:	f502 7280 	add.w	r2, r2, #256	@ 0x100
1000ee16:	ea4f 6c1c 	mov.w	ip, ip, lsr #24
1000ee1a:	f853 9022 	ldr.w	r9, [r3, r2, lsl #2]
1000ee1e:	f853 202c 	ldr.w	r2, [r3, ip, lsl #2]
1000ee22:	f3c7 2c07 	ubfx	ip, r7, #8, #8
1000ee26:	f50c 7c00 	add.w	ip, ip, #512	@ 0x200
1000ee2a:	ea86 060b 	eor.w	r6, r6, fp
1000ee2e:	f853 802c 	ldr.w	r8, [r3, ip, lsl #2]
1000ee32:	ea4f 6c17 	mov.w	ip, r7, lsr #24
1000ee36:	f3c7 4707 	ubfx	r7, r7, #16, #8
1000ee3a:	f853 b02c 	ldr.w	fp, [r3, ip, lsl #2]
1000ee3e:	ea8b 0b01 	eor.w	fp, fp, r1
1000ee42:	f507 7180 	add.w	r1, r7, #256	@ 0x100
1000ee46:	0e27      	lsrs	r7, r4, #24
1000ee48:	f3c4 2407 	ubfx	r4, r4, #8, #8
1000ee4c:	f853 7027 	ldr.w	r7, [r3, r7, lsl #2]
1000ee50:	ea87 0c05 	eor.w	ip, r7, r5
1000ee54:	6b05      	ldr	r5, [r0, #48]	@ 0x30
1000ee56:	ea8b 0b05 	eor.w	fp, fp, r5
1000ee5a:	9d02      	ldr	r5, [sp, #8]
1000ee5c:	ea8b 070a 	eor.w	r7, fp, sl
1000ee60:	406f      	eors	r7, r5
1000ee62:	6b45      	ldr	r5, [r0, #52]	@ 0x34
1000ee64:	ea8c 0c05 	eor.w	ip, ip, r5
1000ee68:	9d03      	ldr	r5, [sp, #12]
1000ee6a:	ea8c 0c05 	eor.w	ip, ip, r5
1000ee6e:	9d04      	ldr	r5, [sp, #16]
1000ee70:	ea8c 0c05 	eor.w	ip, ip, r5
1000ee74:	6b85      	ldr	r5, [r0, #56]	@ 0x38
1000ee76:	406e      	eors	r6, r5
1000ee78:	f853 502e 	ldr.w	r5, [r3, lr, lsl #2]
1000ee7c:	f504 7400 	add.w	r4, r4, #512	@ 0x200
1000ee80:	ea82 0e05 	eor.w	lr, r2, r5
1000ee84:	f853 5021 	ldr.w	r5, [r3, r1, lsl #2]
1000ee88:	6bc1      	ldr	r1, [r0, #60]	@ 0x3c
1000ee8a:	f853 2024 	ldr.w	r2, [r3, r4, lsl #2]
1000ee8e:	ea8e 0e01 	eor.w	lr, lr, r1
1000ee92:	ea8e 0e05 	eor.w	lr, lr, r5
1000ee96:	ea8e 0e02 	eor.w	lr, lr, r2
    ENC_ROUND_S_T(16); ENC_ROUND_T_S(16);
1000ee9a:	fa5f f28e 	uxtb.w	r2, lr
1000ee9e:	f502 7240 	add.w	r2, r2, #768	@ 0x300
    ENC_ROUND_S_T( 8); ENC_ROUND_T_S( 8);
1000eea2:	ea86 0609 	eor.w	r6, r6, r9
    ENC_ROUND_S_T(16); ENC_ROUND_T_S(16);
1000eea6:	f853 1022 	ldr.w	r1, [r3, r2, lsl #2]
1000eeaa:	b2fa      	uxtb	r2, r7
1000eeac:	f502 7240 	add.w	r2, r2, #768	@ 0x300
    ENC_ROUND_S_T( 8); ENC_ROUND_T_S( 8);
1000eeb0:	ea86 0608 	eor.w	r6, r6, r8
    ENC_ROUND_S_T(16); ENC_ROUND_T_S(16);
1000eeb4:	f853 8022 	ldr.w	r8, [r3, r2, lsl #2]
1000eeb8:	fa5f f28c 	uxtb.w	r2, ip
1000eebc:	f502 7240 	add.w	r2, r2, #768	@ 0x300
1000eec0:	f853 5022 	ldr.w	r5, [r3, r2, lsl #2]
1000eec4:	b2f2      	uxtb	r2, r6
1000eec6:	f502 7240 	add.w	r2, r2, #768	@ 0x300
1000eeca:	f853 4022 	ldr.w	r4, [r3, r2, lsl #2]
1000eece:	0e3a      	lsrs	r2, r7, #24
1000eed0:	f853 2022 	ldr.w	r2, [r3, r2, lsl #2]
1000eed4:	4051      	eors	r1, r2
1000eed6:	ea4f 621c 	mov.w	r2, ip, lsr #24
1000eeda:	f853 2022 	ldr.w	r2, [r3, r2, lsl #2]
1000eede:	ea82 0208 	eor.w	r2, r2, r8
1000eee2:	ea4f 6816 	mov.w	r8, r6, lsr #24
1000eee6:	f853 8028 	ldr.w	r8, [r3, r8, lsl #2]
1000eeea:	ea88 0505 	eor.w	r5, r8, r5
1000eeee:	ea4f 681e 	mov.w	r8, lr, lsr #24
1000eef2:	f853 8028 	ldr.w	r8, [r3, r8, lsl #2]
1000eef6:	ea88 0404 	eor.w	r4, r8, r4
1000eefa:	f3cc 4807 	ubfx	r8, ip, #16, #8
1000eefe:	f3cc 2c07 	ubfx	ip, ip, #8, #8
1000ef02:	f508 7880 	add.w	r8, r8, #256	@ 0x100
1000ef06:	f50c 7c00 	add.w	ip, ip, #512	@ 0x200
1000ef0a:	f853 b028 	ldr.w	fp, [r3, r8, lsl #2]
1000ef0e:	9402      	str	r4, [sp, #8]
1000ef10:	f853 402c 	ldr.w	r4, [r3, ip, lsl #2]
1000ef14:	9403      	str	r4, [sp, #12]
1000ef16:	f3c6 4c07 	ubfx	ip, r6, #16, #8
1000ef1a:	f50c 7c80 	add.w	ip, ip, #256	@ 0x100
1000ef1e:	f3c6 2607 	ubfx	r6, r6, #8, #8
1000ef22:	f506 7600 	add.w	r6, r6, #512	@ 0x200
1000ef26:	f853 902c 	ldr.w	r9, [r3, ip, lsl #2]
1000ef2a:	6c04      	ldr	r4, [r0, #64]	@ 0x40
1000ef2c:	f853 a026 	ldr.w	sl, [r3, r6, lsl #2]
1000ef30:	f3ce 4c07 	ubfx	ip, lr, #16, #8
1000ef34:	f3ce 2e07 	ubfx	lr, lr, #8, #8
1000ef38:	f50e 7600 	add.w	r6, lr, #512	@ 0x200
1000ef3c:	4061      	eors	r1, r4
1000ef3e:	6c44      	ldr	r4, [r0, #68]	@ 0x44
1000ef40:	f853 8026 	ldr.w	r8, [r3, r6, lsl #2]
1000ef44:	f50c 7c80 	add.w	ip, ip, #256	@ 0x100
1000ef48:	f3c7 4607 	ubfx	r6, r7, #16, #8
1000ef4c:	f3c7 2707 	ubfx	r7, r7, #8, #8
1000ef50:	4062      	eors	r2, r4
1000ef52:	f507 7700 	add.w	r7, r7, #512	@ 0x200
1000ef56:	6c84      	ldr	r4, [r0, #72]	@ 0x48
1000ef58:	f853 e02c 	ldr.w	lr, [r3, ip, lsl #2]
1000ef5c:	f853 7027 	ldr.w	r7, [r3, r7, lsl #2]
1000ef60:	4065      	eors	r5, r4
1000ef62:	ea85 050e 	eor.w	r5, r5, lr
1000ef66:	f506 7680 	add.w	r6, r6, #256	@ 0x100
1000ef6a:	407d      	eors	r5, r7
1000ef6c:	9c02      	ldr	r4, [sp, #8]
1000ef6e:	6cc7      	ldr	r7, [r0, #76]	@ 0x4c
1000ef70:	e002      	b.n	1000ef78 <AesEncrypt_C+0x3e0>
1000ef72:	bf00      	nop
1000ef74:	1001c720 	.word	0x1001c720
1000ef78:	f853 6026 	ldr.w	r6, [r3, r6, lsl #2]
1000ef7c:	407c      	eors	r4, r7
1000ef7e:	9f03      	ldr	r7, [sp, #12]
1000ef80:	4074      	eors	r4, r6
1000ef82:	407c      	eors	r4, r7
1000ef84:	b2e6      	uxtb	r6, r4
1000ef86:	ea82 0209 	eor.w	r2, r2, r9
1000ef8a:	f506 7640 	add.w	r6, r6, #768	@ 0x300
1000ef8e:	ea82 0208 	eor.w	r2, r2, r8
1000ef92:	f853 7026 	ldr.w	r7, [r3, r6, lsl #2]
1000ef96:	f3c2 4607 	ubfx	r6, r2, #16, #8
1000ef9a:	f506 7680 	add.w	r6, r6, #256	@ 0x100
1000ef9e:	f3c5 4c07 	ubfx	ip, r5, #16, #8
1000efa2:	f853 6026 	ldr.w	r6, [r3, r6, lsl #2]
1000efa6:	9602      	str	r6, [sp, #8]
1000efa8:	ea81 010b 	eor.w	r1, r1, fp
1000efac:	f50c 7b80 	add.w	fp, ip, #256	@ 0x100
1000efb0:	fa5f fc82 	uxtb.w	ip, r2
1000efb4:	ea81 010a 	eor.w	r1, r1, sl
1000efb8:	f3c5 2607 	ubfx	r6, r5, #8, #8
1000efbc:	f50c 7940 	add.w	r9, ip, #768	@ 0x300
1000efc0:	fa5f fc85 	uxtb.w	ip, r5
1000efc4:	0e2d      	lsrs	r5, r5, #24
1000efc6:	9504      	str	r5, [sp, #16]
1000efc8:	f506 7600 	add.w	r6, r6, #512	@ 0x200
1000efcc:	0e0d      	lsrs	r5, r1, #24
1000efce:	f853 6026 	ldr.w	r6, [r3, r6, lsl #2]
1000efd2:	f853 5025 	ldr.w	r5, [r3, r5, lsl #2]
1000efd6:	9603      	str	r6, [sp, #12]
1000efd8:	b2ce      	uxtb	r6, r1
1000efda:	406f      	eors	r7, r5
1000efdc:	f506 7640 	add.w	r6, r6, #768	@ 0x300
1000efe0:	0e15      	lsrs	r5, r2, #24
1000efe2:	f853 6026 	ldr.w	r6, [r3, r6, lsl #2]
1000efe6:	f853 5025 	ldr.w	r5, [r3, r5, lsl #2]
1000efea:	f853 9029 	ldr.w	r9, [r3, r9, lsl #2]
1000efee:	4075      	eors	r5, r6
1000eff0:	6d06      	ldr	r6, [r0, #80]	@ 0x50
1000eff2:	4077      	eors	r7, r6
1000eff4:	9e02      	ldr	r6, [sp, #8]
1000eff6:	4077      	eors	r7, r6
1000eff8:	9e03      	ldr	r6, [sp, #12]
1000effa:	4077      	eors	r7, r6
1000effc:	6d46      	ldr	r6, [r0, #84]	@ 0x54
1000effe:	4075      	eors	r5, r6
1000f000:	f853 602b 	ldr.w	r6, [r3, fp, lsl #2]
1000f004:	4075      	eors	r5, r6
1000f006:	9e04      	ldr	r6, [sp, #16]
1000f008:	ea4f 6814 	mov.w	r8, r4, lsr #24
1000f00c:	f3c4 4e07 	ubfx	lr, r4, #16, #8
1000f010:	f3c4 2407 	ubfx	r4, r4, #8, #8
1000f014:	f853 6026 	ldr.w	r6, [r3, r6, lsl #2]
1000f018:	f50c 7a40 	add.w	sl, ip, #768	@ 0x300
1000f01c:	f504 7400 	add.w	r4, r4, #512	@ 0x200
1000f020:	f3c1 4c07 	ubfx	ip, r1, #16, #8
1000f024:	f3c2 2207 	ubfx	r2, r2, #8, #8
1000f028:	f3c1 2107 	ubfx	r1, r1, #8, #8
1000f02c:	ea86 0909 	eor.w	r9, r6, r9
1000f030:	f502 7200 	add.w	r2, r2, #512	@ 0x200
1000f034:	f853 6028 	ldr.w	r6, [r3, r8, lsl #2]
1000f038:	f853 802a 	ldr.w	r8, [r3, sl, lsl #2]
1000f03c:	f853 4024 	ldr.w	r4, [r3, r4, lsl #2]
1000f040:	f50e 7e80 	add.w	lr, lr, #256	@ 0x100
1000f044:	f501 7100 	add.w	r1, r1, #512	@ 0x200
1000f048:	f853 a02e 	ldr.w	sl, [r3, lr, lsl #2]
1000f04c:	f50c 7c80 	add.w	ip, ip, #256	@ 0x100
1000f050:	ea85 0e04 	eor.w	lr, r5, r4
1000f054:	f853 4021 	ldr.w	r4, [r3, r1, lsl #2]
1000f058:	f853 1022 	ldr.w	r1, [r3, r2, lsl #2]
1000f05c:	6d82      	ldr	r2, [r0, #88]	@ 0x58
1000f05e:	ea86 0608 	eor.w	r6, r6, r8
1000f062:	f853 802c 	ldr.w	r8, [r3, ip, lsl #2]
1000f066:	ea89 0c02 	eor.w	ip, r9, r2
1000f06a:	6dc2      	ldr	r2, [r0, #92]	@ 0x5c
1000f06c:	4056      	eors	r6, r2
1000f06e:	ea86 0608 	eor.w	r6, r6, r8
1000f072:	404e      	eors	r6, r1
    ENC_ROUND_S_T(24); ENC_ROUND_T_S(24);
1000f074:	b2f2      	uxtb	r2, r6
1000f076:	f502 7240 	add.w	r2, r2, #768	@ 0x300
    ENC_ROUND_S_T(16); ENC_ROUND_T_S(16);
1000f07a:	ea8c 0c0a 	eor.w	ip, ip, sl
    ENC_ROUND_S_T(24); ENC_ROUND_T_S(24);
1000f07e:	f853 8022 	ldr.w	r8, [r3, r2, lsl #2]
1000f082:	b2fa      	uxtb	r2, r7
1000f084:	f502 7240 	add.w	r2, r2, #768	@ 0x300
    ENC_ROUND_S_T(16); ENC_ROUND_T_S(16);
1000f088:	ea8c 0c04 	eor.w	ip, ip, r4
    ENC_ROUND_S_T(24); ENC_ROUND_T_S(24);
1000f08c:	f853 5022 	ldr.w	r5, [r3, r2, lsl #2]
1000f090:	fa5f f28e 	uxtb.w	r2, lr
1000f094:	f502 7240 	add.w	r2, r2, #768	@ 0x300
1000f098:	f853 4022 	ldr.w	r4, [r3, r2, lsl #2]
1000f09c:	fa5f f28c 	uxtb.w	r2, ip
1000f0a0:	f502 7240 	add.w	r2, r2, #768	@ 0x300
1000f0a4:	f853 1022 	ldr.w	r1, [r3, r2, lsl #2]
1000f0a8:	0e3a      	lsrs	r2, r7, #24
1000f0aa:	f853 2022 	ldr.w	r2, [r3, r2, lsl #2]
1000f0ae:	ea82 0208 	eor.w	r2, r2, r8
1000f0b2:	ea4f 681e 	mov.w	r8, lr, lsr #24
1000f0b6:	f853 8028 	ldr.w	r8, [r3, r8, lsl #2]
1000f0ba:	ea88 0505 	eor.w	r5, r8, r5
1000f0be:	ea4f 681c 	mov.w	r8, ip, lsr #24
1000f0c2:	f853 8028 	ldr.w	r8, [r3, r8, lsl #2]
1000f0c6:	ea88 0404 	eor.w	r4, r8, r4
1000f0ca:	ea4f 6816 	mov.w	r8, r6, lsr #24
1000f0ce:	f853 8028 	ldr.w	r8, [r3, r8, lsl #2]
1000f0d2:	ea88 0101 	eor.w	r1, r8, r1
1000f0d6:	f3ce 4807 	ubfx	r8, lr, #16, #8
1000f0da:	f3ce 2e07 	ubfx	lr, lr, #8, #8
1000f0de:	f50e 7e00 	add.w	lr, lr, #512	@ 0x200
1000f0e2:	9102      	str	r1, [sp, #8]
1000f0e4:	f853 102e 	ldr.w	r1, [r3, lr, lsl #2]
1000f0e8:	9103      	str	r1, [sp, #12]
1000f0ea:	f3cc 4e07 	ubfx	lr, ip, #16, #8
1000f0ee:	f3cc 2c07 	ubfx	ip, ip, #8, #8
1000f0f2:	f50c 7c00 	add.w	ip, ip, #512	@ 0x200
1000f0f6:	6e01      	ldr	r1, [r0, #96]	@ 0x60
1000f0f8:	f853 a02c 	ldr.w	sl, [r3, ip, lsl #2]
1000f0fc:	f3c6 4c07 	ubfx	ip, r6, #16, #8
1000f100:	f3c6 2607 	ubfx	r6, r6, #8, #8
1000f104:	f508 7880 	add.w	r8, r8, #256	@ 0x100
1000f108:	f506 7600 	add.w	r6, r6, #512	@ 0x200
1000f10c:	404a      	eors	r2, r1
1000f10e:	6e41      	ldr	r1, [r0, #100]	@ 0x64
1000f110:	f853 b028 	ldr.w	fp, [r3, r8, lsl #2]
1000f114:	f853 8026 	ldr.w	r8, [r3, r6, lsl #2]
1000f118:	f50e 7e80 	add.w	lr, lr, #256	@ 0x100
1000f11c:	f50c 7c80 	add.w	ip, ip, #256	@ 0x100
1000f120:	f3c7 4607 	ubfx	r6, r7, #16, #8
1000f124:	f3c7 2707 	ubfx	r7, r7, #8, #8
1000f128:	404d      	eors	r5, r1
1000f12a:	f507 7700 	add.w	r7, r7, #512	@ 0x200
1000f12e:	6e81      	ldr	r1, [r0, #104]	@ 0x68
1000f130:	f853 902e 	ldr.w	r9, [r3, lr, lsl #2]
1000f134:	f853 e02c 	ldr.w	lr, [r3, ip, lsl #2]
1000f138:	f853 7027 	ldr.w	r7, [r3, r7, lsl #2]
1000f13c:	404c      	eors	r4, r1
1000f13e:	ea84 040e 	eor.w	r4, r4, lr
1000f142:	f506 7680 	add.w	r6, r6, #256	@ 0x100
1000f146:	407c      	eors	r4, r7
1000f148:	9902      	ldr	r1, [sp, #8]
1000f14a:	6ec7      	ldr	r7, [r0, #108]	@ 0x6c
1000f14c:	f853 6026 	ldr.w	r6, [r3, r6, lsl #2]
1000f150:	4079      	eors	r1, r7
1000f152:	9f03      	ldr	r7, [sp, #12]
1000f154:	4071      	eors	r1, r6
1000f156:	4079      	eors	r1, r7
1000f158:	ea82 020b 	eor.w	r2, r2, fp
1000f15c:	ea85 0509 	eor.w	r5, r5, r9
1000f160:	ea82 020a 	eor.w	r2, r2, sl
1000f164:	ea85 0508 	eor.w	r5, r5, r8
1000f168:	fa5f f881 	uxtb.w	r8, r1
1000f16c:	0e17      	lsrs	r7, r2, #24
1000f16e:	f508 7840 	add.w	r8, r8, #768	@ 0x300
1000f172:	fa5f fe82 	uxtb.w	lr, r2
1000f176:	b2e6      	uxtb	r6, r4
1000f178:	f853 9027 	ldr.w	r9, [r3, r7, lsl #2]
1000f17c:	f853 7028 	ldr.w	r7, [r3, r8, lsl #2]
1000f180:	f50e 7e40 	add.w	lr, lr, #768	@ 0x300
1000f184:	f506 7640 	add.w	r6, r6, #768	@ 0x300
1000f188:	fa5f fc85 	uxtb.w	ip, r5
1000f18c:	f853 b026 	ldr.w	fp, [r3, r6, lsl #2]
1000f190:	f50c 7c40 	add.w	ip, ip, #768	@ 0x300
1000f194:	ea89 0707 	eor.w	r7, r9, r7
1000f198:	0e2e      	lsrs	r6, r5, #24
1000f19a:	f853 902e 	ldr.w	r9, [r3, lr, lsl #2]
1000f19e:	f853 802c 	ldr.w	r8, [r3, ip, lsl #2]
1000f1a2:	f853 6026 	ldr.w	r6, [r3, r6, lsl #2]
1000f1a6:	f3c5 4e07 	ubfx	lr, r5, #16, #8
1000f1aa:	f3c5 2507 	ubfx	r5, r5, #8, #8
1000f1ae:	f505 7500 	add.w	r5, r5, #512	@ 0x200
1000f1b2:	ea4f 6c14 	mov.w	ip, r4, lsr #24
1000f1b6:	f853 5025 	ldr.w	r5, [r3, r5, lsl #2]
1000f1ba:	9502      	str	r5, [sp, #8]
1000f1bc:	f853 c02c 	ldr.w	ip, [r3, ip, lsl #2]
1000f1c0:	f3c4 4507 	ubfx	r5, r4, #16, #8
1000f1c4:	f3c4 2407 	ubfx	r4, r4, #8, #8
1000f1c8:	f504 7400 	add.w	r4, r4, #512	@ 0x200
1000f1cc:	ea8c 0c08 	eor.w	ip, ip, r8
1000f1d0:	ea4f 6811 	mov.w	r8, r1, lsr #24
1000f1d4:	ea86 0609 	eor.w	r6, r6, r9
1000f1d8:	f853 9024 	ldr.w	r9, [r3, r4, lsl #2]
1000f1dc:	f853 8028 	ldr.w	r8, [r3, r8, lsl #2]
1000f1e0:	f3c1 4407 	ubfx	r4, r1, #16, #8
1000f1e4:	f3c1 2107 	ubfx	r1, r1, #8, #8
1000f1e8:	f505 7580 	add.w	r5, r5, #256	@ 0x100
1000f1ec:	f504 7480 	add.w	r4, r4, #256	@ 0x100
1000f1f0:	f501 7100 	add.w	r1, r1, #512	@ 0x200
1000f1f4:	ea88 0b0b 	eor.w	fp, r8, fp
1000f1f8:	f853 8025 	ldr.w	r8, [r3, r5, lsl #2]
1000f1fc:	f853 5024 	ldr.w	r5, [r3, r4, lsl #2]
1000f200:	f853 4021 	ldr.w	r4, [r3, r1, lsl #2]
1000f204:	f3c2 4107 	ubfx	r1, r2, #16, #8
1000f208:	f3c2 2207 	ubfx	r2, r2, #8, #8
1000f20c:	f50e 7e80 	add.w	lr, lr, #256	@ 0x100
1000f210:	f502 7200 	add.w	r2, r2, #512	@ 0x200
1000f214:	f853 a02e 	ldr.w	sl, [r3, lr, lsl #2]
1000f218:	f853 e022 	ldr.w	lr, [r3, r2, lsl #2]
1000f21c:	6f02      	ldr	r2, [r0, #112]	@ 0x70
1000f21e:	4057      	eors	r7, r2
1000f220:	6f42      	ldr	r2, [r0, #116]	@ 0x74
1000f222:	4056      	eors	r6, r2
1000f224:	ea86 0608 	eor.w	r6, r6, r8
1000f228:	4066      	eors	r6, r4
1000f22a:	6f84      	ldr	r4, [r0, #120]	@ 0x78
1000f22c:	f501 7180 	add.w	r1, r1, #256	@ 0x100
1000f230:	ea8c 0c04 	eor.w	ip, ip, r4
1000f234:	6fc4      	ldr	r4, [r0, #124]	@ 0x7c
1000f236:	f853 1021 	ldr.w	r1, [r3, r1, lsl #2]
1000f23a:	ea8c 0c05 	eor.w	ip, ip, r5
1000f23e:	ea8b 0404 	eor.w	r4, fp, r4
1000f242:	9d02      	ldr	r5, [sp, #8]
1000f244:	404c      	eors	r4, r1
1000f246:	406c      	eors	r4, r5
    ENC_ROUND_S_T(32); ENC_ROUND_T_S(32);
1000f248:	b2e2      	uxtb	r2, r4
1000f24a:	f502 7240 	add.w	r2, r2, #768	@ 0x300
    ENC_ROUND_S_T(24); ENC_ROUND_T_S(24);
1000f24e:	ea8c 0c0e 	eor.w	ip, ip, lr
    ENC_ROUND_S_T(32); ENC_ROUND_T_S(32);
1000f252:	f853 5022 	ldr.w	r5, [r3, r2, lsl #2]
1000f256:	f3c6 4207 	ubfx	r2, r6, #16, #8
1000f25a:	f502 7280 	add.w	r2, r2, #256	@ 0x100
    ENC_ROUND_S_T(24); ENC_ROUND_T_S(24);
1000f25e:	ea87 070a 	eor.w	r7, r7, sl
    ENC_ROUND_S_T(32); ENC_ROUND_T_S(32);
1000f262:	f853 2022 	ldr.w	r2, [r3, r2, lsl #2]
1000f266:	9202      	str	r2, [sp, #8]
1000f268:	f3cc 2207 	ubfx	r2, ip, #8, #8
1000f26c:	f502 7200 	add.w	r2, r2, #512	@ 0x200
    ENC_ROUND_S_T(24); ENC_ROUND_T_S(24);
1000f270:	ea87 0709 	eor.w	r7, r7, r9
    ENC_ROUND_S_T(32); ENC_ROUND_T_S(32);
1000f274:	f853 1022 	ldr.w	r1, [r3, r2, lsl #2]
1000f278:	9103      	str	r1, [sp, #12]
1000f27a:	b2fa      	uxtb	r2, r7
1000f27c:	f502 7240 	add.w	r2, r2, #768	@ 0x300
1000f280:	fa5f fe8c 	uxtb.w	lr, ip
1000f284:	f853 1022 	ldr.w	r1, [r3, r2, lsl #2]
1000f288:	f3cc 4207 	ubfx	r2, ip, #16, #8
1000f28c:	f502 7280 	add.w	r2, r2, #256	@ 0x100
1000f290:	ea4f 6c1c 	mov.w	ip, ip, lsr #24
1000f294:	f853 2022 	ldr.w	r2, [r3, r2, lsl #2]
1000f298:	9204      	str	r2, [sp, #16]
1000f29a:	f3c4 2207 	ubfx	r2, r4, #8, #8
1000f29e:	f502 7200 	add.w	r2, r2, #512	@ 0x200
1000f2a2:	f3c7 4907 	ubfx	r9, r7, #16, #8
1000f2a6:	f853 2022 	ldr.w	r2, [r3, r2, lsl #2]
1000f2aa:	9205      	str	r2, [sp, #20]
1000f2ac:	b2f2      	uxtb	r2, r6
1000f2ae:	f502 7240 	add.w	r2, r2, #768	@ 0x300
1000f2b2:	ea4f 6814 	mov.w	r8, r4, lsr #24
1000f2b6:	f853 2022 	ldr.w	r2, [r3, r2, lsl #2]
1000f2ba:	f853 c02c 	ldr.w	ip, [r3, ip, lsl #2]
1000f2be:	f853 8028 	ldr.w	r8, [r3, r8, lsl #2]
1000f2c2:	ea8c 0202 	eor.w	r2, ip, r2
1000f2c6:	ea4f 6c17 	mov.w	ip, r7, lsr #24
1000f2ca:	f3c7 2707 	ubfx	r7, r7, #8, #8
1000f2ce:	f853 b02c 	ldr.w	fp, [r3, ip, lsl #2]
1000f2d2:	ea8b 0b05 	eor.w	fp, fp, r5
1000f2d6:	0e35      	lsrs	r5, r6, #24
1000f2d8:	f507 7c00 	add.w	ip, r7, #512	@ 0x200
1000f2dc:	f853 5025 	ldr.w	r5, [r3, r5, lsl #2]
1000f2e0:	ea85 0a01 	eor.w	sl, r5, r1
1000f2e4:	f8d0 5080 	ldr.w	r5, [r0, #128]	@ 0x80
1000f2e8:	ea8b 0b05 	eor.w	fp, fp, r5
1000f2ec:	9d02      	ldr	r5, [sp, #8]
1000f2ee:	ea8b 0705 	eor.w	r7, fp, r5
1000f2f2:	9d03      	ldr	r5, [sp, #12]
1000f2f4:	406f      	eors	r7, r5
1000f2f6:	f8d0 5084 	ldr.w	r5, [r0, #132]	@ 0x84
1000f2fa:	ea8a 0a05 	eor.w	sl, sl, r5
1000f2fe:	9d04      	ldr	r5, [sp, #16]
1000f300:	f3c4 4407 	ubfx	r4, r4, #16, #8
1000f304:	ea8a 0a05 	eor.w	sl, sl, r5
1000f308:	9d05      	ldr	r5, [sp, #20]
1000f30a:	f3c6 2607 	ubfx	r6, r6, #8, #8
1000f30e:	f504 7480 	add.w	r4, r4, #256	@ 0x100
1000f312:	f506 7100 	add.w	r1, r6, #512	@ 0x200
1000f316:	ea8a 0605 	eor.w	r6, sl, r5
1000f31a:	f8d0 5088 	ldr.w	r5, [r0, #136]	@ 0x88
1000f31e:	f853 4024 	ldr.w	r4, [r3, r4, lsl #2]
1000f322:	f853 1021 	ldr.w	r1, [r3, r1, lsl #2]
1000f326:	f50e 7e40 	add.w	lr, lr, #768	@ 0x300
1000f32a:	406a      	eors	r2, r5
1000f32c:	f853 502e 	ldr.w	r5, [r3, lr, lsl #2]
1000f330:	ea82 0e04 	eor.w	lr, r2, r4
1000f334:	f853 202c 	ldr.w	r2, [r3, ip, lsl #2]
1000f338:	f509 7980 	add.w	r9, r9, #256	@ 0x100
1000f33c:	ea8e 0e02 	eor.w	lr, lr, r2
1000f340:	f8d0 208c 	ldr.w	r2, [r0, #140]	@ 0x8c
1000f344:	f853 4029 	ldr.w	r4, [r3, r9, lsl #2]
1000f348:	ea88 0505 	eor.w	r5, r8, r5
1000f34c:	ea85 0c02 	eor.w	ip, r5, r2
1000f350:	ea8c 0c04 	eor.w	ip, ip, r4
1000f354:	ea8c 0c01 	eor.w	ip, ip, r1
1000f358:	fa5f f28c 	uxtb.w	r2, ip
1000f35c:	f502 7240 	add.w	r2, r2, #768	@ 0x300
1000f360:	ea4f 6817 	mov.w	r8, r7, lsr #24
1000f364:	f853 1022 	ldr.w	r1, [r3, r2, lsl #2]
1000f368:	f853 8028 	ldr.w	r8, [r3, r8, lsl #2]
1000f36c:	b2fa      	uxtb	r2, r7
1000f36e:	f502 7240 	add.w	r2, r2, #768	@ 0x300
1000f372:	ea88 0101 	eor.w	r1, r8, r1
1000f376:	ea4f 6816 	mov.w	r8, r6, lsr #24
1000f37a:	f853 5022 	ldr.w	r5, [r3, r2, lsl #2]
1000f37e:	f853 8028 	ldr.w	r8, [r3, r8, lsl #2]
1000f382:	b2f2      	uxtb	r2, r6
1000f384:	f502 7240 	add.w	r2, r2, #768	@ 0x300
1000f388:	ea88 0505 	eor.w	r5, r8, r5
1000f38c:	ea4f 681e 	mov.w	r8, lr, lsr #24
1000f390:	f853 4022 	ldr.w	r4, [r3, r2, lsl #2]
1000f394:	f853 8028 	ldr.w	r8, [r3, r8, lsl #2]
1000f398:	fa5f f28e 	uxtb.w	r2, lr
1000f39c:	ea88 0404 	eor.w	r4, r8, r4
1000f3a0:	f502 7240 	add.w	r2, r2, #768	@ 0x300
1000f3a4:	ea4f 681c 	mov.w	r8, ip, lsr #24
1000f3a8:	f853 2022 	ldr.w	r2, [r3, r2, lsl #2]
1000f3ac:	f853 8028 	ldr.w	r8, [r3, r8, lsl #2]
1000f3b0:	ea88 0202 	eor.w	r2, r8, r2
1000f3b4:	f3c6 4807 	ubfx	r8, r6, #16, #8
1000f3b8:	f3c6 2607 	ubfx	r6, r6, #8, #8
1000f3bc:	f506 7600 	add.w	r6, r6, #512	@ 0x200
1000f3c0:	f508 7880 	add.w	r8, r8, #256	@ 0x100
1000f3c4:	f853 6026 	ldr.w	r6, [r3, r6, lsl #2]
1000f3c8:	9603      	str	r6, [sp, #12]
1000f3ca:	f3ce 4607 	ubfx	r6, lr, #16, #8
1000f3ce:	f506 7680 	add.w	r6, r6, #256	@ 0x100
1000f3d2:	f3ce 2e07 	ubfx	lr, lr, #8, #8
1000f3d6:	f853 9026 	ldr.w	r9, [r3, r6, lsl #2]
1000f3da:	f853 b028 	ldr.w	fp, [r3, r8, lsl #2]
1000f3de:	9202      	str	r2, [sp, #8]
1000f3e0:	f3cc 4607 	ubfx	r6, ip, #16, #8
1000f3e4:	f50e 7e00 	add.w	lr, lr, #512	@ 0x200
1000f3e8:	f506 7680 	add.w	r6, r6, #256	@ 0x100
1000f3ec:	f853 a02e 	ldr.w	sl, [r3, lr, lsl #2]
1000f3f0:	f853 e026 	ldr.w	lr, [r3, r6, lsl #2]
1000f3f4:	f8d0 2090 	ldr.w	r2, [r0, #144]	@ 0x90
1000f3f8:	4051      	eors	r1, r2
1000f3fa:	f8d0 2094 	ldr.w	r2, [r0, #148]	@ 0x94
1000f3fe:	f3c7 4607 	ubfx	r6, r7, #16, #8
1000f402:	f3c7 2707 	ubfx	r7, r7, #8, #8
1000f406:	4055      	eors	r5, r2
1000f408:	f507 7700 	add.w	r7, r7, #512	@ 0x200
1000f40c:	f8d0 2098 	ldr.w	r2, [r0, #152]	@ 0x98
1000f410:	f853 7027 	ldr.w	r7, [r3, r7, lsl #2]
1000f414:	4054      	eors	r4, r2
1000f416:	f506 7680 	add.w	r6, r6, #256	@ 0x100
1000f41a:	ea84 040e 	eor.w	r4, r4, lr
1000f41e:	9a02      	ldr	r2, [sp, #8]
1000f420:	f853 6026 	ldr.w	r6, [r3, r6, lsl #2]
1000f424:	407c      	eors	r4, r7
1000f426:	f8d0 709c 	ldr.w	r7, [r0, #156]	@ 0x9c
1000f42a:	f3cc 2c07 	ubfx	ip, ip, #8, #8
1000f42e:	407a      	eors	r2, r7
1000f430:	f50c 7c00 	add.w	ip, ip, #512	@ 0x200
1000f434:	4072      	eors	r2, r6
    if (r > 5) {
1000f436:	9e00      	ldr	r6, [sp, #0]
    ENC_ROUND_S_T(32); ENC_ROUND_T_S(32);
1000f438:	f853 802c 	ldr.w	r8, [r3, ip, lsl #2]
1000f43c:	9f03      	ldr	r7, [sp, #12]
1000f43e:	ea81 010b 	eor.w	r1, r1, fp
1000f442:	ea85 0509 	eor.w	r5, r5, r9
    if (r > 5) {
1000f446:	2e05      	cmp	r6, #5
    ENC_ROUND_S_T(32); ENC_ROUND_T_S(32);
1000f448:	ea81 010a 	eor.w	r1, r1, sl
1000f44c:	ea85 0508 	eor.w	r5, r5, r8
1000f450:	ea82 0207 	eor.w	r2, r2, r7
    if (r > 5) {
1000f454:	f240 81e9 	bls.w	1000f82a <AesEncrypt_C+0xc92>
        ENC_ROUND_S_T(40); ENC_ROUND_T_S(40);
1000f458:	b2d6      	uxtb	r6, r2
1000f45a:	f506 7640 	add.w	r6, r6, #768	@ 0x300
1000f45e:	f3c5 4e07 	ubfx	lr, r5, #16, #8
1000f462:	f853 7026 	ldr.w	r7, [r3, r6, lsl #2]
1000f466:	b2ce      	uxtb	r6, r1
1000f468:	f506 7640 	add.w	r6, r6, #768	@ 0x300
1000f46c:	f50e 7e80 	add.w	lr, lr, #256	@ 0x100
1000f470:	f853 c026 	ldr.w	ip, [r3, r6, lsl #2]
1000f474:	b2ee      	uxtb	r6, r5
1000f476:	f506 7640 	add.w	r6, r6, #768	@ 0x300
1000f47a:	f853 8026 	ldr.w	r8, [r3, r6, lsl #2]
1000f47e:	b2e6      	uxtb	r6, r4
1000f480:	f506 7640 	add.w	r6, r6, #768	@ 0x300
1000f484:	f853 b026 	ldr.w	fp, [r3, r6, lsl #2]
1000f488:	0e0e      	lsrs	r6, r1, #24
1000f48a:	f853 6026 	ldr.w	r6, [r3, r6, lsl #2]
1000f48e:	4077      	eors	r7, r6
1000f490:	0e2e      	lsrs	r6, r5, #24
1000f492:	f3c5 2507 	ubfx	r5, r5, #8, #8
1000f496:	f853 6026 	ldr.w	r6, [r3, r6, lsl #2]
1000f49a:	f505 7500 	add.w	r5, r5, #512	@ 0x200
1000f49e:	ea86 060c 	eor.w	r6, r6, ip
1000f4a2:	ea4f 6c14 	mov.w	ip, r4, lsr #24
1000f4a6:	f853 5025 	ldr.w	r5, [r3, r5, lsl #2]
1000f4aa:	9502      	str	r5, [sp, #8]
1000f4ac:	f853 c02c 	ldr.w	ip, [r3, ip, lsl #2]
1000f4b0:	f3c4 4507 	ubfx	r5, r4, #16, #8
1000f4b4:	f3c4 2407 	ubfx	r4, r4, #8, #8
1000f4b8:	f504 7400 	add.w	r4, r4, #512	@ 0x200
1000f4bc:	ea8c 0c08 	eor.w	ip, ip, r8
1000f4c0:	ea4f 6812 	mov.w	r8, r2, lsr #24
1000f4c4:	f853 9024 	ldr.w	r9, [r3, r4, lsl #2]
1000f4c8:	f853 8028 	ldr.w	r8, [r3, r8, lsl #2]
1000f4cc:	f3c2 4407 	ubfx	r4, r2, #16, #8
1000f4d0:	f3c2 2207 	ubfx	r2, r2, #8, #8
1000f4d4:	f505 7580 	add.w	r5, r5, #256	@ 0x100
1000f4d8:	f502 7200 	add.w	r2, r2, #512	@ 0x200
1000f4dc:	ea88 0b0b 	eor.w	fp, r8, fp
1000f4e0:	f853 802e 	ldr.w	r8, [r3, lr, lsl #2]
1000f4e4:	f853 e025 	ldr.w	lr, [r3, r5, lsl #2]
1000f4e8:	f853 5022 	ldr.w	r5, [r3, r2, lsl #2]
1000f4ec:	f3c1 4207 	ubfx	r2, r1, #16, #8
1000f4f0:	f3c1 2107 	ubfx	r1, r1, #8, #8
1000f4f4:	f501 7100 	add.w	r1, r1, #512	@ 0x200
1000f4f8:	f502 7280 	add.w	r2, r2, #256	@ 0x100
1000f4fc:	f853 a021 	ldr.w	sl, [r3, r1, lsl #2]
1000f500:	f8d0 10a0 	ldr.w	r1, [r0, #160]	@ 0xa0
1000f504:	f853 2022 	ldr.w	r2, [r3, r2, lsl #2]
1000f508:	404f      	eors	r7, r1
1000f50a:	f8d0 10a4 	ldr.w	r1, [r0, #164]	@ 0xa4
1000f50e:	404e      	eors	r6, r1
1000f510:	ea86 060e 	eor.w	r6, r6, lr
1000f514:	4075      	eors	r5, r6
1000f516:	f8d0 10ac 	ldr.w	r1, [r0, #172]	@ 0xac
1000f51a:	f8d0 60a8 	ldr.w	r6, [r0, #168]	@ 0xa8
1000f51e:	f504 7480 	add.w	r4, r4, #256	@ 0x100
1000f522:	ea8c 0c06 	eor.w	ip, ip, r6
1000f526:	ea8b 0601 	eor.w	r6, fp, r1
1000f52a:	4056      	eors	r6, r2
1000f52c:	9a02      	ldr	r2, [sp, #8]
1000f52e:	f853 4024 	ldr.w	r4, [r3, r4, lsl #2]
1000f532:	4056      	eors	r6, r2
1000f534:	ea8c 0c04 	eor.w	ip, ip, r4
1000f538:	b2f2      	uxtb	r2, r6
1000f53a:	ea8c 0c0a 	eor.w	ip, ip, sl
1000f53e:	f502 7240 	add.w	r2, r2, #768	@ 0x300
1000f542:	f3cc 4407 	ubfx	r4, ip, #16, #8
1000f546:	f853 1022 	ldr.w	r1, [r3, r2, lsl #2]
1000f54a:	f504 7480 	add.w	r4, r4, #256	@ 0x100
1000f54e:	f3c5 4207 	ubfx	r2, r5, #16, #8
1000f552:	f502 7280 	add.w	r2, r2, #256	@ 0x100
1000f556:	f853 4024 	ldr.w	r4, [r3, r4, lsl #2]
1000f55a:	f853 b022 	ldr.w	fp, [r3, r2, lsl #2]
1000f55e:	9403      	str	r4, [sp, #12]
1000f560:	f3cc 2207 	ubfx	r2, ip, #8, #8
1000f564:	f3c6 2407 	ubfx	r4, r6, #8, #8
1000f568:	f502 7200 	add.w	r2, r2, #512	@ 0x200
1000f56c:	f504 7400 	add.w	r4, r4, #512	@ 0x200
1000f570:	ea87 0708 	eor.w	r7, r7, r8
1000f574:	ea87 0709 	eor.w	r7, r7, r9
1000f578:	f853 2022 	ldr.w	r2, [r3, r2, lsl #2]
1000f57c:	f853 4024 	ldr.w	r4, [r3, r4, lsl #2]
1000f580:	9202      	str	r2, [sp, #8]
1000f582:	9404      	str	r4, [sp, #16]
1000f584:	b2fa      	uxtb	r2, r7
1000f586:	b2ec      	uxtb	r4, r5
1000f588:	fa5f fe8c 	uxtb.w	lr, ip
1000f58c:	f502 7240 	add.w	r2, r2, #768	@ 0x300
1000f590:	f504 7440 	add.w	r4, r4, #768	@ 0x300
1000f594:	ea4f 6c1c 	mov.w	ip, ip, lsr #24
1000f598:	f853 2022 	ldr.w	r2, [r3, r2, lsl #2]
1000f59c:	f853 4024 	ldr.w	r4, [r3, r4, lsl #2]
1000f5a0:	f853 c02c 	ldr.w	ip, [r3, ip, lsl #2]
1000f5a4:	ea8c 0404 	eor.w	r4, ip, r4
1000f5a8:	ea4f 6c17 	mov.w	ip, r7, lsr #24
1000f5ac:	ea4f 6816 	mov.w	r8, r6, lsr #24
1000f5b0:	f853 c02c 	ldr.w	ip, [r3, ip, lsl #2]
1000f5b4:	f853 8028 	ldr.w	r8, [r3, r8, lsl #2]
1000f5b8:	ea8c 0101 	eor.w	r1, ip, r1
1000f5bc:	ea4f 6c15 	mov.w	ip, r5, lsr #24
1000f5c0:	f3c6 4607 	ubfx	r6, r6, #16, #8
1000f5c4:	f853 a02c 	ldr.w	sl, [r3, ip, lsl #2]
1000f5c8:	ea8a 0a02 	eor.w	sl, sl, r2
1000f5cc:	f8d0 20b0 	ldr.w	r2, [r0, #176]	@ 0xb0
1000f5d0:	4051      	eors	r1, r2
1000f5d2:	9a02      	ldr	r2, [sp, #8]
1000f5d4:	ea81 010b 	eor.w	r1, r1, fp
1000f5d8:	4051      	eors	r1, r2
1000f5da:	f8d0 20b4 	ldr.w	r2, [r0, #180]	@ 0xb4
1000f5de:	ea8a 0a02 	eor.w	sl, sl, r2
1000f5e2:	9a03      	ldr	r2, [sp, #12]
1000f5e4:	ea8a 0a02 	eor.w	sl, sl, r2
1000f5e8:	9a04      	ldr	r2, [sp, #16]
1000f5ea:	f3c5 2507 	ubfx	r5, r5, #8, #8
1000f5ee:	f506 7680 	add.w	r6, r6, #256	@ 0x100
1000f5f2:	f505 7c00 	add.w	ip, r5, #512	@ 0x200
1000f5f6:	f3c7 4907 	ubfx	r9, r7, #16, #8
1000f5fa:	ea8a 0502 	eor.w	r5, sl, r2
1000f5fe:	f3c7 2707 	ubfx	r7, r7, #8, #8
1000f602:	f8d0 20b8 	ldr.w	r2, [r0, #184]	@ 0xb8
1000f606:	f853 6026 	ldr.w	r6, [r3, r6, lsl #2]
1000f60a:	f507 7700 	add.w	r7, r7, #512	@ 0x200
1000f60e:	f50e 7e40 	add.w	lr, lr, #768	@ 0x300
1000f612:	4054      	eors	r4, r2
1000f614:	4074      	eors	r4, r6
1000f616:	f853 6027 	ldr.w	r6, [r3, r7, lsl #2]
1000f61a:	f853 202e 	ldr.w	r2, [r3, lr, lsl #2]
1000f61e:	f853 702c 	ldr.w	r7, [r3, ip, lsl #2]
1000f622:	f509 7980 	add.w	r9, r9, #256	@ 0x100
1000f626:	4074      	eors	r4, r6
1000f628:	f8d0 60bc 	ldr.w	r6, [r0, #188]	@ 0xbc
1000f62c:	f853 e029 	ldr.w	lr, [r3, r9, lsl #2]
1000f630:	ea88 0202 	eor.w	r2, r8, r2
1000f634:	4072      	eors	r2, r6
        if (r > 6) {
1000f636:	9e00      	ldr	r6, [sp, #0]
        ENC_ROUND_S_T(40); ENC_ROUND_T_S(40);
1000f638:	ea82 020e 	eor.w	r2, r2, lr
        if (r > 6) {
1000f63c:	2e06      	cmp	r6, #6
        ENC_ROUND_S_T(40); ENC_ROUND_T_S(40);
1000f63e:	ea82 0207 	eor.w	r2, r2, r7
        if (r > 6) {
1000f642:	f000 80f2 	beq.w	1000f82a <AesEncrypt_C+0xc92>
            ENC_ROUND_S_T(48); ENC_ROUND_T_S(48);
1000f646:	b2d6      	uxtb	r6, r2
1000f648:	f506 7640 	add.w	r6, r6, #768	@ 0x300
1000f64c:	f3c5 4e07 	ubfx	lr, r5, #16, #8
1000f650:	f853 7026 	ldr.w	r7, [r3, r6, lsl #2]
1000f654:	b2ce      	uxtb	r6, r1
1000f656:	f506 7640 	add.w	r6, r6, #768	@ 0x300
1000f65a:	f50e 7e80 	add.w	lr, lr, #256	@ 0x100
1000f65e:	f853 c026 	ldr.w	ip, [r3, r6, lsl #2]
1000f662:	b2ee      	uxtb	r6, r5
1000f664:	f506 7640 	add.w	r6, r6, #768	@ 0x300
1000f668:	f853 8026 	ldr.w	r8, [r3, r6, lsl #2]
1000f66c:	b2e6      	uxtb	r6, r4
1000f66e:	f506 7640 	add.w	r6, r6, #768	@ 0x300
1000f672:	f853 b026 	ldr.w	fp, [r3, r6, lsl #2]
1000f676:	0e0e      	lsrs	r6, r1, #24
1000f678:	f853 6026 	ldr.w	r6, [r3, r6, lsl #2]
1000f67c:	4077      	eors	r7, r6
1000f67e:	0e2e      	lsrs	r6, r5, #24
1000f680:	f3c5 2507 	ubfx	r5, r5, #8, #8
1000f684:	f853 6026 	ldr.w	r6, [r3, r6, lsl #2]
1000f688:	f505 7500 	add.w	r5, r5, #512	@ 0x200
1000f68c:	ea86 060c 	eor.w	r6, r6, ip
1000f690:	ea4f 6c14 	mov.w	ip, r4, lsr #24
1000f694:	f853 5025 	ldr.w	r5, [r3, r5, lsl #2]
1000f698:	9502      	str	r5, [sp, #8]
1000f69a:	f853 c02c 	ldr.w	ip, [r3, ip, lsl #2]
1000f69e:	f3c4 4507 	ubfx	r5, r4, #16, #8
1000f6a2:	f3c4 2407 	ubfx	r4, r4, #8, #8
1000f6a6:	f504 7400 	add.w	r4, r4, #512	@ 0x200
1000f6aa:	ea8c 0c08 	eor.w	ip, ip, r8
1000f6ae:	ea4f 6812 	mov.w	r8, r2, lsr #24
1000f6b2:	f853 9024 	ldr.w	r9, [r3, r4, lsl #2]
1000f6b6:	f853 8028 	ldr.w	r8, [r3, r8, lsl #2]
1000f6ba:	f3c2 4407 	ubfx	r4, r2, #16, #8
1000f6be:	f3c2 2207 	ubfx	r2, r2, #8, #8
1000f6c2:	f505 7580 	add.w	r5, r5, #256	@ 0x100
1000f6c6:	f502 7200 	add.w	r2, r2, #512	@ 0x200
1000f6ca:	ea88 0b0b 	eor.w	fp, r8, fp
1000f6ce:	f853 802e 	ldr.w	r8, [r3, lr, lsl #2]
1000f6d2:	f853 e025 	ldr.w	lr, [r3, r5, lsl #2]
1000f6d6:	f853 5022 	ldr.w	r5, [r3, r2, lsl #2]
1000f6da:	f3c1 4207 	ubfx	r2, r1, #16, #8
1000f6de:	f3c1 2107 	ubfx	r1, r1, #8, #8
1000f6e2:	f501 7100 	add.w	r1, r1, #512	@ 0x200
1000f6e6:	f502 7280 	add.w	r2, r2, #256	@ 0x100
1000f6ea:	f853 a021 	ldr.w	sl, [r3, r1, lsl #2]
1000f6ee:	f8d0 10c0 	ldr.w	r1, [r0, #192]	@ 0xc0
1000f6f2:	f853 2022 	ldr.w	r2, [r3, r2, lsl #2]
1000f6f6:	404f      	eors	r7, r1
1000f6f8:	f8d0 10c4 	ldr.w	r1, [r0, #196]	@ 0xc4
1000f6fc:	404e      	eors	r6, r1
1000f6fe:	ea86 060e 	eor.w	r6, r6, lr
1000f702:	4075      	eors	r5, r6
1000f704:	f8d0 10cc 	ldr.w	r1, [r0, #204]	@ 0xcc
1000f708:	f8d0 60c8 	ldr.w	r6, [r0, #200]	@ 0xc8
1000f70c:	f504 7480 	add.w	r4, r4, #256	@ 0x100
1000f710:	ea8c 0c06 	eor.w	ip, ip, r6
1000f714:	ea8b 0601 	eor.w	r6, fp, r1
1000f718:	4056      	eors	r6, r2
1000f71a:	9a02      	ldr	r2, [sp, #8]
1000f71c:	f853 4024 	ldr.w	r4, [r3, r4, lsl #2]
1000f720:	4056      	eors	r6, r2
1000f722:	ea8c 0c04 	eor.w	ip, ip, r4
1000f726:	b2f2      	uxtb	r2, r6
1000f728:	ea8c 0c0a 	eor.w	ip, ip, sl
1000f72c:	f502 7240 	add.w	r2, r2, #768	@ 0x300
1000f730:	f3cc 4407 	ubfx	r4, ip, #16, #8
1000f734:	f853 1022 	ldr.w	r1, [r3, r2, lsl #2]
1000f738:	f504 7480 	add.w	r4, r4, #256	@ 0x100
1000f73c:	f3c5 4207 	ubfx	r2, r5, #16, #8
1000f740:	f502 7280 	add.w	r2, r2, #256	@ 0x100
1000f744:	f853 4024 	ldr.w	r4, [r3, r4, lsl #2]
1000f748:	f853 b022 	ldr.w	fp, [r3, r2, lsl #2]
1000f74c:	9403      	str	r4, [sp, #12]
1000f74e:	f3cc 2207 	ubfx	r2, ip, #8, #8
1000f752:	f3c6 2407 	ubfx	r4, r6, #8, #8
1000f756:	f502 7200 	add.w	r2, r2, #512	@ 0x200
1000f75a:	f504 7400 	add.w	r4, r4, #512	@ 0x200
1000f75e:	ea87 0708 	eor.w	r7, r7, r8
1000f762:	ea87 0709 	eor.w	r7, r7, r9
1000f766:	f853 2022 	ldr.w	r2, [r3, r2, lsl #2]
1000f76a:	f853 4024 	ldr.w	r4, [r3, r4, lsl #2]
1000f76e:	9202      	str	r2, [sp, #8]
1000f770:	9404      	str	r4, [sp, #16]
1000f772:	b2fa      	uxtb	r2, r7
1000f774:	b2ec      	uxtb	r4, r5
1000f776:	fa5f fe8c 	uxtb.w	lr, ip
1000f77a:	f502 7240 	add.w	r2, r2, #768	@ 0x300
1000f77e:	f504 7440 	add.w	r4, r4, #768	@ 0x300
1000f782:	ea4f 6c1c 	mov.w	ip, ip, lsr #24
1000f786:	f853 2022 	ldr.w	r2, [r3, r2, lsl #2]
1000f78a:	f853 4024 	ldr.w	r4, [r3, r4, lsl #2]
1000f78e:	f853 c02c 	ldr.w	ip, [r3, ip, lsl #2]
1000f792:	ea8c 0404 	eor.w	r4, ip, r4
1000f796:	ea4f 6c17 	mov.w	ip, r7, lsr #24
1000f79a:	ea4f 6816 	mov.w	r8, r6, lsr #24
1000f79e:	f853 c02c 	ldr.w	ip, [r3, ip, lsl #2]
1000f7a2:	f853 8028 	ldr.w	r8, [r3, r8, lsl #2]
1000f7a6:	ea8c 0101 	eor.w	r1, ip, r1
1000f7aa:	ea4f 6c15 	mov.w	ip, r5, lsr #24
1000f7ae:	f3c6 4607 	ubfx	r6, r6, #16, #8
1000f7b2:	f853 a02c 	ldr.w	sl, [r3, ip, lsl #2]
1000f7b6:	ea8a 0a02 	eor.w	sl, sl, r2
1000f7ba:	f8d0 20d0 	ldr.w	r2, [r0, #208]	@ 0xd0
1000f7be:	4051      	eors	r1, r2
1000f7c0:	9a02      	ldr	r2, [sp, #8]
1000f7c2:	ea81 010b 	eor.w	r1, r1, fp
1000f7c6:	4051      	eors	r1, r2
1000f7c8:	f8d0 20d4 	ldr.w	r2, [r0, #212]	@ 0xd4
1000f7cc:	ea8a 0a02 	eor.w	sl, sl, r2
1000f7d0:	9a03      	ldr	r2, [sp, #12]
1000f7d2:	ea8a 0a02 	eor.w	sl, sl, r2
1000f7d6:	9a04      	ldr	r2, [sp, #16]
1000f7d8:	f3c5 2507 	ubfx	r5, r5, #8, #8
1000f7dc:	f506 7680 	add.w	r6, r6, #256	@ 0x100
1000f7e0:	f505 7c00 	add.w	ip, r5, #512	@ 0x200
1000f7e4:	f3c7 4907 	ubfx	r9, r7, #16, #8
1000f7e8:	ea8a 0502 	eor.w	r5, sl, r2
1000f7ec:	f3c7 2707 	ubfx	r7, r7, #8, #8
1000f7f0:	f8d0 20d8 	ldr.w	r2, [r0, #216]	@ 0xd8
1000f7f4:	f853 6026 	ldr.w	r6, [r3, r6, lsl #2]
1000f7f8:	f507 7700 	add.w	r7, r7, #512	@ 0x200
1000f7fc:	f50e 7e40 	add.w	lr, lr, #768	@ 0x300
1000f800:	4054      	eors	r4, r2
1000f802:	4074      	eors	r4, r6
1000f804:	f853 6027 	ldr.w	r6, [r3, r7, lsl #2]
1000f808:	f853 202e 	ldr.w	r2, [r3, lr, lsl #2]
1000f80c:	f853 702c 	ldr.w	r7, [r3, ip, lsl #2]
1000f810:	f509 7980 	add.w	r9, r9, #256	@ 0x100
1000f814:	4074      	eors	r4, r6
1000f816:	f8d0 60dc 	ldr.w	r6, [r0, #220]	@ 0xdc
1000f81a:	f853 e029 	ldr.w	lr, [r3, r9, lsl #2]
1000f81e:	ea88 0202 	eor.w	r2, r8, r2
1000f822:	4072      	eors	r2, r6
1000f824:	ea82 020e 	eor.w	r2, r2, lr
1000f828:	407a      	eors	r2, r7
#ifndef WOLFSSL_AES_TOUCH_LINES
    s0 =
        (GetTable(Te[2], GETBYTE(t0, 3)) & 0xff000000) ^
        (GetTable(Te[3], GETBYTE(t1, 2)) & 0x00ff0000) ^
        (GetTable(Te[0], GETBYTE(t2, 1)) & 0x0000ff00) ^
        (GetTable(Te[1], GETBYTE(t3, 0)) & 0x000000ff) ^
1000f82a:	b2d6      	uxtb	r6, r2
1000f82c:	f506 7680 	add.w	r6, r6, #256	@ 0x100
        (GetTable(Te[3], GETBYTE(t2, 2)) & 0x00ff0000) ^
        (GetTable(Te[0], GETBYTE(t3, 1)) & 0x0000ff00) ^
        (GetTable(Te[1], GETBYTE(t0, 0)) & 0x000000ff) ^
        rk[1];
    s2 =
        (GetTable(Te[2], GETBYTE(t2, 3)) & 0xff000000) ^
1000f830:	ea4f 6914 	mov.w	r9, r4, lsr #24
        (GetTable(Te[1], GETBYTE(t3, 0)) & 0x000000ff) ^
1000f834:	f813 c026 	ldrb.w	ip, [r3, r6, lsl #2]
        (GetTable(Te[3], GETBYTE(t1, 2)) & 0x00ff0000) ^
1000f838:	f3c5 4607 	ubfx	r6, r5, #16, #8
1000f83c:	f506 7640 	add.w	r6, r6, #768	@ 0x300
        (GetTable(Te[2], GETBYTE(t2, 3)) & 0xff000000) ^
1000f840:	f509 7900 	add.w	r9, r9, #512	@ 0x200
        (GetTable(Te[3], GETBYTE(t1, 2)) & 0x00ff0000) ^
1000f844:	f853 6026 	ldr.w	r6, [r3, r6, lsl #2]
        (GetTable(Te[2], GETBYTE(t2, 3)) & 0xff000000) ^
1000f848:	f853 9029 	ldr.w	r9, [r3, r9, lsl #2]
        (GetTable(Te[3], GETBYTE(t1, 2)) & 0x00ff0000) ^
1000f84c:	f406 087f 	and.w	r8, r6, #16711680	@ 0xff0000
        (GetTable(Te[2], GETBYTE(t0, 3)) & 0xff000000) ^
1000f850:	0e0e      	lsrs	r6, r1, #24
1000f852:	f506 7600 	add.w	r6, r6, #512	@ 0x200
        rk[2];
    s3 =
        (GetTable(Te[2], GETBYTE(t3, 3)) & 0xff000000) ^
        (GetTable(Te[3], GETBYTE(t0, 2)) & 0x00ff0000) ^
        (GetTable(Te[0], GETBYTE(t1, 1)) & 0x0000ff00) ^
        (GetTable(Te[1], GETBYTE(t2, 0)) & 0x000000ff) ^
1000f856:	fa5f fa84 	uxtb.w	sl, r4
        (GetTable(Te[2], GETBYTE(t0, 3)) & 0xff000000) ^
1000f85a:	f853 6026 	ldr.w	r6, [r3, r6, lsl #2]
1000f85e:	f006 467f 	and.w	r6, r6, #4278190080	@ 0xff000000
1000f862:	ea48 0806 	orr.w	r8, r8, r6
        (GetTable(Te[1], GETBYTE(t0, 0)) & 0x000000ff) ^
1000f866:	b2ce      	uxtb	r6, r1
1000f868:	f506 7680 	add.w	r6, r6, #256	@ 0x100
        (GetTable(Te[1], GETBYTE(t2, 0)) & 0x000000ff) ^
1000f86c:	f50a 7a80 	add.w	sl, sl, #256	@ 0x100
        (GetTable(Te[1], GETBYTE(t0, 0)) & 0x000000ff) ^
1000f870:	f813 7026 	ldrb.w	r7, [r3, r6, lsl #2]
        (GetTable(Te[3], GETBYTE(t2, 2)) & 0x00ff0000) ^
1000f874:	f3c4 4607 	ubfx	r6, r4, #16, #8
1000f878:	f506 7640 	add.w	r6, r6, #768	@ 0x300
        (GetTable(Te[0], GETBYTE(t2, 1)) & 0x0000ff00) ^
1000f87c:	f3c4 2407 	ubfx	r4, r4, #8, #8
        (GetTable(Te[3], GETBYTE(t2, 2)) & 0x00ff0000) ^
1000f880:	f853 6026 	ldr.w	r6, [r3, r6, lsl #2]
1000f884:	f406 0e7f 	and.w	lr, r6, #16711680	@ 0xff0000
        (GetTable(Te[2], GETBYTE(t1, 3)) & 0xff000000) ^
1000f888:	0e2e      	lsrs	r6, r5, #24
1000f88a:	f506 7600 	add.w	r6, r6, #512	@ 0x200
        (GetTable(Te[2], GETBYTE(t2, 3)) & 0xff000000) ^
1000f88e:	f009 497f 	and.w	r9, r9, #4278190080	@ 0xff000000
        (GetTable(Te[2], GETBYTE(t1, 3)) & 0xff000000) ^
1000f892:	f853 6026 	ldr.w	r6, [r3, r6, lsl #2]
1000f896:	f006 467f 	and.w	r6, r6, #4278190080	@ 0xff000000
1000f89a:	ea4e 0e06 	orr.w	lr, lr, r6
        (GetTable(Te[1], GETBYTE(t1, 0)) & 0x000000ff) ^
1000f89e:	b2ee      	uxtb	r6, r5
        (GetTable(Te[0], GETBYTE(t1, 1)) & 0x0000ff00) ^
1000f8a0:	f3c5 2507 	ubfx	r5, r5, #8, #8
        (GetTable(Te[2], GETBYTE(t3, 3)) & 0xff000000) ^
1000f8a4:	ea4f 6b12 	mov.w	fp, r2, lsr #24
        (GetTable(Te[0], GETBYTE(t1, 1)) & 0x0000ff00) ^
1000f8a8:	f853 5025 	ldr.w	r5, [r3, r5, lsl #2]
1000f8ac:	f405 457f 	and.w	r5, r5, #65280	@ 0xff00
1000f8b0:	9502      	str	r5, [sp, #8]
        (GetTable(Te[3], GETBYTE(t3, 2)) & 0x00ff0000) ^
1000f8b2:	f3c2 4507 	ubfx	r5, r2, #16, #8
1000f8b6:	f505 7540 	add.w	r5, r5, #768	@ 0x300
        (GetTable(Te[0], GETBYTE(t3, 1)) & 0x0000ff00) ^
1000f8ba:	f3c2 2207 	ubfx	r2, r2, #8, #8
        (GetTable(Te[3], GETBYTE(t3, 2)) & 0x00ff0000) ^
1000f8be:	f853 5025 	ldr.w	r5, [r3, r5, lsl #2]
        (GetTable(Te[0], GETBYTE(t3, 1)) & 0x0000ff00) ^
1000f8c2:	f853 2022 	ldr.w	r2, [r3, r2, lsl #2]
        (GetTable(Te[3], GETBYTE(t3, 2)) & 0x00ff0000) ^
1000f8c6:	f405 057f 	and.w	r5, r5, #16711680	@ 0xff0000
        (GetTable(Te[2], GETBYTE(t2, 3)) & 0xff000000) ^
1000f8ca:	ea45 0509 	orr.w	r5, r5, r9
        (GetTable(Te[0], GETBYTE(t2, 1)) & 0x0000ff00) ^
1000f8ce:	f853 9024 	ldr.w	r9, [r3, r4, lsl #2]
        (GetTable(Te[1], GETBYTE(t2, 0)) & 0x000000ff) ^
1000f8d2:	f813 402a 	ldrb.w	r4, [r3, sl, lsl #2]
        (GetTable(Te[3], GETBYTE(t0, 2)) & 0x00ff0000) ^
1000f8d6:	f3c1 4a07 	ubfx	sl, r1, #16, #8
        (GetTable(Te[2], GETBYTE(t3, 3)) & 0xff000000) ^
1000f8da:	f50b 7b00 	add.w	fp, fp, #512	@ 0x200
        (GetTable(Te[1], GETBYTE(t1, 0)) & 0x000000ff) ^
1000f8de:	f506 7680 	add.w	r6, r6, #256	@ 0x100
        (GetTable(Te[0], GETBYTE(t0, 1)) & 0x0000ff00) ^
1000f8e2:	f3c1 2107 	ubfx	r1, r1, #8, #8
        (GetTable(Te[3], GETBYTE(t0, 2)) & 0x00ff0000) ^
1000f8e6:	f50a 7a40 	add.w	sl, sl, #768	@ 0x300
        (GetTable(Te[1], GETBYTE(t1, 0)) & 0x000000ff) ^
1000f8ea:	f813 6026 	ldrb.w	r6, [r3, r6, lsl #2]
        (GetTable(Te[0], GETBYTE(t0, 1)) & 0x0000ff00) ^
1000f8ee:	f853 1021 	ldr.w	r1, [r3, r1, lsl #2]
        (GetTable(Te[3], GETBYTE(t0, 2)) & 0x00ff0000) ^
1000f8f2:	f853 a02a 	ldr.w	sl, [r3, sl, lsl #2]
        (GetTable(Te[2], GETBYTE(t3, 3)) & 0xff000000) ^
1000f8f6:	f853 302b 	ldr.w	r3, [r3, fp, lsl #2]
        (GetTable(Te[0], GETBYTE(t3, 1)) & 0x0000ff00) ^
1000f8fa:	f402 4b7f 	and.w	fp, r2, #65280	@ 0xff00
    rk += r * 8;
1000f8fe:	9a00      	ldr	r2, [sp, #0]
        (GetTable(Te[3], GETBYTE(t0, 2)) & 0x00ff0000) ^
1000f900:	f40a 0a7f 	and.w	sl, sl, #16711680	@ 0xff0000
        (GetTable(Te[2], GETBYTE(t3, 3)) & 0xff000000) ^
1000f904:	f003 437f 	and.w	r3, r3, #4278190080	@ 0xff000000
1000f908:	ea4a 0303 	orr.w	r3, sl, r3
    rk += r * 8;
1000f90c:	eb00 1a42 	add.w	sl, r0, r2, lsl #5
1000f910:	0152      	lsls	r2, r2, #5
        (GetTable(Te[0], GETBYTE(t0, 1)) & 0x0000ff00) ^
1000f912:	f401 417f 	and.w	r1, r1, #65280	@ 0xff00
        (GetTable(Te[1], GETBYTE(t3, 0)) & 0x000000ff) ^
1000f916:	5882      	ldr	r2, [r0, r2]
1000f918:	ea8c 0c02 	eor.w	ip, ip, r2
        (GetTable(Te[1], GETBYTE(t0, 0)) & 0x000000ff) ^
1000f91c:	f8da 2004 	ldr.w	r2, [sl, #4]
1000f920:	4057      	eors	r7, r2
        (GetTable(Te[1], GETBYTE(t1, 0)) & 0x000000ff) ^
1000f922:	f8da 2008 	ldr.w	r2, [sl, #8]
1000f926:	4056      	eors	r6, r2
1000f928:	404e      	eors	r6, r1
        (GetTable(Te[1], GETBYTE(t2, 0)) & 0x000000ff) ^
1000f92a:	f8da 200c 	ldr.w	r2, [sl, #12]
    s1 = ByteReverseWord32(s1);
    s2 = ByteReverseWord32(s2);
    s3 = ByteReverseWord32(s3);
#endif

    XMEMCPY(outBlock,                  &s0, sizeof(s0));
1000f92e:	9901      	ldr	r1, [sp, #4]
        (GetTable(Te[1], GETBYTE(t1, 0)) & 0x000000ff) ^
1000f930:	406e      	eors	r6, r5
        (GetTable(Te[1], GETBYTE(t2, 0)) & 0x000000ff) ^
1000f932:	9d02      	ldr	r5, [sp, #8]
        (GetTable(Te[0], GETBYTE(t2, 1)) & 0x0000ff00) ^
1000f934:	f409 497f 	and.w	r9, r9, #65280	@ 0xff00
        (GetTable(Te[1], GETBYTE(t2, 0)) & 0x000000ff) ^
1000f938:	4054      	eors	r4, r2
        (GetTable(Te[1], GETBYTE(t3, 0)) & 0x000000ff) ^
1000f93a:	ea8c 0c09 	eor.w	ip, ip, r9
        (GetTable(Te[1], GETBYTE(t0, 0)) & 0x000000ff) ^
1000f93e:	ea87 070b 	eor.w	r7, r7, fp
        (GetTable(Te[1], GETBYTE(t2, 0)) & 0x000000ff) ^
1000f942:	406c      	eors	r4, r5
        (GetTable(Te[1], GETBYTE(t3, 0)) & 0x000000ff) ^
1000f944:	ea8c 0c08 	eor.w	ip, ip, r8
        (GetTable(Te[1], GETBYTE(t0, 0)) & 0x000000ff) ^
1000f948:	ea87 070e 	eor.w	r7, r7, lr
        (GetTable(Te[1], GETBYTE(t2, 0)) & 0x000000ff) ^
1000f94c:	405c      	eors	r4, r3
1000f94e:	fa9c fc8c 	rev.w	ip, ip
    s1 = ByteReverseWord32(s1);
1000f952:	ba3f      	rev	r7, r7
    s2 = ByteReverseWord32(s2);
1000f954:	ba36      	rev	r6, r6
    s3 = ByteReverseWord32(s3);
1000f956:	ba24      	rev	r4, r4
    XMEMCPY(outBlock,                  &s0, sizeof(s0));
1000f958:	f8c1 c000 	str.w	ip, [r1]
    XMEMCPY(outBlock +     sizeof(s0), &s1, sizeof(s1));
1000f95c:	604f      	str	r7, [r1, #4]
    XMEMCPY(outBlock + 2 * sizeof(s0), &s2, sizeof(s2));
1000f95e:	608e      	str	r6, [r1, #8]
    XMEMCPY(outBlock + 3 * sizeof(s0), &s3, sizeof(s3));
1000f960:	60cc      	str	r4, [r1, #12]
}
1000f962:	b007      	add	sp, #28
1000f964:	e8bd 8ff0 	ldmia.w	sp!, {r4, r5, r6, r7, r8, r9, sl, fp, pc}

1000f968 <AesDecrypt_C>:
 * @param [out] outBlock  Encrypted block.
 * @param [in]  r         Rounds divided by 2.
 */
static void AesDecrypt_C(Aes* aes, const byte* inBlock, byte* outBlock,
    word32 r)
{
1000f968:	e92d 4ff0 	stmdb	sp!, {r4, r5, r6, r7, r8, r9, sl, fp, lr}
1000f96c:	b087      	sub	sp, #28
1000f96e:	680d      	ldr	r5, [r1, #0]
1000f970:	684c      	ldr	r4, [r1, #4]
1000f972:	f8d1 9008 	ldr.w	r9, [r1, #8]
1000f976:	68ce      	ldr	r6, [r1, #12]
1000f978:	e9cd 3200 	strd	r3, r2, [sp]
    s1 = ByteReverseWord32(s1);
    s2 = ByteReverseWord32(s2);
    s3 = ByteReverseWord32(s3);
#endif

    s0 ^= rk[0];
1000f97c:	6803      	ldr	r3, [r0, #0]
1000f97e:	ba2d      	rev	r5, r5
1000f980:	405d      	eors	r5, r3
    s1 ^= rk[1];
1000f982:	6843      	ldr	r3, [r0, #4]
1000f984:	ba24      	rev	r4, r4
1000f986:	405c      	eors	r4, r3
    s2 ^= rk[2];
1000f988:	6883      	ldr	r3, [r0, #8]
1000f98a:	fa99 f989 	rev.w	r9, r9
1000f98e:	ea89 0903 	eor.w	r9, r9, r3
    s3 ^= rk[3];
1000f992:	68c3      	ldr	r3, [r0, #12]
                          &s2, GETBYTE(t3, 0), &s3, GETBYTE(t0, 0));           \
    s0 ^= rk[(o)+0]; s1 ^= rk[(o)+1]; s2 ^= rk[(o)+2]; s3 ^= rk[(o)+3];
#endif

#ifndef WOLFSSL_AES_NO_UNROLL
                       DEC_ROUND_T_S( 0);
1000f994:	fa5f fc84 	uxtb.w	ip, r4
1000f998:	fa5f f789 	uxtb.w	r7, r9
1000f99c:	b2ea      	uxtb	r2, r5
1000f99e:	ba36      	rev	r6, r6
    s3 ^= rk[3];
1000f9a0:	405e      	eors	r6, r3
                       DEC_ROUND_T_S( 0);
1000f9a2:	f50c 7c40 	add.w	ip, ip, #768	@ 0x300
1000f9a6:	4be7      	ldr	r3, [pc, #924]	@ (1000fd44 <AesDecrypt_C+0x3dc>)
1000f9a8:	f507 7740 	add.w	r7, r7, #768	@ 0x300
1000f9ac:	f502 7240 	add.w	r2, r2, #768	@ 0x300
1000f9b0:	b2f1      	uxtb	r1, r6
1000f9b2:	f853 802c 	ldr.w	r8, [r3, ip, lsl #2]
1000f9b6:	f853 c027 	ldr.w	ip, [r3, r7, lsl #2]
1000f9ba:	f853 7022 	ldr.w	r7, [r3, r2, lsl #2]
1000f9be:	f501 7140 	add.w	r1, r1, #768	@ 0x300
1000f9c2:	0e2a      	lsrs	r2, r5, #24
1000f9c4:	f853 e021 	ldr.w	lr, [r3, r1, lsl #2]
1000f9c8:	f853 1022 	ldr.w	r1, [r3, r2, lsl #2]
1000f9cc:	0e22      	lsrs	r2, r4, #24
1000f9ce:	ea81 0108 	eor.w	r1, r1, r8
1000f9d2:	f853 2022 	ldr.w	r2, [r3, r2, lsl #2]
1000f9d6:	ea82 020c 	eor.w	r2, r2, ip
1000f9da:	ea4f 6c19 	mov.w	ip, r9, lsr #24
1000f9de:	f853 c02c 	ldr.w	ip, [r3, ip, lsl #2]
1000f9e2:	ea8c 0c0e 	eor.w	ip, ip, lr
1000f9e6:	ea4f 6e16 	mov.w	lr, r6, lsr #24
1000f9ea:	f853 b02e 	ldr.w	fp, [r3, lr, lsl #2]
1000f9ee:	ea8b 0b07 	eor.w	fp, fp, r7
1000f9f2:	f3c6 4707 	ubfx	r7, r6, #16, #8
1000f9f6:	f3c6 2607 	ubfx	r6, r6, #8, #8
1000f9fa:	f506 7600 	add.w	r6, r6, #512	@ 0x200
1000f9fe:	f507 7780 	add.w	r7, r7, #256	@ 0x100
1000fa02:	f853 e026 	ldr.w	lr, [r3, r6, lsl #2]
1000fa06:	f853 a027 	ldr.w	sl, [r3, r7, lsl #2]
1000fa0a:	f3c5 4607 	ubfx	r6, r5, #16, #8
1000fa0e:	f3c5 2507 	ubfx	r5, r5, #8, #8
1000fa12:	f506 7680 	add.w	r6, r6, #256	@ 0x100
1000fa16:	f505 7500 	add.w	r5, r5, #512	@ 0x200
1000fa1a:	f853 8026 	ldr.w	r8, [r3, r6, lsl #2]
1000fa1e:	f853 6025 	ldr.w	r6, [r3, r5, lsl #2]
1000fa22:	f3c4 4507 	ubfx	r5, r4, #16, #8
1000fa26:	f3c4 2407 	ubfx	r4, r4, #8, #8
1000fa2a:	f504 7400 	add.w	r4, r4, #512	@ 0x200
1000fa2e:	f505 7580 	add.w	r5, r5, #256	@ 0x100
1000fa32:	f853 4024 	ldr.w	r4, [r3, r4, lsl #2]
1000fa36:	9402      	str	r4, [sp, #8]
1000fa38:	6904      	ldr	r4, [r0, #16]
1000fa3a:	f853 7025 	ldr.w	r7, [r3, r5, lsl #2]
1000fa3e:	4061      	eors	r1, r4
1000fa40:	6944      	ldr	r4, [r0, #20]
1000fa42:	4062      	eors	r2, r4
1000fa44:	6984      	ldr	r4, [r0, #24]
1000fa46:	f3c9 4507 	ubfx	r5, r9, #16, #8
1000fa4a:	ea8c 0c04 	eor.w	ip, ip, r4
1000fa4e:	ea8c 0c07 	eor.w	ip, ip, r7
1000fa52:	f505 7580 	add.w	r5, r5, #256	@ 0x100
1000fa56:	ea8c 0c06 	eor.w	ip, ip, r6
1000fa5a:	f3c9 2907 	ubfx	r9, r9, #8, #8
1000fa5e:	69c6      	ldr	r6, [r0, #28]
1000fa60:	f853 5025 	ldr.w	r5, [r3, r5, lsl #2]
1000fa64:	ea82 0208 	eor.w	r2, r2, r8
1000fa68:	f509 7900 	add.w	r9, r9, #512	@ 0x200
1000fa6c:	ea82 020e 	eor.w	r2, r2, lr
1000fa70:	ea8b 0b06 	eor.w	fp, fp, r6
1000fa74:	f853 9029 	ldr.w	r9, [r3, r9, lsl #2]
1000fa78:	9c02      	ldr	r4, [sp, #8]
1000fa7a:	ea8b 0b05 	eor.w	fp, fp, r5
    DEC_ROUND_S_T( 8); DEC_ROUND_T_S( 8);
1000fa7e:	b2d5      	uxtb	r5, r2
1000fa80:	f505 7540 	add.w	r5, r5, #768	@ 0x300
                       DEC_ROUND_T_S( 0);
1000fa84:	ea8b 0404 	eor.w	r4, fp, r4
    DEC_ROUND_S_T( 8); DEC_ROUND_T_S( 8);
1000fa88:	f853 6025 	ldr.w	r6, [r3, r5, lsl #2]
1000fa8c:	f3c4 4507 	ubfx	r5, r4, #16, #8
1000fa90:	f505 7580 	add.w	r5, r5, #256	@ 0x100
                       DEC_ROUND_T_S( 0);
1000fa94:	ea81 010a 	eor.w	r1, r1, sl
    DEC_ROUND_S_T( 8); DEC_ROUND_T_S( 8);
1000fa98:	f853 7025 	ldr.w	r7, [r3, r5, lsl #2]
1000fa9c:	9702      	str	r7, [sp, #8]
1000fa9e:	fa5f f58c 	uxtb.w	r5, ip
1000faa2:	f505 7b40 	add.w	fp, r5, #768	@ 0x300
1000faa6:	b2e5      	uxtb	r5, r4
                       DEC_ROUND_T_S( 0);
1000faa8:	ea81 0109 	eor.w	r1, r1, r9
    DEC_ROUND_S_T( 8); DEC_ROUND_T_S( 8);
1000faac:	f505 7540 	add.w	r5, r5, #768	@ 0x300
1000fab0:	9503      	str	r5, [sp, #12]
1000fab2:	b2cd      	uxtb	r5, r1
1000fab4:	f505 7940 	add.w	r9, r5, #768	@ 0x300
1000fab8:	0e0d      	lsrs	r5, r1, #24
1000faba:	ea4f 6812 	mov.w	r8, r2, lsr #24
1000fabe:	f3c2 4a07 	ubfx	sl, r2, #16, #8
1000fac2:	f3c2 2207 	ubfx	r2, r2, #8, #8
1000fac6:	f853 5025 	ldr.w	r5, [r3, r5, lsl #2]
1000faca:	f502 7200 	add.w	r2, r2, #512	@ 0x200
1000face:	9205      	str	r2, [sp, #20]
1000fad0:	f3cc 2707 	ubfx	r7, ip, #8, #8
1000fad4:	6a02      	ldr	r2, [r0, #32]
1000fad6:	4075      	eors	r5, r6
1000fad8:	f507 7700 	add.w	r7, r7, #512	@ 0x200
1000fadc:	4055      	eors	r5, r2
1000fade:	9a02      	ldr	r2, [sp, #8]
1000fae0:	f853 7027 	ldr.w	r7, [r3, r7, lsl #2]
1000fae4:	4055      	eors	r5, r2
1000fae6:	406f      	eors	r7, r5
1000fae8:	9a03      	ldr	r2, [sp, #12]
1000faea:	f853 5028 	ldr.w	r5, [r3, r8, lsl #2]
1000faee:	f853 802b 	ldr.w	r8, [r3, fp, lsl #2]
1000faf2:	ea4f 6e1c 	mov.w	lr, ip, lsr #24
1000faf6:	f3cc 4c07 	ubfx	ip, ip, #16, #8
1000fafa:	f50c 7680 	add.w	r6, ip, #256	@ 0x100
1000fafe:	f853 e02e 	ldr.w	lr, [r3, lr, lsl #2]
1000fb02:	9604      	str	r6, [sp, #16]
1000fb04:	ea4f 6c14 	mov.w	ip, r4, lsr #24
1000fb08:	ea85 0508 	eor.w	r5, r5, r8
1000fb0c:	f853 8022 	ldr.w	r8, [r3, r2, lsl #2]
1000fb10:	9a05      	ldr	r2, [sp, #20]
1000fb12:	f853 c02c 	ldr.w	ip, [r3, ip, lsl #2]
1000fb16:	f3c1 4607 	ubfx	r6, r1, #16, #8
1000fb1a:	f50a 7a80 	add.w	sl, sl, #256	@ 0x100
1000fb1e:	f506 7680 	add.w	r6, r6, #256	@ 0x100
1000fb22:	ea8e 0e08 	eor.w	lr, lr, r8
1000fb26:	f3c4 2407 	ubfx	r4, r4, #8, #8
1000fb2a:	f853 8029 	ldr.w	r8, [r3, r9, lsl #2]
1000fb2e:	f853 902a 	ldr.w	r9, [r3, sl, lsl #2]
1000fb32:	f853 a022 	ldr.w	sl, [r3, r2, lsl #2]
1000fb36:	6a42      	ldr	r2, [r0, #36]	@ 0x24
1000fb38:	f504 7400 	add.w	r4, r4, #512	@ 0x200
1000fb3c:	ea8c 0c08 	eor.w	ip, ip, r8
1000fb40:	f853 8026 	ldr.w	r8, [r3, r6, lsl #2]
1000fb44:	f853 4024 	ldr.w	r4, [r3, r4, lsl #2]
1000fb48:	9e04      	ldr	r6, [sp, #16]
1000fb4a:	4055      	eors	r5, r2
1000fb4c:	ea85 0508 	eor.w	r5, r5, r8
1000fb50:	f3c1 2107 	ubfx	r1, r1, #8, #8
1000fb54:	4065      	eors	r5, r4
1000fb56:	f501 7100 	add.w	r1, r1, #512	@ 0x200
1000fb5a:	6a84      	ldr	r4, [r0, #40]	@ 0x28
1000fb5c:	f853 1021 	ldr.w	r1, [r3, r1, lsl #2]
1000fb60:	f853 6026 	ldr.w	r6, [r3, r6, lsl #2]
1000fb64:	ea8e 0e04 	eor.w	lr, lr, r4
1000fb68:	ea8e 0e09 	eor.w	lr, lr, r9
1000fb6c:	ea8e 0e01 	eor.w	lr, lr, r1
1000fb70:	6ac1      	ldr	r1, [r0, #44]	@ 0x2c
1000fb72:	b2ea      	uxtb	r2, r5
1000fb74:	ea8c 0c01 	eor.w	ip, ip, r1
1000fb78:	ea8c 0c06 	eor.w	ip, ip, r6
1000fb7c:	f502 7240 	add.w	r2, r2, #768	@ 0x300
1000fb80:	ea8c 0c0a 	eor.w	ip, ip, sl
1000fb84:	f853 a022 	ldr.w	sl, [r3, r2, lsl #2]
1000fb88:	f3cc 4207 	ubfx	r2, ip, #16, #8
1000fb8c:	f502 7280 	add.w	r2, r2, #256	@ 0x100
1000fb90:	f3c7 4107 	ubfx	r1, r7, #16, #8
1000fb94:	f853 2022 	ldr.w	r2, [r3, r2, lsl #2]
1000fb98:	9202      	str	r2, [sp, #8]
1000fb9a:	f3ce 2207 	ubfx	r2, lr, #8, #8
1000fb9e:	f502 7200 	add.w	r2, r2, #512	@ 0x200
1000fba2:	f501 7180 	add.w	r1, r1, #256	@ 0x100
1000fba6:	f853 6022 	ldr.w	r6, [r3, r2, lsl #2]
1000fbaa:	f853 1021 	ldr.w	r1, [r3, r1, lsl #2]
1000fbae:	9103      	str	r1, [sp, #12]
1000fbb0:	f3cc 2107 	ubfx	r1, ip, #8, #8
1000fbb4:	f501 7100 	add.w	r1, r1, #512	@ 0x200
1000fbb8:	fa5f f28e 	uxtb.w	r2, lr
1000fbbc:	f853 1021 	ldr.w	r1, [r3, r1, lsl #2]
1000fbc0:	9104      	str	r1, [sp, #16]
1000fbc2:	fa5f f18c 	uxtb.w	r1, ip
1000fbc6:	f501 7140 	add.w	r1, r1, #768	@ 0x300
1000fbca:	ea4f 6c1c 	mov.w	ip, ip, lsr #24
1000fbce:	f853 4021 	ldr.w	r4, [r3, r1, lsl #2]
1000fbd2:	f853 b02c 	ldr.w	fp, [r3, ip, lsl #2]
1000fbd6:	f3c5 4107 	ubfx	r1, r5, #16, #8
1000fbda:	f501 7180 	add.w	r1, r1, #256	@ 0x100
1000fbde:	f502 7240 	add.w	r2, r2, #768	@ 0x300
1000fbe2:	f853 8021 	ldr.w	r8, [r3, r1, lsl #2]
1000fbe6:	f853 2022 	ldr.w	r2, [r3, r2, lsl #2]
1000fbea:	f3c7 2107 	ubfx	r1, r7, #8, #8
1000fbee:	f501 7100 	add.w	r1, r1, #512	@ 0x200
1000fbf2:	f853 c021 	ldr.w	ip, [r3, r1, lsl #2]
1000fbf6:	b2f9      	uxtb	r1, r7
1000fbf8:	0e3f      	lsrs	r7, r7, #24
1000fbfa:	f501 7140 	add.w	r1, r1, #768	@ 0x300
1000fbfe:	f853 7027 	ldr.w	r7, [r3, r7, lsl #2]
1000fc02:	f853 1021 	ldr.w	r1, [r3, r1, lsl #2]
1000fc06:	ea87 0a0a 	eor.w	sl, r7, sl
1000fc0a:	0e2f      	lsrs	r7, r5, #24
1000fc0c:	f3c5 2507 	ubfx	r5, r5, #8, #8
1000fc10:	f853 7027 	ldr.w	r7, [r3, r7, lsl #2]
1000fc14:	ea87 0902 	eor.w	r9, r7, r2
1000fc18:	f505 7200 	add.w	r2, r5, #512	@ 0x200
1000fc1c:	ea4f 651e 	mov.w	r5, lr, lsr #24
1000fc20:	ea8b 0b01 	eor.w	fp, fp, r1
1000fc24:	f853 7025 	ldr.w	r7, [r3, r5, lsl #2]
1000fc28:	f853 1022 	ldr.w	r1, [r3, r2, lsl #2]
1000fc2c:	6bc2      	ldr	r2, [r0, #60]	@ 0x3c
1000fc2e:	4067      	eors	r7, r4
1000fc30:	6b04      	ldr	r4, [r0, #48]	@ 0x30
1000fc32:	ea8a 0a04 	eor.w	sl, sl, r4
1000fc36:	9c02      	ldr	r4, [sp, #8]
1000fc38:	ea8a 0a04 	eor.w	sl, sl, r4
1000fc3c:	6b44      	ldr	r4, [r0, #52]	@ 0x34
1000fc3e:	ea89 0904 	eor.w	r9, r9, r4
1000fc42:	9c03      	ldr	r4, [sp, #12]
1000fc44:	ea89 0904 	eor.w	r9, r9, r4
1000fc48:	9c04      	ldr	r4, [sp, #16]
1000fc4a:	f3ce 4e07 	ubfx	lr, lr, #16, #8
1000fc4e:	ea89 0504 	eor.w	r5, r9, r4
1000fc52:	6b84      	ldr	r4, [r0, #56]	@ 0x38
1000fc54:	f50e 7e80 	add.w	lr, lr, #256	@ 0x100
1000fc58:	4067      	eors	r7, r4
1000fc5a:	ea8b 0b02 	eor.w	fp, fp, r2
    DEC_ROUND_S_T(16); DEC_ROUND_T_S(16);
1000fc5e:	b2ea      	uxtb	r2, r5
    DEC_ROUND_S_T( 8); DEC_ROUND_T_S( 8);
1000fc60:	f853 402e 	ldr.w	r4, [r3, lr, lsl #2]
1000fc64:	ea87 0708 	eor.w	r7, r7, r8
    DEC_ROUND_S_T(16); DEC_ROUND_T_S(16);
1000fc68:	f502 7240 	add.w	r2, r2, #768	@ 0x300
    DEC_ROUND_S_T( 8); DEC_ROUND_T_S( 8);
1000fc6c:	ea87 070c 	eor.w	r7, r7, ip
1000fc70:	ea8b 0b04 	eor.w	fp, fp, r4
    DEC_ROUND_S_T(16); DEC_ROUND_T_S(16);
1000fc74:	f853 4022 	ldr.w	r4, [r3, r2, lsl #2]
1000fc78:	b2fa      	uxtb	r2, r7
1000fc7a:	f502 7240 	add.w	r2, r2, #768	@ 0x300
    DEC_ROUND_S_T( 8); DEC_ROUND_T_S( 8);
1000fc7e:	ea8b 0b01 	eor.w	fp, fp, r1
    DEC_ROUND_S_T(16); DEC_ROUND_T_S(16);
1000fc82:	f853 e022 	ldr.w	lr, [r3, r2, lsl #2]
1000fc86:	fa5f f28b 	uxtb.w	r2, fp
1000fc8a:	f502 7240 	add.w	r2, r2, #768	@ 0x300
    DEC_ROUND_S_T( 8); DEC_ROUND_T_S( 8);
1000fc8e:	ea8a 0606 	eor.w	r6, sl, r6
    DEC_ROUND_S_T(16); DEC_ROUND_T_S(16);
1000fc92:	f853 1022 	ldr.w	r1, [r3, r2, lsl #2]
1000fc96:	b2f2      	uxtb	r2, r6
1000fc98:	f502 7240 	add.w	r2, r2, #768	@ 0x300
1000fc9c:	f853 8022 	ldr.w	r8, [r3, r2, lsl #2]
1000fca0:	0e32      	lsrs	r2, r6, #24
1000fca2:	f853 2022 	ldr.w	r2, [r3, r2, lsl #2]
1000fca6:	4054      	eors	r4, r2
1000fca8:	0e2a      	lsrs	r2, r5, #24
1000fcaa:	f853 2022 	ldr.w	r2, [r3, r2, lsl #2]
1000fcae:	ea82 020e 	eor.w	r2, r2, lr
1000fcb2:	ea4f 6e17 	mov.w	lr, r7, lsr #24
1000fcb6:	9202      	str	r2, [sp, #8]
1000fcb8:	f853 e02e 	ldr.w	lr, [r3, lr, lsl #2]
1000fcbc:	ea8e 0101 	eor.w	r1, lr, r1
1000fcc0:	ea4f 6e1b 	mov.w	lr, fp, lsr #24
1000fcc4:	f853 e02e 	ldr.w	lr, [r3, lr, lsl #2]
1000fcc8:	ea8e 0808 	eor.w	r8, lr, r8
1000fccc:	f3cb 4e07 	ubfx	lr, fp, #16, #8
1000fcd0:	f3cb 2b07 	ubfx	fp, fp, #8, #8
1000fcd4:	f50b 7c00 	add.w	ip, fp, #512	@ 0x200
1000fcd8:	f50e 7e80 	add.w	lr, lr, #256	@ 0x100
1000fcdc:	f853 b02e 	ldr.w	fp, [r3, lr, lsl #2]
1000fce0:	f853 202c 	ldr.w	r2, [r3, ip, lsl #2]
1000fce4:	9203      	str	r2, [sp, #12]
1000fce6:	f3c6 4c07 	ubfx	ip, r6, #16, #8
1000fcea:	f3c6 2607 	ubfx	r6, r6, #8, #8
1000fcee:	f50c 7c80 	add.w	ip, ip, #256	@ 0x100
1000fcf2:	f506 7600 	add.w	r6, r6, #512	@ 0x200
1000fcf6:	f853 902c 	ldr.w	r9, [r3, ip, lsl #2]
1000fcfa:	f853 c026 	ldr.w	ip, [r3, r6, lsl #2]
1000fcfe:	6c02      	ldr	r2, [r0, #64]	@ 0x40
1000fd00:	f3c5 4607 	ubfx	r6, r5, #16, #8
1000fd04:	f506 7680 	add.w	r6, r6, #256	@ 0x100
1000fd08:	4054      	eors	r4, r2
1000fd0a:	f853 e026 	ldr.w	lr, [r3, r6, lsl #2]
1000fd0e:	9a02      	ldr	r2, [sp, #8]
1000fd10:	f3c7 4607 	ubfx	r6, r7, #16, #8
1000fd14:	f3c7 2707 	ubfx	r7, r7, #8, #8
1000fd18:	f507 7700 	add.w	r7, r7, #512	@ 0x200
1000fd1c:	ea84 040b 	eor.w	r4, r4, fp
1000fd20:	f853 7027 	ldr.w	r7, [r3, r7, lsl #2]
1000fd24:	ea84 0a07 	eor.w	sl, r4, r7
1000fd28:	6c47      	ldr	r7, [r0, #68]	@ 0x44
1000fd2a:	9c03      	ldr	r4, [sp, #12]
1000fd2c:	407a      	eors	r2, r7
1000fd2e:	6c87      	ldr	r7, [r0, #72]	@ 0x48
1000fd30:	ea82 0209 	eor.w	r2, r2, r9
1000fd34:	f3c5 2507 	ubfx	r5, r5, #8, #8
1000fd38:	f506 7680 	add.w	r6, r6, #256	@ 0x100
1000fd3c:	4062      	eors	r2, r4
1000fd3e:	f505 7500 	add.w	r5, r5, #512	@ 0x200
1000fd42:	e001      	b.n	1000fd48 <AesDecrypt_C+0x3e0>
1000fd44:	1001b720 	.word	0x1001b720
1000fd48:	ea81 0407 	eor.w	r4, r1, r7
1000fd4c:	6cc7      	ldr	r7, [r0, #76]	@ 0x4c
1000fd4e:	f853 6026 	ldr.w	r6, [r3, r6, lsl #2]
1000fd52:	f853 5025 	ldr.w	r5, [r3, r5, lsl #2]
1000fd56:	ea88 0107 	eor.w	r1, r8, r7
1000fd5a:	4071      	eors	r1, r6
1000fd5c:	4069      	eors	r1, r5
1000fd5e:	b2d5      	uxtb	r5, r2
1000fd60:	ea84 040e 	eor.w	r4, r4, lr
1000fd64:	f505 7540 	add.w	r5, r5, #768	@ 0x300
1000fd68:	ea84 040c 	eor.w	r4, r4, ip
1000fd6c:	f3ca 4c07 	ubfx	ip, sl, #16, #8
1000fd70:	f853 e025 	ldr.w	lr, [r3, r5, lsl #2]
1000fd74:	f50c 7580 	add.w	r5, ip, #256	@ 0x100
1000fd78:	fa5f fc81 	uxtb.w	ip, r1
1000fd7c:	b2e7      	uxtb	r7, r4
1000fd7e:	f50c 7c40 	add.w	ip, ip, #768	@ 0x300
1000fd82:	9503      	str	r5, [sp, #12]
1000fd84:	f8cd c010 	str.w	ip, [sp, #16]
1000fd88:	0e15      	lsrs	r5, r2, #24
1000fd8a:	fa5f fc8a 	uxtb.w	ip, sl
1000fd8e:	f507 7740 	add.w	r7, r7, #768	@ 0x300
1000fd92:	f50c 7940 	add.w	r9, ip, #768	@ 0x300
1000fd96:	f3c1 4607 	ubfx	r6, r1, #16, #8
1000fd9a:	ea4f 6c1a 	mov.w	ip, sl, lsr #24
1000fd9e:	f853 7027 	ldr.w	r7, [r3, r7, lsl #2]
1000fda2:	f853 5025 	ldr.w	r5, [r3, r5, lsl #2]
1000fda6:	f853 b02c 	ldr.w	fp, [r3, ip, lsl #2]
1000fdaa:	f506 7680 	add.w	r6, r6, #256	@ 0x100
1000fdae:	407d      	eors	r5, r7
1000fdb0:	f853 6026 	ldr.w	r6, [r3, r6, lsl #2]
1000fdb4:	6d07      	ldr	r7, [r0, #80]	@ 0x50
1000fdb6:	9602      	str	r6, [sp, #8]
1000fdb8:	ea8b 0b0e 	eor.w	fp, fp, lr
1000fdbc:	ea8b 0b07 	eor.w	fp, fp, r7
1000fdc0:	9f02      	ldr	r7, [sp, #8]
1000fdc2:	ea8b 0b07 	eor.w	fp, fp, r7
1000fdc6:	6d47      	ldr	r7, [r0, #84]	@ 0x54
1000fdc8:	f3c2 4c07 	ubfx	ip, r2, #16, #8
1000fdcc:	407d      	eors	r5, r7
1000fdce:	f3c2 2207 	ubfx	r2, r2, #8, #8
1000fdd2:	9f03      	ldr	r7, [sp, #12]
1000fdd4:	f3c4 2607 	ubfx	r6, r4, #8, #8
1000fdd8:	ea4f 6e11 	mov.w	lr, r1, lsr #24
1000fddc:	f502 7200 	add.w	r2, r2, #512	@ 0x200
1000fde0:	f3c1 2107 	ubfx	r1, r1, #8, #8
1000fde4:	f853 7027 	ldr.w	r7, [r3, r7, lsl #2]
1000fde8:	9205      	str	r2, [sp, #20]
1000fdea:	ea4f 6814 	mov.w	r8, r4, lsr #24
1000fdee:	9a04      	ldr	r2, [sp, #16]
1000fdf0:	f506 7600 	add.w	r6, r6, #512	@ 0x200
1000fdf4:	f501 7100 	add.w	r1, r1, #512	@ 0x200
1000fdf8:	f853 6026 	ldr.w	r6, [r3, r6, lsl #2]
1000fdfc:	407d      	eors	r5, r7
1000fdfe:	f853 7028 	ldr.w	r7, [r3, r8, lsl #2]
1000fe02:	f853 8022 	ldr.w	r8, [r3, r2, lsl #2]
1000fe06:	f853 1021 	ldr.w	r1, [r3, r1, lsl #2]
1000fe0a:	9a05      	ldr	r2, [sp, #20]
1000fe0c:	f853 e02e 	ldr.w	lr, [r3, lr, lsl #2]
1000fe10:	404d      	eors	r5, r1
1000fe12:	f50c 7c80 	add.w	ip, ip, #256	@ 0x100
1000fe16:	f853 1022 	ldr.w	r1, [r3, r2, lsl #2]
1000fe1a:	6d82      	ldr	r2, [r0, #88]	@ 0x58
1000fe1c:	f853 c02c 	ldr.w	ip, [r3, ip, lsl #2]
1000fe20:	ea87 0708 	eor.w	r7, r7, r8
1000fe24:	f3ca 2a07 	ubfx	sl, sl, #8, #8
1000fe28:	f853 8029 	ldr.w	r8, [r3, r9, lsl #2]
1000fe2c:	f50a 7a00 	add.w	sl, sl, #512	@ 0x200
1000fe30:	4057      	eors	r7, r2
1000fe32:	f3c4 4407 	ubfx	r4, r4, #16, #8
1000fe36:	6dc2      	ldr	r2, [r0, #92]	@ 0x5c
1000fe38:	ea8e 0e08 	eor.w	lr, lr, r8
1000fe3c:	f504 7480 	add.w	r4, r4, #256	@ 0x100
1000fe40:	f853 802a 	ldr.w	r8, [r3, sl, lsl #2]
1000fe44:	f853 4024 	ldr.w	r4, [r3, r4, lsl #2]
1000fe48:	ea87 070c 	eor.w	r7, r7, ip
1000fe4c:	ea8e 0c02 	eor.w	ip, lr, r2
    DEC_ROUND_S_T(24); DEC_ROUND_T_S(24);
1000fe50:	b2ea      	uxtb	r2, r5
1000fe52:	f502 7240 	add.w	r2, r2, #768	@ 0x300
    DEC_ROUND_S_T(16); DEC_ROUND_T_S(16);
1000fe56:	ea87 0708 	eor.w	r7, r7, r8
1000fe5a:	ea8c 0c04 	eor.w	ip, ip, r4
    DEC_ROUND_S_T(24); DEC_ROUND_T_S(24);
1000fe5e:	f853 4022 	ldr.w	r4, [r3, r2, lsl #2]
1000fe62:	b2fa      	uxtb	r2, r7
1000fe64:	f502 7240 	add.w	r2, r2, #768	@ 0x300
    DEC_ROUND_S_T(16); DEC_ROUND_T_S(16);
1000fe68:	ea8c 0c01 	eor.w	ip, ip, r1
    DEC_ROUND_S_T(24); DEC_ROUND_T_S(24);
1000fe6c:	f853 1022 	ldr.w	r1, [r3, r2, lsl #2]
1000fe70:	fa5f f28c 	uxtb.w	r2, ip
1000fe74:	f502 7240 	add.w	r2, r2, #768	@ 0x300
    DEC_ROUND_S_T(16); DEC_ROUND_T_S(16);
1000fe78:	ea8b 0606 	eor.w	r6, fp, r6
    DEC_ROUND_S_T(24); DEC_ROUND_T_S(24);
1000fe7c:	f853 8022 	ldr.w	r8, [r3, r2, lsl #2]
1000fe80:	b2f2      	uxtb	r2, r6
1000fe82:	f502 7240 	add.w	r2, r2, #768	@ 0x300
1000fe86:	f853 e022 	ldr.w	lr, [r3, r2, lsl #2]
1000fe8a:	0e32      	lsrs	r2, r6, #24
1000fe8c:	f853 2022 	ldr.w	r2, [r3, r2, lsl #2]
1000fe90:	4054      	eors	r4, r2
1000fe92:	0e2a      	lsrs	r2, r5, #24
1000fe94:	f853 2022 	ldr.w	r2, [r3, r2, lsl #2]
1000fe98:	4051      	eors	r1, r2
1000fe9a:	0e3a      	lsrs	r2, r7, #24
1000fe9c:	f853 2022 	ldr.w	r2, [r3, r2, lsl #2]
1000fea0:	ea82 0208 	eor.w	r2, r2, r8
1000fea4:	ea4f 681c 	mov.w	r8, ip, lsr #24
1000fea8:	9202      	str	r2, [sp, #8]
1000feaa:	f853 8028 	ldr.w	r8, [r3, r8, lsl #2]
1000feae:	6e02      	ldr	r2, [r0, #96]	@ 0x60
1000feb0:	ea88 0e0e 	eor.w	lr, r8, lr
1000feb4:	f3cc 4807 	ubfx	r8, ip, #16, #8
1000feb8:	f3cc 2c07 	ubfx	ip, ip, #8, #8
1000febc:	f508 7880 	add.w	r8, r8, #256	@ 0x100
1000fec0:	f50c 7c00 	add.w	ip, ip, #512	@ 0x200
1000fec4:	f853 b028 	ldr.w	fp, [r3, r8, lsl #2]
1000fec8:	f853 802c 	ldr.w	r8, [r3, ip, lsl #2]
1000fecc:	f3c6 4c07 	ubfx	ip, r6, #16, #8
1000fed0:	f3c6 2607 	ubfx	r6, r6, #8, #8
1000fed4:	f50c 7c80 	add.w	ip, ip, #256	@ 0x100
1000fed8:	f506 7600 	add.w	r6, r6, #512	@ 0x200
1000fedc:	f853 902c 	ldr.w	r9, [r3, ip, lsl #2]
1000fee0:	f853 c026 	ldr.w	ip, [r3, r6, lsl #2]
1000fee4:	f3c5 4607 	ubfx	r6, r5, #16, #8
1000fee8:	f506 7680 	add.w	r6, r6, #256	@ 0x100
1000feec:	4054      	eors	r4, r2
1000feee:	f853 a026 	ldr.w	sl, [r3, r6, lsl #2]
1000fef2:	9a02      	ldr	r2, [sp, #8]
1000fef4:	f3c7 4607 	ubfx	r6, r7, #16, #8
1000fef8:	f3c7 2707 	ubfx	r7, r7, #8, #8
1000fefc:	f507 7700 	add.w	r7, r7, #512	@ 0x200
1000ff00:	ea84 040b 	eor.w	r4, r4, fp
1000ff04:	f853 7027 	ldr.w	r7, [r3, r7, lsl #2]
1000ff08:	407c      	eors	r4, r7
1000ff0a:	6e47      	ldr	r7, [r0, #100]	@ 0x64
1000ff0c:	f3c5 2507 	ubfx	r5, r5, #8, #8
1000ff10:	4079      	eors	r1, r7
1000ff12:	f505 7500 	add.w	r5, r5, #512	@ 0x200
1000ff16:	6e87      	ldr	r7, [r0, #104]	@ 0x68
1000ff18:	f853 5025 	ldr.w	r5, [r3, r5, lsl #2]
1000ff1c:	f506 7680 	add.w	r6, r6, #256	@ 0x100
1000ff20:	407a      	eors	r2, r7
1000ff22:	f853 6026 	ldr.w	r6, [r3, r6, lsl #2]
1000ff26:	6ec7      	ldr	r7, [r0, #108]	@ 0x6c
1000ff28:	ea82 020a 	eor.w	r2, r2, sl
1000ff2c:	ea82 020c 	eor.w	r2, r2, ip
1000ff30:	ea81 0109 	eor.w	r1, r1, r9
1000ff34:	ea8e 0c07 	eor.w	ip, lr, r7
1000ff38:	ea81 0108 	eor.w	r1, r1, r8
1000ff3c:	ea8c 0c06 	eor.w	ip, ip, r6
1000ff40:	ea8c 0c05 	eor.w	ip, ip, r5
1000ff44:	fa5f f881 	uxtb.w	r8, r1
1000ff48:	fa5f fe82 	uxtb.w	lr, r2
1000ff4c:	b2e5      	uxtb	r5, r4
1000ff4e:	0e26      	lsrs	r6, r4, #24
1000ff50:	f508 7840 	add.w	r8, r8, #768	@ 0x300
1000ff54:	f50e 7e40 	add.w	lr, lr, #768	@ 0x300
1000ff58:	f505 7540 	add.w	r5, r5, #768	@ 0x300
1000ff5c:	f853 9026 	ldr.w	r9, [r3, r6, lsl #2]
1000ff60:	f853 6028 	ldr.w	r6, [r3, r8, lsl #2]
1000ff64:	f853 802e 	ldr.w	r8, [r3, lr, lsl #2]
1000ff68:	f853 e025 	ldr.w	lr, [r3, r5, lsl #2]
1000ff6c:	0e0d      	lsrs	r5, r1, #24
1000ff6e:	fa5f f78c 	uxtb.w	r7, ip
1000ff72:	f853 5025 	ldr.w	r5, [r3, r5, lsl #2]
1000ff76:	f507 7740 	add.w	r7, r7, #768	@ 0x300
1000ff7a:	ea85 0508 	eor.w	r5, r5, r8
1000ff7e:	ea4f 6812 	mov.w	r8, r2, lsr #24
1000ff82:	f853 7027 	ldr.w	r7, [r3, r7, lsl #2]
1000ff86:	f853 8028 	ldr.w	r8, [r3, r8, lsl #2]
1000ff8a:	ea88 0707 	eor.w	r7, r8, r7
1000ff8e:	ea4f 681c 	mov.w	r8, ip, lsr #24
1000ff92:	f3c2 4a07 	ubfx	sl, r2, #16, #8
1000ff96:	f853 8028 	ldr.w	r8, [r3, r8, lsl #2]
1000ff9a:	f3c2 2207 	ubfx	r2, r2, #8, #8
1000ff9e:	f502 7200 	add.w	r2, r2, #512	@ 0x200
1000ffa2:	ea88 080e 	eor.w	r8, r8, lr
1000ffa6:	f3cc 4e07 	ubfx	lr, ip, #16, #8
1000ffaa:	f853 2022 	ldr.w	r2, [r3, r2, lsl #2]
1000ffae:	9202      	str	r2, [sp, #8]
1000ffb0:	f50e 7e80 	add.w	lr, lr, #256	@ 0x100
1000ffb4:	6f02      	ldr	r2, [r0, #112]	@ 0x70
1000ffb6:	f853 b02e 	ldr.w	fp, [r3, lr, lsl #2]
1000ffba:	ea89 0606 	eor.w	r6, r9, r6
1000ffbe:	4056      	eors	r6, r2
1000ffc0:	9a02      	ldr	r2, [sp, #8]
1000ffc2:	f3c4 4e07 	ubfx	lr, r4, #16, #8
1000ffc6:	ea86 060b 	eor.w	r6, r6, fp
1000ffca:	4056      	eors	r6, r2
1000ffcc:	f3cc 2c07 	ubfx	ip, ip, #8, #8
1000ffd0:	6f42      	ldr	r2, [r0, #116]	@ 0x74
1000ffd2:	f50e 7e80 	add.w	lr, lr, #256	@ 0x100
1000ffd6:	f50c 7c00 	add.w	ip, ip, #512	@ 0x200
1000ffda:	f853 e02e 	ldr.w	lr, [r3, lr, lsl #2]
1000ffde:	f853 c02c 	ldr.w	ip, [r3, ip, lsl #2]
1000ffe2:	4055      	eors	r5, r2
1000ffe4:	6f82      	ldr	r2, [r0, #120]	@ 0x78
1000ffe6:	f3c1 4907 	ubfx	r9, r1, #16, #8
1000ffea:	f50a 7a80 	add.w	sl, sl, #256	@ 0x100
1000ffee:	f3c1 2107 	ubfx	r1, r1, #8, #8
1000fff2:	ea85 050e 	eor.w	r5, r5, lr
1000fff6:	4057      	eors	r7, r2
1000fff8:	f501 7100 	add.w	r1, r1, #512	@ 0x200
1000fffc:	6fc2      	ldr	r2, [r0, #124]	@ 0x7c
1000fffe:	f853 a02a 	ldr.w	sl, [r3, sl, lsl #2]
10010002:	f853 1021 	ldr.w	r1, [r3, r1, lsl #2]
10010006:	ea85 0c0c 	eor.w	ip, r5, ip
1001000a:	f509 7980 	add.w	r9, r9, #256	@ 0x100
1001000e:	ea88 0e02 	eor.w	lr, r8, r2
    DEC_ROUND_S_T(32); DEC_ROUND_T_S(32);
10010012:	fa5f f28c 	uxtb.w	r2, ip
    DEC_ROUND_S_T(24); DEC_ROUND_T_S(24);
10010016:	f853 9029 	ldr.w	r9, [r3, r9, lsl #2]
1001001a:	ea8e 0e0a 	eor.w	lr, lr, sl
    DEC_ROUND_S_T(32); DEC_ROUND_T_S(32);
1001001e:	f502 7240 	add.w	r2, r2, #768	@ 0x300
    DEC_ROUND_S_T(24); DEC_ROUND_T_S(24);
10010022:	f3c4 2407 	ubfx	r4, r4, #8, #8
10010026:	ea8e 0e01 	eor.w	lr, lr, r1
1001002a:	f504 7400 	add.w	r4, r4, #512	@ 0x200
1001002e:	ea87 0709 	eor.w	r7, r7, r9
    DEC_ROUND_S_T(32); DEC_ROUND_T_S(32);
10010032:	f853 9022 	ldr.w	r9, [r3, r2, lsl #2]
    DEC_ROUND_S_T(24); DEC_ROUND_T_S(24);
10010036:	f853 4024 	ldr.w	r4, [r3, r4, lsl #2]
    DEC_ROUND_S_T(32); DEC_ROUND_T_S(32);
1001003a:	f3ce 4207 	ubfx	r2, lr, #16, #8
1001003e:	f502 7280 	add.w	r2, r2, #256	@ 0x100
    DEC_ROUND_S_T(24); DEC_ROUND_T_S(24);
10010042:	4067      	eors	r7, r4
    DEC_ROUND_S_T(32); DEC_ROUND_T_S(32);
10010044:	f853 2022 	ldr.w	r2, [r3, r2, lsl #2]
10010048:	9202      	str	r2, [sp, #8]
1001004a:	f3c7 2207 	ubfx	r2, r7, #8, #8
1001004e:	f502 7200 	add.w	r2, r2, #512	@ 0x200
10010052:	ea4f 611e 	mov.w	r1, lr, lsr #24
10010056:	f853 2022 	ldr.w	r2, [r3, r2, lsl #2]
1001005a:	9203      	str	r2, [sp, #12]
1001005c:	b2fa      	uxtb	r2, r7
1001005e:	f502 7240 	add.w	r2, r2, #768	@ 0x300
10010062:	fa5f f886 	uxtb.w	r8, r6
10010066:	f853 4022 	ldr.w	r4, [r3, r2, lsl #2]
1001006a:	f3c6 4207 	ubfx	r2, r6, #16, #8
1001006e:	f502 7280 	add.w	r2, r2, #256	@ 0x100
10010072:	f508 7840 	add.w	r8, r8, #768	@ 0x300
10010076:	f853 5022 	ldr.w	r5, [r3, r2, lsl #2]
1001007a:	9504      	str	r5, [sp, #16]
1001007c:	f3ce 2207 	ubfx	r2, lr, #8, #8
10010080:	f502 7200 	add.w	r2, r2, #512	@ 0x200
10010084:	f853 5022 	ldr.w	r5, [r3, r2, lsl #2]
10010088:	9105      	str	r1, [sp, #20]
1001008a:	fa5f f28e 	uxtb.w	r2, lr
1001008e:	ea4f 6e16 	mov.w	lr, r6, lsr #24
10010092:	f3c6 2607 	ubfx	r6, r6, #8, #8
10010096:	f506 7100 	add.w	r1, r6, #512	@ 0x200
1001009a:	ea4f 661c 	mov.w	r6, ip, lsr #24
1001009e:	f502 7240 	add.w	r2, r2, #768	@ 0x300
100100a2:	f853 6026 	ldr.w	r6, [r3, r6, lsl #2]
100100a6:	f853 2022 	ldr.w	r2, [r3, r2, lsl #2]
100100aa:	f853 b02e 	ldr.w	fp, [r3, lr, lsl #2]
100100ae:	ea86 0a04 	eor.w	sl, r6, r4
100100b2:	0e3c      	lsrs	r4, r7, #24
100100b4:	ea8b 0b09 	eor.w	fp, fp, r9
100100b8:	f853 4024 	ldr.w	r4, [r3, r4, lsl #2]
100100bc:	ea84 0e02 	eor.w	lr, r4, r2
100100c0:	f8d0 4080 	ldr.w	r4, [r0, #128]	@ 0x80
100100c4:	ea8b 0b04 	eor.w	fp, fp, r4
100100c8:	9c02      	ldr	r4, [sp, #8]
100100ca:	ea8b 0b04 	eor.w	fp, fp, r4
100100ce:	9c03      	ldr	r4, [sp, #12]
100100d0:	ea8b 0604 	eor.w	r6, fp, r4
100100d4:	f8d0 4084 	ldr.w	r4, [r0, #132]	@ 0x84
100100d8:	ea8a 0a04 	eor.w	sl, sl, r4
100100dc:	9c04      	ldr	r4, [sp, #16]
100100de:	ea8a 0a04 	eor.w	sl, sl, r4
100100e2:	f8d0 4088 	ldr.w	r4, [r0, #136]	@ 0x88
100100e6:	f3c7 4707 	ubfx	r7, r7, #16, #8
100100ea:	f507 7280 	add.w	r2, r7, #256	@ 0x100
100100ee:	ea8e 0704 	eor.w	r7, lr, r4
100100f2:	9c05      	ldr	r4, [sp, #20]
100100f4:	f3cc 4907 	ubfx	r9, ip, #16, #8
100100f8:	f853 e024 	ldr.w	lr, [r3, r4, lsl #2]
100100fc:	f853 4028 	ldr.w	r4, [r3, r8, lsl #2]
10010100:	f509 7980 	add.w	r9, r9, #256	@ 0x100
10010104:	ea8e 0404 	eor.w	r4, lr, r4
10010108:	f853 e029 	ldr.w	lr, [r3, r9, lsl #2]
1001010c:	ea87 070e 	eor.w	r7, r7, lr
10010110:	f853 e022 	ldr.w	lr, [r3, r2, lsl #2]
10010114:	f853 2021 	ldr.w	r2, [r3, r1, lsl #2]
10010118:	f3cc 2c07 	ubfx	ip, ip, #8, #8
1001011c:	4057      	eors	r7, r2
1001011e:	f50c 7c00 	add.w	ip, ip, #512	@ 0x200
10010122:	f8d0 208c 	ldr.w	r2, [r0, #140]	@ 0x8c
10010126:	f853 102c 	ldr.w	r1, [r3, ip, lsl #2]
1001012a:	ea8a 0505 	eor.w	r5, sl, r5
1001012e:	ea84 0c02 	eor.w	ip, r4, r2
10010132:	b2ea      	uxtb	r2, r5
10010134:	f502 7240 	add.w	r2, r2, #768	@ 0x300
10010138:	ea8c 0c0e 	eor.w	ip, ip, lr
1001013c:	f853 4022 	ldr.w	r4, [r3, r2, lsl #2]
10010140:	b2fa      	uxtb	r2, r7
10010142:	f502 7240 	add.w	r2, r2, #768	@ 0x300
10010146:	ea8c 0c01 	eor.w	ip, ip, r1
1001014a:	f853 1022 	ldr.w	r1, [r3, r2, lsl #2]
1001014e:	fa5f f28c 	uxtb.w	r2, ip
10010152:	f502 7240 	add.w	r2, r2, #768	@ 0x300
10010156:	f853 8022 	ldr.w	r8, [r3, r2, lsl #2]
1001015a:	b2f2      	uxtb	r2, r6
1001015c:	f502 7240 	add.w	r2, r2, #768	@ 0x300
10010160:	f853 e022 	ldr.w	lr, [r3, r2, lsl #2]
10010164:	0e32      	lsrs	r2, r6, #24
10010166:	f853 2022 	ldr.w	r2, [r3, r2, lsl #2]
1001016a:	4054      	eors	r4, r2
1001016c:	0e2a      	lsrs	r2, r5, #24
1001016e:	f853 2022 	ldr.w	r2, [r3, r2, lsl #2]
10010172:	4051      	eors	r1, r2
10010174:	0e3a      	lsrs	r2, r7, #24
10010176:	f853 2022 	ldr.w	r2, [r3, r2, lsl #2]
1001017a:	ea82 0208 	eor.w	r2, r2, r8
1001017e:	ea4f 681c 	mov.w	r8, ip, lsr #24
10010182:	9202      	str	r2, [sp, #8]
10010184:	f853 8028 	ldr.w	r8, [r3, r8, lsl #2]
10010188:	ea88 080e 	eor.w	r8, r8, lr
1001018c:	f3cc 4e07 	ubfx	lr, ip, #16, #8
10010190:	f3cc 2c07 	ubfx	ip, ip, #8, #8
10010194:	f50c 7c00 	add.w	ip, ip, #512	@ 0x200
10010198:	f50e 7e80 	add.w	lr, lr, #256	@ 0x100
1001019c:	f853 a02c 	ldr.w	sl, [r3, ip, lsl #2]
100101a0:	f853 b02e 	ldr.w	fp, [r3, lr, lsl #2]
100101a4:	f3c6 4c07 	ubfx	ip, r6, #16, #8
100101a8:	f3c6 2607 	ubfx	r6, r6, #8, #8
100101ac:	f50c 7c80 	add.w	ip, ip, #256	@ 0x100
100101b0:	f506 7600 	add.w	r6, r6, #512	@ 0x200
100101b4:	f853 902c 	ldr.w	r9, [r3, ip, lsl #2]
100101b8:	f853 c026 	ldr.w	ip, [r3, r6, lsl #2]
100101bc:	f3c5 4607 	ubfx	r6, r5, #16, #8
100101c0:	f506 7680 	add.w	r6, r6, #256	@ 0x100
100101c4:	f3c5 2507 	ubfx	r5, r5, #8, #8
100101c8:	f505 7500 	add.w	r5, r5, #512	@ 0x200
100101cc:	f853 e026 	ldr.w	lr, [r3, r6, lsl #2]
100101d0:	f853 5025 	ldr.w	r5, [r3, r5, lsl #2]
100101d4:	f8d0 2090 	ldr.w	r2, [r0, #144]	@ 0x90
100101d8:	f3c7 4607 	ubfx	r6, r7, #16, #8
100101dc:	f3c7 2707 	ubfx	r7, r7, #8, #8
100101e0:	f507 7700 	add.w	r7, r7, #512	@ 0x200
100101e4:	4054      	eors	r4, r2
100101e6:	f853 7027 	ldr.w	r7, [r3, r7, lsl #2]
100101ea:	9a02      	ldr	r2, [sp, #8]
100101ec:	ea84 040b 	eor.w	r4, r4, fp
100101f0:	407c      	eors	r4, r7
100101f2:	f8d0 7094 	ldr.w	r7, [r0, #148]	@ 0x94
100101f6:	4079      	eors	r1, r7
100101f8:	f8d0 7098 	ldr.w	r7, [r0, #152]	@ 0x98
100101fc:	f506 7680 	add.w	r6, r6, #256	@ 0x100
10010200:	407a      	eors	r2, r7
10010202:	f8d0 709c 	ldr.w	r7, [r0, #156]	@ 0x9c
10010206:	f853 6026 	ldr.w	r6, [r3, r6, lsl #2]
1001020a:	ea82 020e 	eor.w	r2, r2, lr
1001020e:	ea82 020c 	eor.w	r2, r2, ip
10010212:	ea88 0c07 	eor.w	ip, r8, r7
10010216:	ea8c 0c06 	eor.w	ip, ip, r6
1001021a:	ea8c 0c05 	eor.w	ip, ip, r5
    if (r > 5) {
1001021e:	9d00      	ldr	r5, [sp, #0]
    DEC_ROUND_S_T(32); DEC_ROUND_T_S(32);
10010220:	ea81 0109 	eor.w	r1, r1, r9
    if (r > 5) {
10010224:	2d05      	cmp	r5, #5
    DEC_ROUND_S_T(32); DEC_ROUND_T_S(32);
10010226:	ea81 010a 	eor.w	r1, r1, sl
    if (r > 5) {
1001022a:	f240 81ee 	bls.w	1001060a <AesDecrypt_C+0xca2>
        DEC_ROUND_S_T(40); DEC_ROUND_T_S(40);
1001022e:	b2cd      	uxtb	r5, r1
10010230:	f505 7540 	add.w	r5, r5, #768	@ 0x300
10010234:	f3c2 4a07 	ubfx	sl, r2, #16, #8
10010238:	f853 6025 	ldr.w	r6, [r3, r5, lsl #2]
1001023c:	b2d5      	uxtb	r5, r2
1001023e:	f505 7540 	add.w	r5, r5, #768	@ 0x300
10010242:	f3c1 4907 	ubfx	r9, r1, #16, #8
10010246:	f853 8025 	ldr.w	r8, [r3, r5, lsl #2]
1001024a:	fa5f f58c 	uxtb.w	r5, ip
1001024e:	f505 7540 	add.w	r5, r5, #768	@ 0x300
10010252:	f50a 7a80 	add.w	sl, sl, #256	@ 0x100
10010256:	f853 7025 	ldr.w	r7, [r3, r5, lsl #2]
1001025a:	f853 a02a 	ldr.w	sl, [r3, sl, lsl #2]
1001025e:	b2e5      	uxtb	r5, r4
10010260:	f505 7540 	add.w	r5, r5, #768	@ 0x300
10010264:	f509 7980 	add.w	r9, r9, #256	@ 0x100
10010268:	f853 e025 	ldr.w	lr, [r3, r5, lsl #2]
1001026c:	f853 9029 	ldr.w	r9, [r3, r9, lsl #2]
10010270:	0e25      	lsrs	r5, r4, #24
10010272:	f853 5025 	ldr.w	r5, [r3, r5, lsl #2]
10010276:	406e      	eors	r6, r5
10010278:	0e0d      	lsrs	r5, r1, #24
1001027a:	f3c1 2107 	ubfx	r1, r1, #8, #8
1001027e:	f853 5025 	ldr.w	r5, [r3, r5, lsl #2]
10010282:	ea85 0508 	eor.w	r5, r5, r8
10010286:	ea4f 6812 	mov.w	r8, r2, lsr #24
1001028a:	f3c2 2207 	ubfx	r2, r2, #8, #8
1001028e:	f853 8028 	ldr.w	r8, [r3, r8, lsl #2]
10010292:	ea88 0707 	eor.w	r7, r8, r7
10010296:	ea4f 681c 	mov.w	r8, ip, lsr #24
1001029a:	f502 7200 	add.w	r2, r2, #512	@ 0x200
1001029e:	f853 8028 	ldr.w	r8, [r3, r8, lsl #2]
100102a2:	f853 2022 	ldr.w	r2, [r3, r2, lsl #2]
100102a6:	9202      	str	r2, [sp, #8]
100102a8:	ea88 080e 	eor.w	r8, r8, lr
100102ac:	f3cc 4e07 	ubfx	lr, ip, #16, #8
100102b0:	f50e 7e80 	add.w	lr, lr, #256	@ 0x100
100102b4:	f8d0 20a0 	ldr.w	r2, [r0, #160]	@ 0xa0
100102b8:	f853 b02e 	ldr.w	fp, [r3, lr, lsl #2]
100102bc:	4056      	eors	r6, r2
100102be:	9a02      	ldr	r2, [sp, #8]
100102c0:	f3c4 4e07 	ubfx	lr, r4, #16, #8
100102c4:	ea86 060b 	eor.w	r6, r6, fp
100102c8:	4056      	eors	r6, r2
100102ca:	f3cc 2c07 	ubfx	ip, ip, #8, #8
100102ce:	f8d0 20a4 	ldr.w	r2, [r0, #164]	@ 0xa4
100102d2:	f50e 7e80 	add.w	lr, lr, #256	@ 0x100
100102d6:	f50c 7c00 	add.w	ip, ip, #512	@ 0x200
100102da:	f853 e02e 	ldr.w	lr, [r3, lr, lsl #2]
100102de:	f853 c02c 	ldr.w	ip, [r3, ip, lsl #2]
100102e2:	4055      	eors	r5, r2
100102e4:	f8d0 20a8 	ldr.w	r2, [r0, #168]	@ 0xa8
100102e8:	ea85 050e 	eor.w	r5, r5, lr
100102ec:	4057      	eors	r7, r2
100102ee:	f501 7100 	add.w	r1, r1, #512	@ 0x200
100102f2:	f8d0 20ac 	ldr.w	r2, [r0, #172]	@ 0xac
100102f6:	f853 1021 	ldr.w	r1, [r3, r1, lsl #2]
100102fa:	ea85 050c 	eor.w	r5, r5, ip
100102fe:	f3c4 2407 	ubfx	r4, r4, #8, #8
10010302:	ea88 0c02 	eor.w	ip, r8, r2
10010306:	b2ea      	uxtb	r2, r5
10010308:	ea8c 0c0a 	eor.w	ip, ip, sl
1001030c:	f502 7240 	add.w	r2, r2, #768	@ 0x300
10010310:	f504 7400 	add.w	r4, r4, #512	@ 0x200
10010314:	ea8c 0c01 	eor.w	ip, ip, r1
10010318:	f853 e022 	ldr.w	lr, [r3, r2, lsl #2]
1001031c:	f853 4024 	ldr.w	r4, [r3, r4, lsl #2]
10010320:	f3cc 4207 	ubfx	r2, ip, #16, #8
10010324:	ea87 0709 	eor.w	r7, r7, r9
10010328:	f502 7280 	add.w	r2, r2, #256	@ 0x100
1001032c:	4067      	eors	r7, r4
1001032e:	f853 4022 	ldr.w	r4, [r3, r2, lsl #2]
10010332:	f3c7 2207 	ubfx	r2, r7, #8, #8
10010336:	f502 7200 	add.w	r2, r2, #512	@ 0x200
1001033a:	ea4f 6816 	mov.w	r8, r6, lsr #24
1001033e:	f853 9022 	ldr.w	r9, [r3, r2, lsl #2]
10010342:	f853 8028 	ldr.w	r8, [r3, r8, lsl #2]
10010346:	b2fa      	uxtb	r2, r7
10010348:	f502 7240 	add.w	r2, r2, #768	@ 0x300
1001034c:	ea4f 6a1c 	mov.w	sl, ip, lsr #24
10010350:	f853 1022 	ldr.w	r1, [r3, r2, lsl #2]
10010354:	f3c6 4207 	ubfx	r2, r6, #16, #8
10010358:	f502 7280 	add.w	r2, r2, #256	@ 0x100
1001035c:	ea88 080e 	eor.w	r8, r8, lr
10010360:	f853 b022 	ldr.w	fp, [r3, r2, lsl #2]
10010364:	f3cc 2207 	ubfx	r2, ip, #8, #8
10010368:	f502 7200 	add.w	r2, r2, #512	@ 0x200
1001036c:	ea4f 6e15 	mov.w	lr, r5, lsr #24
10010370:	f853 2022 	ldr.w	r2, [r3, r2, lsl #2]
10010374:	9202      	str	r2, [sp, #8]
10010376:	fa5f f28c 	uxtb.w	r2, ip
1001037a:	f502 7240 	add.w	r2, r2, #768	@ 0x300
1001037e:	fa5f fc86 	uxtb.w	ip, r6
10010382:	f3c6 2607 	ubfx	r6, r6, #8, #8
10010386:	f506 7600 	add.w	r6, r6, #512	@ 0x200
1001038a:	f853 2022 	ldr.w	r2, [r3, r2, lsl #2]
1001038e:	9603      	str	r6, [sp, #12]
10010390:	f853 e02e 	ldr.w	lr, [r3, lr, lsl #2]
10010394:	f8d0 60b0 	ldr.w	r6, [r0, #176]	@ 0xb0
10010398:	ea8e 0101 	eor.w	r1, lr, r1
1001039c:	ea88 0806 	eor.w	r8, r8, r6
100103a0:	ea4f 6e17 	mov.w	lr, r7, lsr #24
100103a4:	f8d0 60b4 	ldr.w	r6, [r0, #180]	@ 0xb4
100103a8:	f853 e02e 	ldr.w	lr, [r3, lr, lsl #2]
100103ac:	4071      	eors	r1, r6
100103ae:	9e02      	ldr	r6, [sp, #8]
100103b0:	ea81 010b 	eor.w	r1, r1, fp
100103b4:	ea8e 0202 	eor.w	r2, lr, r2
100103b8:	4071      	eors	r1, r6
100103ba:	f3c5 4e07 	ubfx	lr, r5, #16, #8
100103be:	f8d0 60b8 	ldr.w	r6, [r0, #184]	@ 0xb8
100103c2:	f50e 7e80 	add.w	lr, lr, #256	@ 0x100
100103c6:	4072      	eors	r2, r6
100103c8:	9e03      	ldr	r6, [sp, #12]
100103ca:	f853 e02e 	ldr.w	lr, [r3, lr, lsl #2]
100103ce:	f853 6026 	ldr.w	r6, [r3, r6, lsl #2]
100103d2:	f50c 7c40 	add.w	ip, ip, #768	@ 0x300
100103d6:	f3c5 2507 	ubfx	r5, r5, #8, #8
100103da:	f505 7500 	add.w	r5, r5, #512	@ 0x200
100103de:	ea88 0804 	eor.w	r8, r8, r4
100103e2:	f853 c02c 	ldr.w	ip, [r3, ip, lsl #2]
100103e6:	f3c7 4707 	ubfx	r7, r7, #16, #8
100103ea:	ea88 0409 	eor.w	r4, r8, r9
100103ee:	ea82 020e 	eor.w	r2, r2, lr
100103f2:	f853 902a 	ldr.w	r9, [r3, sl, lsl #2]
100103f6:	f507 7780 	add.w	r7, r7, #256	@ 0x100
100103fa:	4072      	eors	r2, r6
100103fc:	f853 6025 	ldr.w	r6, [r3, r5, lsl #2]
10010400:	f8d0 50bc 	ldr.w	r5, [r0, #188]	@ 0xbc
10010404:	f853 7027 	ldr.w	r7, [r3, r7, lsl #2]
10010408:	ea89 0c0c 	eor.w	ip, r9, ip
1001040c:	ea8c 0c05 	eor.w	ip, ip, r5
        if (r > 6) {
10010410:	9d00      	ldr	r5, [sp, #0]
        DEC_ROUND_S_T(40); DEC_ROUND_T_S(40);
10010412:	ea8c 0c07 	eor.w	ip, ip, r7
        if (r > 6) {
10010416:	2d06      	cmp	r5, #6
        DEC_ROUND_S_T(40); DEC_ROUND_T_S(40);
10010418:	ea8c 0c06 	eor.w	ip, ip, r6
        if (r > 6) {
1001041c:	f000 80f5 	beq.w	1001060a <AesDecrypt_C+0xca2>
            DEC_ROUND_S_T(48); DEC_ROUND_T_S(48);
10010420:	b2cd      	uxtb	r5, r1
10010422:	f505 7540 	add.w	r5, r5, #768	@ 0x300
10010426:	f3c2 4a07 	ubfx	sl, r2, #16, #8
1001042a:	f853 6025 	ldr.w	r6, [r3, r5, lsl #2]
1001042e:	b2d5      	uxtb	r5, r2
10010430:	f505 7540 	add.w	r5, r5, #768	@ 0x300
10010434:	f3c1 4907 	ubfx	r9, r1, #16, #8
10010438:	f853 8025 	ldr.w	r8, [r3, r5, lsl #2]
1001043c:	fa5f f58c 	uxtb.w	r5, ip
10010440:	f505 7540 	add.w	r5, r5, #768	@ 0x300
10010444:	f50a 7a80 	add.w	sl, sl, #256	@ 0x100
10010448:	f853 7025 	ldr.w	r7, [r3, r5, lsl #2]
1001044c:	f853 a02a 	ldr.w	sl, [r3, sl, lsl #2]
10010450:	b2e5      	uxtb	r5, r4
10010452:	f505 7540 	add.w	r5, r5, #768	@ 0x300
10010456:	f509 7980 	add.w	r9, r9, #256	@ 0x100
1001045a:	f853 e025 	ldr.w	lr, [r3, r5, lsl #2]
1001045e:	f853 9029 	ldr.w	r9, [r3, r9, lsl #2]
10010462:	0e25      	lsrs	r5, r4, #24
10010464:	f853 5025 	ldr.w	r5, [r3, r5, lsl #2]
10010468:	406e      	eors	r6, r5
1001046a:	0e0d      	lsrs	r5, r1, #24
1001046c:	f3c1 2107 	ubfx	r1, r1, #8, #8
10010470:	f853 5025 	ldr.w	r5, [r3, r5, lsl #2]
10010474:	ea85 0508 	eor.w	r5, r5, r8
10010478:	ea4f 6812 	mov.w	r8, r2, lsr #24
1001047c:	f3c2 2207 	ubfx	r2, r2, #8, #8
10010480:	f853 8028 	ldr.w	r8, [r3, r8, lsl #2]
10010484:	ea88 0707 	eor.w	r7, r8, r7
10010488:	ea4f 681c 	mov.w	r8, ip, lsr #24
1001048c:	f502 7200 	add.w	r2, r2, #512	@ 0x200
10010490:	f853 8028 	ldr.w	r8, [r3, r8, lsl #2]
10010494:	f853 2022 	ldr.w	r2, [r3, r2, lsl #2]
10010498:	9202      	str	r2, [sp, #8]
1001049a:	ea88 080e 	eor.w	r8, r8, lr
1001049e:	f3cc 4e07 	ubfx	lr, ip, #16, #8
100104a2:	f50e 7e80 	add.w	lr, lr, #256	@ 0x100
100104a6:	f8d0 20c0 	ldr.w	r2, [r0, #192]	@ 0xc0
100104aa:	f853 b02e 	ldr.w	fp, [r3, lr, lsl #2]
100104ae:	4056      	eors	r6, r2
100104b0:	9a02      	ldr	r2, [sp, #8]
100104b2:	f3c4 4e07 	ubfx	lr, r4, #16, #8
100104b6:	ea86 060b 	eor.w	r6, r6, fp
100104ba:	4056      	eors	r6, r2
100104bc:	f3cc 2c07 	ubfx	ip, ip, #8, #8
100104c0:	f8d0 20c4 	ldr.w	r2, [r0, #196]	@ 0xc4
100104c4:	f50e 7e80 	add.w	lr, lr, #256	@ 0x100
100104c8:	f50c 7c00 	add.w	ip, ip, #512	@ 0x200
100104cc:	f853 e02e 	ldr.w	lr, [r3, lr, lsl #2]
100104d0:	f853 c02c 	ldr.w	ip, [r3, ip, lsl #2]
100104d4:	4055      	eors	r5, r2
100104d6:	f8d0 20c8 	ldr.w	r2, [r0, #200]	@ 0xc8
100104da:	ea85 050e 	eor.w	r5, r5, lr
100104de:	4057      	eors	r7, r2
100104e0:	f501 7100 	add.w	r1, r1, #512	@ 0x200
100104e4:	f8d0 20cc 	ldr.w	r2, [r0, #204]	@ 0xcc
100104e8:	f853 1021 	ldr.w	r1, [r3, r1, lsl #2]
100104ec:	ea85 050c 	eor.w	r5, r5, ip
100104f0:	f3c4 2407 	ubfx	r4, r4, #8, #8
100104f4:	ea88 0c02 	eor.w	ip, r8, r2
100104f8:	b2ea      	uxtb	r2, r5
100104fa:	ea8c 0c0a 	eor.w	ip, ip, sl
100104fe:	f502 7240 	add.w	r2, r2, #768	@ 0x300
10010502:	f504 7400 	add.w	r4, r4, #512	@ 0x200
10010506:	ea8c 0c01 	eor.w	ip, ip, r1
1001050a:	f853 e022 	ldr.w	lr, [r3, r2, lsl #2]
1001050e:	f853 4024 	ldr.w	r4, [r3, r4, lsl #2]
10010512:	f3cc 4207 	ubfx	r2, ip, #16, #8
10010516:	ea87 0709 	eor.w	r7, r7, r9
1001051a:	f502 7280 	add.w	r2, r2, #256	@ 0x100
1001051e:	4067      	eors	r7, r4
10010520:	f853 4022 	ldr.w	r4, [r3, r2, lsl #2]
10010524:	f3c7 2207 	ubfx	r2, r7, #8, #8
10010528:	f502 7200 	add.w	r2, r2, #512	@ 0x200
1001052c:	ea4f 6816 	mov.w	r8, r6, lsr #24
10010530:	f853 9022 	ldr.w	r9, [r3, r2, lsl #2]
10010534:	f853 8028 	ldr.w	r8, [r3, r8, lsl #2]
10010538:	b2fa      	uxtb	r2, r7
1001053a:	f502 7240 	add.w	r2, r2, #768	@ 0x300
1001053e:	ea88 080e 	eor.w	r8, r8, lr
10010542:	f853 1022 	ldr.w	r1, [r3, r2, lsl #2]
10010546:	f3c6 4207 	ubfx	r2, r6, #16, #8
1001054a:	f502 7280 	add.w	r2, r2, #256	@ 0x100
1001054e:	ea4f 6e15 	mov.w	lr, r5, lsr #24
10010552:	f853 b022 	ldr.w	fp, [r3, r2, lsl #2]
10010556:	f853 e02e 	ldr.w	lr, [r3, lr, lsl #2]
1001055a:	f3cc 2207 	ubfx	r2, ip, #8, #8
1001055e:	f502 7200 	add.w	r2, r2, #512	@ 0x200
10010562:	ea8e 0101 	eor.w	r1, lr, r1
10010566:	f853 2022 	ldr.w	r2, [r3, r2, lsl #2]
1001056a:	9202      	str	r2, [sp, #8]
1001056c:	fa5f f28c 	uxtb.w	r2, ip
10010570:	ea4f 6e17 	mov.w	lr, r7, lsr #24
10010574:	f502 7240 	add.w	r2, r2, #768	@ 0x300
10010578:	ea4f 6a1c 	mov.w	sl, ip, lsr #24
1001057c:	f853 2022 	ldr.w	r2, [r3, r2, lsl #2]
10010580:	f853 e02e 	ldr.w	lr, [r3, lr, lsl #2]
10010584:	ea8e 0202 	eor.w	r2, lr, r2
10010588:	f3c5 4e07 	ubfx	lr, r5, #16, #8
1001058c:	f3c5 2507 	ubfx	r5, r5, #8, #8
10010590:	f505 7500 	add.w	r5, r5, #512	@ 0x200
10010594:	9503      	str	r5, [sp, #12]
10010596:	f8d0 50d0 	ldr.w	r5, [r0, #208]	@ 0xd0
1001059a:	ea88 0805 	eor.w	r8, r8, r5
1001059e:	f8d0 50d4 	ldr.w	r5, [r0, #212]	@ 0xd4
100105a2:	4069      	eors	r1, r5
100105a4:	9d02      	ldr	r5, [sp, #8]
100105a6:	ea81 010b 	eor.w	r1, r1, fp
100105aa:	fa5f fc86 	uxtb.w	ip, r6
100105ae:	4069      	eors	r1, r5
100105b0:	f8d0 50d8 	ldr.w	r5, [r0, #216]	@ 0xd8
100105b4:	f50c 7c40 	add.w	ip, ip, #768	@ 0x300
100105b8:	f3c6 2607 	ubfx	r6, r6, #8, #8
100105bc:	f3c7 4707 	ubfx	r7, r7, #16, #8
100105c0:	406a      	eors	r2, r5
100105c2:	f506 7600 	add.w	r6, r6, #512	@ 0x200
100105c6:	9d03      	ldr	r5, [sp, #12]
100105c8:	f853 c02c 	ldr.w	ip, [r3, ip, lsl #2]
100105cc:	f853 6026 	ldr.w	r6, [r3, r6, lsl #2]
100105d0:	f853 5025 	ldr.w	r5, [r3, r5, lsl #2]
100105d4:	f507 7780 	add.w	r7, r7, #256	@ 0x100
100105d8:	f50e 7e80 	add.w	lr, lr, #256	@ 0x100
100105dc:	ea88 0804 	eor.w	r8, r8, r4
100105e0:	ea88 0409 	eor.w	r4, r8, r9
100105e4:	f853 902a 	ldr.w	r9, [r3, sl, lsl #2]
100105e8:	f853 e02e 	ldr.w	lr, [r3, lr, lsl #2]
100105ec:	f853 7027 	ldr.w	r7, [r3, r7, lsl #2]
100105f0:	f8d0 30dc 	ldr.w	r3, [r0, #220]	@ 0xdc
100105f4:	ea89 0c0c 	eor.w	ip, r9, ip
100105f8:	ea8c 0c03 	eor.w	ip, ip, r3
100105fc:	ea82 020e 	eor.w	r2, r2, lr
10010600:	ea8c 0c07 	eor.w	ip, ip, r7
10010604:	4072      	eors	r2, r6
10010606:	ea8c 0c05 	eor.w	ip, ip, r5

#ifndef WC_NO_CACHE_RESISTANT
    t0 |= PreFetchTd4();
#endif

    s0 = GetTable8_4(Td4, GETBYTE(t0, 3), GETBYTE(t3, 2),
1001060a:	4b32      	ldr	r3, [pc, #200]	@ (100106d4 <AesDecrypt_C+0xd6c>)
1001060c:	0e25      	lsrs	r5, r4, #24
1001060e:	b2ce      	uxtb	r6, r1
10010610:	5d5d      	ldrb	r5, [r3, r5]
10010612:	5d9e      	ldrb	r6, [r3, r6]
10010614:	ea46 6605 	orr.w	r6, r6, r5, lsl #24
                          GETBYTE(t2, 1), GETBYTE(t1, 0)) ^ rk[0];
    s1 = GetTable8_4(Td4, GETBYTE(t1, 3), GETBYTE(t0, 2),
10010618:	0e0d      	lsrs	r5, r1, #24
                          GETBYTE(t3, 1), GETBYTE(t2, 0)) ^ rk[1];
    s2 = GetTable8_4(Td4, GETBYTE(t2, 3), GETBYTE(t1, 2),
1001061a:	fa5f fe8c 	uxtb.w	lr, ip
    s1 = GetTable8_4(Td4, GETBYTE(t1, 3), GETBYTE(t0, 2),
1001061e:	5d5f      	ldrb	r7, [r3, r5]
    s2 = GetTable8_4(Td4, GETBYTE(t2, 3), GETBYTE(t1, 2),
10010620:	f813 e00e 	ldrb.w	lr, [r3, lr]
    s1 = GetTable8_4(Td4, GETBYTE(t1, 3), GETBYTE(t0, 2),
10010624:	b2d5      	uxtb	r5, r2
10010626:	5d5d      	ldrb	r5, [r3, r5]
10010628:	ea45 6507 	orr.w	r5, r5, r7, lsl #24
    s2 = GetTable8_4(Td4, GETBYTE(t2, 3), GETBYTE(t1, 2),
1001062c:	0e17      	lsrs	r7, r2, #24
1001062e:	5ddf      	ldrb	r7, [r3, r7]
10010630:	ea4e 6e07 	orr.w	lr, lr, r7, lsl #24
                          GETBYTE(t0, 1), GETBYTE(t3, 0)) ^ rk[2];
    s3 = GetTable8_4(Td4, GETBYTE(t3, 3), GETBYTE(t2, 2),
10010634:	ea4f 671c 	mov.w	r7, ip, lsr #24
10010638:	f813 8007 	ldrb.w	r8, [r3, r7]
1001063c:	b2e7      	uxtb	r7, r4
1001063e:	5ddf      	ldrb	r7, [r3, r7]
10010640:	ea47 6708 	orr.w	r7, r7, r8, lsl #24
    s0 = GetTable8_4(Td4, GETBYTE(t0, 3), GETBYTE(t3, 2),
10010644:	f3cc 4807 	ubfx	r8, ip, #16, #8
    s1 = GetTable8_4(Td4, GETBYTE(t1, 3), GETBYTE(t0, 2),
10010648:	f3cc 2c07 	ubfx	ip, ip, #8, #8
    s0 = GetTable8_4(Td4, GETBYTE(t0, 3), GETBYTE(t3, 2),
1001064c:	f813 8008 	ldrb.w	r8, [r3, r8]
    s1 = GetTable8_4(Td4, GETBYTE(t1, 3), GETBYTE(t0, 2),
10010650:	f813 c00c 	ldrb.w	ip, [r3, ip]
    s0 = GetTable8_4(Td4, GETBYTE(t0, 3), GETBYTE(t3, 2),
10010654:	ea46 4608 	orr.w	r6, r6, r8, lsl #16
    s1 = GetTable8_4(Td4, GETBYTE(t1, 3), GETBYTE(t0, 2),
10010658:	f3c4 4807 	ubfx	r8, r4, #16, #8
    s2 = GetTable8_4(Td4, GETBYTE(t2, 3), GETBYTE(t1, 2),
1001065c:	f3c4 2407 	ubfx	r4, r4, #8, #8
    s1 = GetTable8_4(Td4, GETBYTE(t1, 3), GETBYTE(t0, 2),
10010660:	f813 8008 	ldrb.w	r8, [r3, r8]
10010664:	ea45 4508 	orr.w	r5, r5, r8, lsl #16
10010668:	ea45 250c 	orr.w	r5, r5, ip, lsl #8
    s2 = GetTable8_4(Td4, GETBYTE(t2, 3), GETBYTE(t1, 2),
1001066c:	f813 c004 	ldrb.w	ip, [r3, r4]
10010670:	f3c1 4407 	ubfx	r4, r1, #16, #8
    s3 = GetTable8_4(Td4, GETBYTE(t3, 3), GETBYTE(t2, 2),
10010674:	f3c1 2107 	ubfx	r1, r1, #8, #8
    s2 = GetTable8_4(Td4, GETBYTE(t2, 3), GETBYTE(t1, 2),
10010678:	5d1c      	ldrb	r4, [r3, r4]
1001067a:	ea4e 4404 	orr.w	r4, lr, r4, lsl #16
1001067e:	ea44 240c 	orr.w	r4, r4, ip, lsl #8
    s3 = GetTable8_4(Td4, GETBYTE(t3, 3), GETBYTE(t2, 2),
10010682:	f813 c001 	ldrb.w	ip, [r3, r1]
10010686:	f3c2 4107 	ubfx	r1, r2, #16, #8
    s0 = GetTable8_4(Td4, GETBYTE(t0, 3), GETBYTE(t3, 2),
1001068a:	f3c2 2207 	ubfx	r2, r2, #8, #8
    s3 = GetTable8_4(Td4, GETBYTE(t3, 3), GETBYTE(t2, 2),
1001068e:	5c59      	ldrb	r1, [r3, r1]
    s0 = GetTable8_4(Td4, GETBYTE(t0, 3), GETBYTE(t3, 2),
10010690:	5c9b      	ldrb	r3, [r3, r2]
    rk += r * 8;
10010692:	9a00      	ldr	r2, [sp, #0]
    s0 = GetTable8_4(Td4, GETBYTE(t0, 3), GETBYTE(t3, 2),
10010694:	ea46 2303 	orr.w	r3, r6, r3, lsl #8
    rk += r * 8;
10010698:	eb00 1642 	add.w	r6, r0, r2, lsl #5
1001069c:	0152      	lsls	r2, r2, #5
    s3 = GetTable8_4(Td4, GETBYTE(t3, 3), GETBYTE(t2, 2),
1001069e:	ea47 4101 	orr.w	r1, r7, r1, lsl #16
                          GETBYTE(t2, 1), GETBYTE(t1, 0)) ^ rk[0];
100106a2:	5882      	ldr	r2, [r0, r2]
100106a4:	4053      	eors	r3, r2
                          GETBYTE(t3, 1), GETBYTE(t2, 0)) ^ rk[1];
100106a6:	6872      	ldr	r2, [r6, #4]
100106a8:	ea85 0002 	eor.w	r0, r5, r2
                          GETBYTE(t0, 1), GETBYTE(t3, 0)) ^ rk[2];
100106ac:	68b2      	ldr	r2, [r6, #8]
    s1 = ByteReverseWord32(s1);
    s2 = ByteReverseWord32(s2);
    s3 = ByteReverseWord32(s3);
#endif

    XMEMCPY(outBlock,                  &s0, sizeof(s0));
100106ae:	9d01      	ldr	r5, [sp, #4]
                          GETBYTE(t0, 1), GETBYTE(t3, 0)) ^ rk[2];
100106b0:	4062      	eors	r2, r4
                          GETBYTE(t1, 1), GETBYTE(t0, 0)) ^ rk[3];
100106b2:	68f4      	ldr	r4, [r6, #12]
    s3 = GetTable8_4(Td4, GETBYTE(t3, 3), GETBYTE(t2, 2),
100106b4:	ea41 210c 	orr.w	r1, r1, ip, lsl #8
100106b8:	ba1b      	rev	r3, r3
    XMEMCPY(outBlock,                  &s0, sizeof(s0));
100106ba:	602b      	str	r3, [r5, #0]
                          GETBYTE(t1, 1), GETBYTE(t0, 0)) ^ rk[3];
100106bc:	ea81 0304 	eor.w	r3, r1, r4
100106c0:	ba00      	rev	r0, r0
    s2 = ByteReverseWord32(s2);
100106c2:	ba12      	rev	r2, r2
    s3 = ByteReverseWord32(s3);
100106c4:	ba1b      	rev	r3, r3
    XMEMCPY(outBlock + sizeof(s0),     &s1, sizeof(s1));
100106c6:	6068      	str	r0, [r5, #4]
    XMEMCPY(outBlock + 2 * sizeof(s0), &s2, sizeof(s2));
100106c8:	60aa      	str	r2, [r5, #8]
    XMEMCPY(outBlock + 3 * sizeof(s0), &s3, sizeof(s3));
100106ca:	60eb      	str	r3, [r5, #12]

}
100106cc:	b007      	add	sp, #28
100106ce:	e8bd 8ff0 	ldmia.w	sp!, {r4, r5, r6, r7, r8, r9, sl, fp, pc}
100106d2:	bf00      	nop
100106d4:	1001b620 	.word	0x1001b620

100106d8 <wc_AesSetKeyLocal.constprop.0>:
    #ifdef WOLFSSL_IMX6_CAAM_BLOB
        byte   local[32];
        word32 localSz = 32;
    #endif

        if (aes == NULL)
100106d8:	2800      	cmp	r0, #0
100106da:	f000 8277 	beq.w	10010bcc <wc_AesSetKeyLocal.constprop.0+0x4f4>
    static WARN_UNUSED_RESULT int wc_AesSetKeyLocal(
100106de:	e92d 4ff0 	stmdb	sp!, {r4, r5, r6, r7, r8, r9, sl, fp, lr}
        ret = wc_debug_CipherLifecycleCheck(aes->CipherLifecycleTag, 0);
        if (ret < 0)
            return ret;
#endif

        switch (keylen) {
100106e2:	f1a2 0510 	sub.w	r5, r2, #16
100106e6:	2d10      	cmp	r5, #16
    static WARN_UNUSED_RESULT int wc_AesSetKeyLocal(
100106e8:	b085      	sub	sp, #20
100106ea:	4692      	mov	sl, r2
        switch (keylen) {
100106ec:	d804      	bhi.n	100106f8 <wc_AesSetKeyLocal.constprop.0+0x20>
100106ee:	461f      	mov	r7, r3
100106f0:	4bd5      	ldr	r3, [pc, #852]	@ (10010a48 <wc_AesSetKeyLocal.constprop.0+0x370>)
100106f2:	40eb      	lsrs	r3, r5
100106f4:	07db      	lsls	r3, r3, #31
100106f6:	d404      	bmi.n	10010702 <wc_AesSetKeyLocal.constprop.0+0x2a>
100106f8:	f06f 00ac 	mvn.w	r0, #172	@ 0xac
    #endif
    #ifdef WOLFSSL_IMX6_CAAM_BLOB
        ForceZero(local, sizeof(local));
    #endif
        return ret;
    } /* wc_AesSetKeyLocal */
100106fc:	b005      	add	sp, #20
100106fe:	e8bd 8ff0 	ldmia.w	sp!, {r4, r5, r6, r7, r8, r9, sl, fp, pc}
        aes->rounds = (keylen/4) + 6;
10010702:	ea4f 0892 	mov.w	r8, r2, lsr #2
10010706:	f108 0306 	add.w	r3, r8, #6
1001070a:	4689      	mov	r9, r1
1001070c:	4604      	mov	r4, r0
        aes->keylen = (int)keylen;
1001070e:	f8c0 20f4 	str.w	r2, [r0, #244]	@ 0xf4
        aes->rounds = (keylen/4) + 6;
10010712:	f8c0 30f0 	str.w	r3, [r0, #240]	@ 0xf0
        XMEMCPY(aes->key, userKey, keylen);
10010716:	4606      	mov	r6, r0
            return ret;
    }
#endif

    if (iv)
        XMEMCPY(aes->reg, iv, AES_BLOCK_SIZE);
10010718:	f100 0bf8 	add.w	fp, r0, #248	@ 0xf8
    if (iv)
1001071c:	2f00      	cmp	r7, #0
1001071e:	d047      	beq.n	100107b0 <wc_AesSetKeyLocal.constprop.0+0xd8>
        XMEMCPY(aes->reg, iv, AES_BLOCK_SIZE);
10010720:	f8d7 e000 	ldr.w	lr, [r7]
10010724:	f8d7 c004 	ldr.w	ip, [r7, #4]
10010728:	68bd      	ldr	r5, [r7, #8]
1001072a:	68fb      	ldr	r3, [r7, #12]
1001072c:	f8c0 e0f8 	str.w	lr, [r0, #248]	@ 0xf8
10010730:	f8cb c004 	str.w	ip, [fp, #4]
10010734:	f8cb 5008 	str.w	r5, [fp, #8]
10010738:	f8cb 300c 	str.w	r3, [fp, #12]
        XMEMCPY(aes->key, userKey, keylen);
1001073c:	f005 fc40 	bl	10015fc0 <memcpy>
    if ((((size_t)in & 0x3) == 0) &&
        (((size_t)out & 0x3) == 0))
#endif
    {
        word32 count = byteCount/(word32)sizeof(word32);
        for (i = 0; i < count; i++)
10010740:	eb04 0888 	add.w	r8, r4, r8, lsl #2
10010744:	4625      	mov	r5, r4
    static WARN_UNUSED_RESULT int wc_AesSetKeyLocal(
10010746:	4623      	mov	r3, r4
            out[i] = ByteReverseWord32(in[i]);
10010748:	681a      	ldr	r2, [r3, #0]
1001074a:	ba12      	rev	r2, r2
1001074c:	f843 2b04 	str.w	r2, [r3], #4
        for (i = 0; i < count; i++)
10010750:	4598      	cmp	r8, r3
10010752:	d1f9      	bne.n	10010748 <wc_AesSetKeyLocal.constprop.0+0x70>
    XMEMCPY(rk, key, keySz);
10010754:	4649      	mov	r1, r9
10010756:	4652      	mov	r2, sl
10010758:	4620      	mov	r0, r4
1001075a:	f005 fc31 	bl	10015fc0 <memcpy>
1001075e:	4623      	mov	r3, r4
            out[i] = ByteReverseWord32(in[i]);
10010760:	681a      	ldr	r2, [r3, #0]
10010762:	ba12      	rev	r2, r2
10010764:	f843 2b04 	str.w	r2, [r3], #4
        for (i = 0; i < count; i++)
10010768:	4598      	cmp	r8, r3
1001076a:	d1f9      	bne.n	10010760 <wc_AesSetKeyLocal.constprop.0+0x88>
    switch (keySz) {
1001076c:	f1ba 0f18 	cmp.w	sl, #24
10010770:	f000 81e2 	beq.w	10010b38 <wc_AesSetKeyLocal.constprop.0+0x460>
10010774:	f1ba 0f20 	cmp.w	sl, #32
10010778:	f000 8157 	beq.w	10010a2a <wc_AesSetKeyLocal.constprop.0+0x352>
1001077c:	f1ba 0f10 	cmp.w	sl, #16
10010780:	f000 8111 	beq.w	100109a6 <wc_AesSetKeyLocal.constprop.0+0x2ce>
    if (dir == AES_DECRYPTION) {
10010784:	9b0e      	ldr	r3, [sp, #56]	@ 0x38
10010786:	2b01      	cmp	r3, #1
10010788:	d01d      	beq.n	100107c6 <wc_AesSetKeyLocal.constprop.0+0xee>
    if (iv)
1001078a:	2f00      	cmp	r7, #0
1001078c:	f000 8102 	beq.w	10010994 <wc_AesSetKeyLocal.constprop.0+0x2bc>
        XMEMCPY(aes->reg, iv, AES_BLOCK_SIZE);
10010790:	6838      	ldr	r0, [r7, #0]
10010792:	6879      	ldr	r1, [r7, #4]
10010794:	68ba      	ldr	r2, [r7, #8]
10010796:	68fb      	ldr	r3, [r7, #12]
10010798:	f8c4 00f8 	str.w	r0, [r4, #248]	@ 0xf8
1001079c:	f8cb 1004 	str.w	r1, [fp, #4]
100107a0:	f8cb 2008 	str.w	r2, [fp, #8]
100107a4:	f8cb 300c 	str.w	r3, [fp, #12]
        return ret;
100107a8:	2000      	movs	r0, #0
    } /* wc_AesSetKeyLocal */
100107aa:	b005      	add	sp, #20
100107ac:	e8bd 8ff0 	ldmia.w	sp!, {r4, r5, r6, r7, r8, r9, sl, fp, pc}
    else
        XMEMSET(aes->reg,  0, AES_BLOCK_SIZE);
100107b0:	f8c0 70f8 	str.w	r7, [r0, #248]	@ 0xf8
100107b4:	f8cb 7004 	str.w	r7, [fp, #4]
100107b8:	f8cb 7008 	str.w	r7, [fp, #8]
100107bc:	f8cb 700c 	str.w	r7, [fp, #12]
        XMEMCPY(aes->key, userKey, keylen);
100107c0:	f005 fbfe 	bl	10015fc0 <memcpy>
100107c4:	e7bc      	b.n	10010740 <wc_AesSetKeyLocal.constprop.0+0x68>
        for (i = 0, j = 4* aes->rounds; i < j; i += 4, j -= 4) {
100107c6:	f8d4 30f0 	ldr.w	r3, [r4, #240]	@ 0xf0
100107ca:	009e      	lsls	r6, r3, #2
100107cc:	d01f      	beq.n	1001080e <wc_AesSetKeyLocal.constprop.0+0x136>
100107ce:	eb04 1303 	add.w	r3, r4, r3, lsl #4
100107d2:	4622      	mov	r2, r4
100107d4:	2100      	movs	r1, #0
100107d6:	46a4      	mov	ip, r4
            temp = rk[i    ]; rk[i    ] = rk[j    ]; rk[j    ] = temp;
100107d8:	6810      	ldr	r0, [r2, #0]
100107da:	681c      	ldr	r4, [r3, #0]
100107dc:	6014      	str	r4, [r2, #0]
100107de:	6018      	str	r0, [r3, #0]
            temp = rk[i + 1]; rk[i + 1] = rk[j + 1]; rk[j + 1] = temp;
100107e0:	6850      	ldr	r0, [r2, #4]
100107e2:	685c      	ldr	r4, [r3, #4]
100107e4:	6054      	str	r4, [r2, #4]
100107e6:	6058      	str	r0, [r3, #4]
            temp = rk[i + 2]; rk[i + 2] = rk[j + 2]; rk[j + 2] = temp;
100107e8:	6890      	ldr	r0, [r2, #8]
100107ea:	689c      	ldr	r4, [r3, #8]
100107ec:	6094      	str	r4, [r2, #8]
100107ee:	6098      	str	r0, [r3, #8]
            temp = rk[i + 3]; rk[i + 3] = rk[j + 3]; rk[j + 3] = temp;
100107f0:	68d0      	ldr	r0, [r2, #12]
100107f2:	68dc      	ldr	r4, [r3, #12]
100107f4:	60d4      	str	r4, [r2, #12]
        for (i = 0, j = 4* aes->rounds; i < j; i += 4, j -= 4) {
100107f6:	3104      	adds	r1, #4
            temp = rk[i + 3]; rk[i + 3] = rk[j + 3]; rk[j + 3] = temp;
100107f8:	60d8      	str	r0, [r3, #12]
        for (i = 0, j = 4* aes->rounds; i < j; i += 4, j -= 4) {
100107fa:	1a70      	subs	r0, r6, r1
100107fc:	4281      	cmp	r1, r0
100107fe:	f102 0210 	add.w	r2, r2, #16
10010802:	f1a3 0310 	sub.w	r3, r3, #16
10010806:	d3e7      	bcc.n	100107d8 <wc_AesSetKeyLocal.constprop.0+0x100>
        for (i = 1; i < aes->rounds; i++) {
10010808:	f8dc 30f0 	ldr.w	r3, [ip, #240]	@ 0xf0
1001080c:	4664      	mov	r4, ip
1001080e:	2b01      	cmp	r3, #1
10010810:	d9bb      	bls.n	1001078a <wc_AesSetKeyLocal.constprop.0+0xb2>
10010812:	4b8e      	ldr	r3, [pc, #568]	@ (10010a4c <wc_AesSetKeyLocal.constprop.0+0x374>)
10010814:	4a8e      	ldr	r2, [pc, #568]	@ (10010a50 <wc_AesSetKeyLocal.constprop.0+0x378>)
10010816:	f8cd b008 	str.w	fp, [sp, #8]
1001081a:	f04f 0e01 	mov.w	lr, #1
1001081e:	46a3      	mov	fp, r4
10010820:	9703      	str	r7, [sp, #12]
                GetTable(Td[0], GetTable(Te[1], GETBYTE(rk[1], 3)) & 0xff) ^
10010822:	e9d5 6004 	ldrd	r6, r0, [r5, #16]
                GetTable(Td[3], GetTable(Te[1], GETBYTE(rk[0], 0)) & 0xff);
10010826:	b2f4      	uxtb	r4, r6
10010828:	f504 7480 	add.w	r4, r4, #256	@ 0x100
                GetTable(Td[0], GetTable(Te[1], GETBYTE(rk[2], 3)) & 0xff) ^
1001082c:	69a9      	ldr	r1, [r5, #24]
                GetTable(Td[3], GetTable(Te[1], GETBYTE(rk[0], 0)) & 0xff);
1001082e:	f813 4024 	ldrb.w	r4, [r3, r4, lsl #2]
10010832:	f504 7440 	add.w	r4, r4, #768	@ 0x300
                GetTable(Td[0], GetTable(Te[1], GETBYTE(rk[0], 3)) & 0xff) ^
10010836:	ea4f 6a16 	mov.w	sl, r6, lsr #24
                GetTable(Td[2], GetTable(Te[1], GETBYTE(rk[0], 1)) & 0xff) ^
1001083a:	f852 9024 	ldr.w	r9, [r2, r4, lsl #2]
                GetTable(Td[3], GetTable(Te[1], GETBYTE(rk[1], 0)) & 0xff);
1001083e:	b2c4      	uxtb	r4, r0
10010840:	f504 7480 	add.w	r4, r4, #256	@ 0x100
                GetTable(Td[0], GetTable(Te[1], GETBYTE(rk[0], 3)) & 0xff) ^
10010844:	f50a 7a80 	add.w	sl, sl, #256	@ 0x100
                GetTable(Td[3], GetTable(Te[1], GETBYTE(rk[1], 0)) & 0xff);
10010848:	f813 4024 	ldrb.w	r4, [r3, r4, lsl #2]
                GetTable(Td[0], GetTable(Te[1], GETBYTE(rk[0], 3)) & 0xff) ^
1001084c:	f813 a02a 	ldrb.w	sl, [r3, sl, lsl #2]
                GetTable(Td[3], GetTable(Te[1], GETBYTE(rk[1], 0)) & 0xff);
10010850:	f504 7440 	add.w	r4, r4, #768	@ 0x300
                GetTable(Td[2], GetTable(Te[1], GETBYTE(rk[0], 1)) & 0xff) ^
10010854:	f852 a02a 	ldr.w	sl, [r2, sl, lsl #2]
                GetTable(Td[2], GetTable(Te[1], GETBYTE(rk[1], 1)) & 0xff) ^
10010858:	f852 c024 	ldr.w	ip, [r2, r4, lsl #2]
                GetTable(Td[3], GetTable(Te[1], GETBYTE(rk[2], 0)) & 0xff);
1001085c:	b2cc      	uxtb	r4, r1
1001085e:	f504 7480 	add.w	r4, r4, #256	@ 0x100
                GetTable(Td[2], GetTable(Te[1], GETBYTE(rk[0], 1)) & 0xff) ^
10010862:	ea8a 0a09 	eor.w	sl, sl, r9
                GetTable(Td[3], GetTable(Te[1], GETBYTE(rk[2], 0)) & 0xff);
10010866:	f813 4024 	ldrb.w	r4, [r3, r4, lsl #2]
1001086a:	f504 7440 	add.w	r4, r4, #768	@ 0x300
                GetTable(Td[1], GetTable(Te[1], GETBYTE(rk[2], 2)) & 0xff) ^
1001086e:	f3c1 4707 	ubfx	r7, r1, #16, #8
                GetTable(Td[2], GetTable(Te[1], GETBYTE(rk[2], 1)) & 0xff) ^
10010872:	f852 4024 	ldr.w	r4, [r2, r4, lsl #2]
10010876:	9401      	str	r4, [sp, #4]
                GetTable(Td[1], GetTable(Te[1], GETBYTE(rk[0], 2)) & 0xff) ^
10010878:	f3c6 4407 	ubfx	r4, r6, #16, #8
1001087c:	f504 7480 	add.w	r4, r4, #256	@ 0x100
                GetTable(Td[2], GetTable(Te[1], GETBYTE(rk[0], 1)) & 0xff) ^
10010880:	f3c6 2607 	ubfx	r6, r6, #8, #8
10010884:	f506 7680 	add.w	r6, r6, #256	@ 0x100
                GetTable(Td[1], GetTable(Te[1], GETBYTE(rk[0], 2)) & 0xff) ^
10010888:	f813 4024 	ldrb.w	r4, [r3, r4, lsl #2]
                GetTable(Td[2], GetTable(Te[1], GETBYTE(rk[0], 1)) & 0xff) ^
1001088c:	f813 6026 	ldrb.w	r6, [r3, r6, lsl #2]
                GetTable(Td[1], GetTable(Te[1], GETBYTE(rk[0], 2)) & 0xff) ^
10010890:	f504 7480 	add.w	r4, r4, #256	@ 0x100
                GetTable(Td[2], GetTable(Te[1], GETBYTE(rk[0], 1)) & 0xff) ^
10010894:	f506 7600 	add.w	r6, r6, #512	@ 0x200
10010898:	f852 8024 	ldr.w	r8, [r2, r4, lsl #2]
1001089c:	f852 6026 	ldr.w	r6, [r2, r6, lsl #2]
100108a0:	ea8a 0a08 	eor.w	sl, sl, r8
                GetTable(Td[1], GetTable(Te[1], GETBYTE(rk[1], 2)) & 0xff) ^
100108a4:	f3c0 4407 	ubfx	r4, r0, #16, #8
                GetTable(Td[2], GetTable(Te[1], GETBYTE(rk[0], 1)) & 0xff) ^
100108a8:	ea8a 0606 	eor.w	r6, sl, r6
            rk[0] =
100108ac:	612e      	str	r6, [r5, #16]
                GetTable(Td[1], GetTable(Te[1], GETBYTE(rk[1], 2)) & 0xff) ^
100108ae:	f504 7480 	add.w	r4, r4, #256	@ 0x100
                GetTable(Td[0], GetTable(Te[1], GETBYTE(rk[1], 3)) & 0xff) ^
100108b2:	0e06      	lsrs	r6, r0, #24
100108b4:	f506 7680 	add.w	r6, r6, #256	@ 0x100
                GetTable(Td[2], GetTable(Te[1], GETBYTE(rk[1], 1)) & 0xff) ^
100108b8:	f3c0 2007 	ubfx	r0, r0, #8, #8
                GetTable(Td[1], GetTable(Te[1], GETBYTE(rk[1], 2)) & 0xff) ^
100108bc:	f813 4024 	ldrb.w	r4, [r3, r4, lsl #2]
                GetTable(Td[0], GetTable(Te[1], GETBYTE(rk[1], 3)) & 0xff) ^
100108c0:	f813 6026 	ldrb.w	r6, [r3, r6, lsl #2]
                GetTable(Td[2], GetTable(Te[1], GETBYTE(rk[1], 1)) & 0xff) ^
100108c4:	f500 7080 	add.w	r0, r0, #256	@ 0x100
                GetTable(Td[1], GetTable(Te[1], GETBYTE(rk[1], 2)) & 0xff) ^
100108c8:	f504 7480 	add.w	r4, r4, #256	@ 0x100
                GetTable(Td[2], GetTable(Te[1], GETBYTE(rk[1], 1)) & 0xff) ^
100108cc:	f813 8020 	ldrb.w	r8, [r3, r0, lsl #2]
100108d0:	f852 0026 	ldr.w	r0, [r2, r6, lsl #2]
100108d4:	f852 4024 	ldr.w	r4, [r2, r4, lsl #2]
100108d8:	f508 7800 	add.w	r8, r8, #512	@ 0x200
100108dc:	ea80 000c 	eor.w	r0, r0, ip
100108e0:	4060      	eors	r0, r4
100108e2:	f852 4028 	ldr.w	r4, [r2, r8, lsl #2]
100108e6:	4060      	eors	r0, r4
            rk[1] =
100108e8:	6168      	str	r0, [r5, #20]
                GetTable(Td[1], GetTable(Te[1], GETBYTE(rk[2], 2)) & 0xff) ^
100108ea:	f507 7780 	add.w	r7, r7, #256	@ 0x100
                GetTable(Td[0], GetTable(Te[1], GETBYTE(rk[2], 3)) & 0xff) ^
100108ee:	0e08      	lsrs	r0, r1, #24
                GetTable(Td[2], GetTable(Te[1], GETBYTE(rk[2], 1)) & 0xff) ^
100108f0:	f3c1 2107 	ubfx	r1, r1, #8, #8
                GetTable(Td[0], GetTable(Te[1], GETBYTE(rk[2], 3)) & 0xff) ^
100108f4:	f500 7080 	add.w	r0, r0, #256	@ 0x100
                GetTable(Td[2], GetTable(Te[1], GETBYTE(rk[2], 1)) & 0xff) ^
100108f8:	f501 7180 	add.w	r1, r1, #256	@ 0x100
                GetTable(Td[1], GetTable(Te[1], GETBYTE(rk[2], 2)) & 0xff) ^
100108fc:	f813 7027 	ldrb.w	r7, [r3, r7, lsl #2]
                GetTable(Td[0], GetTable(Te[1], GETBYTE(rk[2], 3)) & 0xff) ^
10010900:	f813 4020 	ldrb.w	r4, [r3, r0, lsl #2]
                GetTable(Td[2], GetTable(Te[1], GETBYTE(rk[2], 1)) & 0xff) ^
10010904:	f813 0021 	ldrb.w	r0, [r3, r1, lsl #2]
10010908:	f852 1024 	ldr.w	r1, [r2, r4, lsl #2]
1001090c:	9c01      	ldr	r4, [sp, #4]
                GetTable(Td[1], GetTable(Te[1], GETBYTE(rk[2], 2)) & 0xff) ^
1001090e:	f507 7780 	add.w	r7, r7, #256	@ 0x100
                GetTable(Td[2], GetTable(Te[1], GETBYTE(rk[2], 1)) & 0xff) ^
10010912:	f500 7000 	add.w	r0, r0, #512	@ 0x200
10010916:	f852 7027 	ldr.w	r7, [r2, r7, lsl #2]
1001091a:	f852 0020 	ldr.w	r0, [r2, r0, lsl #2]
1001091e:	4061      	eors	r1, r4
10010920:	4079      	eors	r1, r7
10010922:	4041      	eors	r1, r0
            rk[2] =
10010924:	61a9      	str	r1, [r5, #24]
                GetTable(Td[0], GetTable(Te[1], GETBYTE(rk[3], 3)) & 0xff) ^
10010926:	69e9      	ldr	r1, [r5, #28]
10010928:	0e08      	lsrs	r0, r1, #24
1001092a:	f500 7080 	add.w	r0, r0, #256	@ 0x100
        for (i = 1; i < aes->rounds; i++) {
1001092e:	3510      	adds	r5, #16
                GetTable(Td[0], GetTable(Te[1], GETBYTE(rk[3], 3)) & 0xff) ^
10010930:	f813 6020 	ldrb.w	r6, [r3, r0, lsl #2]
                GetTable(Td[3], GetTable(Te[1], GETBYTE(rk[3], 0)) & 0xff);
10010934:	b2c8      	uxtb	r0, r1
10010936:	f500 7080 	add.w	r0, r0, #256	@ 0x100
        for (i = 1; i < aes->rounds; i++) {
1001093a:	f10e 0e01 	add.w	lr, lr, #1
                GetTable(Td[3], GetTable(Te[1], GETBYTE(rk[3], 0)) & 0xff);
1001093e:	f813 4020 	ldrb.w	r4, [r3, r0, lsl #2]
                GetTable(Td[2], GetTable(Te[1], GETBYTE(rk[3], 1)) & 0xff) ^
10010942:	f852 0026 	ldr.w	r0, [r2, r6, lsl #2]
                GetTable(Td[3], GetTable(Te[1], GETBYTE(rk[3], 0)) & 0xff);
10010946:	f504 7440 	add.w	r4, r4, #768	@ 0x300
                GetTable(Td[2], GetTable(Te[1], GETBYTE(rk[3], 1)) & 0xff) ^
1001094a:	f852 4024 	ldr.w	r4, [r2, r4, lsl #2]
1001094e:	4060      	eors	r0, r4
                GetTable(Td[1], GetTable(Te[1], GETBYTE(rk[3], 2)) & 0xff) ^
10010950:	f3c1 4407 	ubfx	r4, r1, #16, #8
10010954:	f504 7480 	add.w	r4, r4, #256	@ 0x100
                GetTable(Td[2], GetTable(Te[1], GETBYTE(rk[3], 1)) & 0xff) ^
10010958:	f3c1 2107 	ubfx	r1, r1, #8, #8
                GetTable(Td[1], GetTable(Te[1], GETBYTE(rk[3], 2)) & 0xff) ^
1001095c:	f813 6024 	ldrb.w	r6, [r3, r4, lsl #2]
                GetTable(Td[2], GetTable(Te[1], GETBYTE(rk[3], 1)) & 0xff) ^
10010960:	f501 7180 	add.w	r1, r1, #256	@ 0x100
10010964:	f813 4021 	ldrb.w	r4, [r3, r1, lsl #2]
                GetTable(Td[1], GetTable(Te[1], GETBYTE(rk[3], 2)) & 0xff) ^
10010968:	f506 7180 	add.w	r1, r6, #256	@ 0x100
                GetTable(Td[2], GetTable(Te[1], GETBYTE(rk[3], 1)) & 0xff) ^
1001096c:	f504 7400 	add.w	r4, r4, #512	@ 0x200
10010970:	f852 1021 	ldr.w	r1, [r2, r1, lsl #2]
10010974:	4041      	eors	r1, r0
10010976:	f852 0024 	ldr.w	r0, [r2, r4, lsl #2]
1001097a:	4041      	eors	r1, r0
            rk[3] =
1001097c:	60e9      	str	r1, [r5, #12]
        for (i = 1; i < aes->rounds; i++) {
1001097e:	f8db 10f0 	ldr.w	r1, [fp, #240]	@ 0xf0
10010982:	458e      	cmp	lr, r1
10010984:	f4ff af4d 	bcc.w	10010822 <wc_AesSetKeyLocal.constprop.0+0x14a>
10010988:	465c      	mov	r4, fp
1001098a:	e9dd b702 	ldrd	fp, r7, [sp, #8]
    if (iv)
1001098e:	2f00      	cmp	r7, #0
10010990:	f47f aefe 	bne.w	10010790 <wc_AesSetKeyLocal.constprop.0+0xb8>
        XMEMSET(aes->reg,  0, AES_BLOCK_SIZE);
10010994:	f8c4 70f8 	str.w	r7, [r4, #248]	@ 0xf8
10010998:	f8cb 7004 	str.w	r7, [fp, #4]
1001099c:	f8cb 7008 	str.w	r7, [fp, #8]
100109a0:	f8cb 700c 	str.w	r7, [fp, #12]
100109a4:	e700      	b.n	100107a8 <wc_AesSetKeyLocal.constprop.0+0xd0>
100109a6:	e9d4 ce01 	ldrd	ip, lr, [r4, #4]
100109aa:	4b28      	ldr	r3, [pc, #160]	@ (10010a4c <wc_AesSetKeyLocal.constprop.0+0x374>)
100109ac:	f8df 80a4 	ldr.w	r8, [pc, #164]	@ 10010a54 <wc_AesSetKeyLocal.constprop.0+0x37c>
100109b0:	6820      	ldr	r0, [r4, #0]
100109b2:	68e1      	ldr	r1, [r4, #12]
100109b4:	46a2      	mov	sl, r4
100109b6:	461a      	mov	r2, r3
100109b8:	4674      	mov	r4, lr
100109ba:	4663      	mov	r3, ip
100109bc:	f108 0928 	add.w	r9, r8, #40	@ 0x28
100109c0:	4694      	mov	ip, r2
100109c2:	46d6      	mov	lr, sl
100109c4:	e000      	b.n	100109c8 <wc_AesSetKeyLocal.constprop.0+0x2f0>
            rk += 4;
100109c6:	3610      	adds	r6, #16
                (GetTable(Te[0], GETBYTE(temp, 0)) & 0x0000ff00) ^
100109c8:	b2ca      	uxtb	r2, r1
                (GetTable(Te[1], GETBYTE(temp, 3)) & 0x000000ff) ^
100109ca:	ea4f 6a11 	mov.w	sl, r1, lsr #24
100109ce:	f50a 7a80 	add.w	sl, sl, #256	@ 0x100
                (GetTable(Te[0], GETBYTE(temp, 0)) & 0x0000ff00) ^
100109d2:	f85c 2022 	ldr.w	r2, [ip, r2, lsl #2]
                (GetTable(Te[1], GETBYTE(temp, 3)) & 0x000000ff) ^
100109d6:	f81c a02a 	ldrb.w	sl, [ip, sl, lsl #2]
                (GetTable(Te[0], GETBYTE(temp, 0)) & 0x0000ff00) ^
100109da:	f402 427f 	and.w	r2, r2, #65280	@ 0xff00
                (GetTable(Te[1], GETBYTE(temp, 3)) & 0x000000ff) ^
100109de:	ea42 020a 	orr.w	r2, r2, sl
                (GetTable(Te[2], GETBYTE(temp, 2)) & 0xff000000) ^
100109e2:	f3c1 4a07 	ubfx	sl, r1, #16, #8
100109e6:	f50a 7a00 	add.w	sl, sl, #512	@ 0x200
100109ea:	f85c a02a 	ldr.w	sl, [ip, sl, lsl #2]
100109ee:	f00a 4a7f 	and.w	sl, sl, #4278190080	@ 0xff000000
                (GetTable(Te[1], GETBYTE(temp, 3)) & 0x000000ff) ^
100109f2:	ea82 020a 	eor.w	r2, r2, sl
                (GetTable(Te[3], GETBYTE(temp, 1)) & 0x00ff0000) ^
100109f6:	f3c1 2a07 	ubfx	sl, r1, #8, #8
100109fa:	f50a 7a40 	add.w	sl, sl, #768	@ 0x300
100109fe:	f85c a02a 	ldr.w	sl, [ip, sl, lsl #2]
10010a02:	f40a 0a7f 	and.w	sl, sl, #16711680	@ 0xff0000
                (GetTable(Te[1], GETBYTE(temp, 3)) & 0x000000ff) ^
10010a06:	ea82 020a 	eor.w	r2, r2, sl
                rcon[i];
10010a0a:	f858 ab04 	ldr.w	sl, [r8], #4
                (GetTable(Te[1], GETBYTE(temp, 3)) & 0x000000ff) ^
10010a0e:	ea82 020a 	eor.w	r2, r2, sl
10010a12:	4050      	eors	r0, r2
            rk[5] = rk[1] ^ rk[4];
10010a14:	4043      	eors	r3, r0
            rk[6] = rk[2] ^ rk[5];
10010a16:	405c      	eors	r4, r3
            rk[7] = rk[3] ^ rk[6];
10010a18:	4061      	eors	r1, r4
            if (++i == 10)
10010a1a:	45c1      	cmp	r9, r8
            rk[5] = rk[1] ^ rk[4];
10010a1c:	e9c6 0304 	strd	r0, r3, [r6, #16]
            rk[7] = rk[3] ^ rk[6];
10010a20:	e9c6 4106 	strd	r4, r1, [r6, #24]
            if (++i == 10)
10010a24:	d1cf      	bne.n	100109c6 <wc_AesSetKeyLocal.constprop.0+0x2ee>
10010a26:	4674      	mov	r4, lr
10010a28:	e6ac      	b.n	10010784 <wc_AesSetKeyLocal.constprop.0+0xac>
10010a2a:	e9d4 8e00 	ldrd	r8, lr, [r4]
10010a2e:	e9d4 c102 	ldrd	ip, r1, [r4, #8]
10010a32:	4622      	mov	r2, r4
10010a34:	9501      	str	r5, [sp, #4]
10010a36:	4664      	mov	r4, ip
10010a38:	f8df 901c 	ldr.w	r9, [pc, #28]	@ 10010a58 <wc_AesSetKeyLocal.constprop.0+0x380>
10010a3c:	4b03      	ldr	r3, [pc, #12]	@ (10010a4c <wc_AesSetKeyLocal.constprop.0+0x374>)
10010a3e:	9702      	str	r7, [sp, #8]
10010a40:	4640      	mov	r0, r8
10010a42:	4675      	mov	r5, lr
10010a44:	4694      	mov	ip, r2
10010a46:	e03d      	b.n	10010ac4 <wc_AesSetKeyLocal.constprop.0+0x3ec>
10010a48:	00010101 	.word	0x00010101
10010a4c:	1001c720 	.word	0x1001c720
10010a50:	1001b720 	.word	0x1001b720
10010a54:	1001d720 	.word	0x1001d720
10010a58:	1001d71c 	.word	0x1001d71c
                (GetTable(Te[3], GETBYTE(temp, 2)) & 0x00ff0000) ^
10010a5c:	f3c1 4e07 	ubfx	lr, r1, #16, #8
10010a60:	f50e 7e40 	add.w	lr, lr, #768	@ 0x300
                (GetTable(Te[0], GETBYTE(temp, 1)) & 0x0000ff00) ^
10010a64:	f3c1 2807 	ubfx	r8, r1, #8, #8
                (GetTable(Te[3], GETBYTE(temp, 2)) & 0x00ff0000) ^
10010a68:	f853 e02e 	ldr.w	lr, [r3, lr, lsl #2]
                (GetTable(Te[0], GETBYTE(temp, 1)) & 0x0000ff00) ^
10010a6c:	f853 8028 	ldr.w	r8, [r3, r8, lsl #2]
10010a70:	6937      	ldr	r7, [r6, #16]
10010a72:	f408 487f 	and.w	r8, r8, #65280	@ 0xff00
                (GetTable(Te[3], GETBYTE(temp, 2)) & 0x00ff0000) ^
10010a76:	f40e 0e7f 	and.w	lr, lr, #16711680	@ 0xff0000
                (GetTable(Te[0], GETBYTE(temp, 1)) & 0x0000ff00) ^
10010a7a:	ea4e 0e08 	orr.w	lr, lr, r8
                (GetTable(Te[2], GETBYTE(temp, 3)) & 0xff000000) ^
10010a7e:	ea4f 6811 	mov.w	r8, r1, lsr #24
10010a82:	f508 7800 	add.w	r8, r8, #512	@ 0x200
                (GetTable(Te[0], GETBYTE(temp, 1)) & 0x0000ff00) ^
10010a86:	ea8e 0e07 	eor.w	lr, lr, r7
                (GetTable(Te[2], GETBYTE(temp, 3)) & 0xff000000) ^
10010a8a:	f853 a028 	ldr.w	sl, [r3, r8, lsl #2]
            rk[13] = rk[ 5] ^ rk[12];
10010a8e:	6977      	ldr	r7, [r6, #20]
                (GetTable(Te[1], GETBYTE(temp, 0)) & 0x000000ff);
10010a90:	fa5f f881 	uxtb.w	r8, r1
10010a94:	f508 7880 	add.w	r8, r8, #256	@ 0x100
                (GetTable(Te[2], GETBYTE(temp, 3)) & 0xff000000) ^
10010a98:	f00a 4a7f 	and.w	sl, sl, #4278190080	@ 0xff000000
                (GetTable(Te[1], GETBYTE(temp, 0)) & 0x000000ff);
10010a9c:	f813 8028 	ldrb.w	r8, [r3, r8, lsl #2]
                (GetTable(Te[0], GETBYTE(temp, 1)) & 0x0000ff00) ^
10010aa0:	ea4a 0808 	orr.w	r8, sl, r8
10010aa4:	ea8e 0e08 	eor.w	lr, lr, r8
            rk[12] = rk[ 4] ^
10010aa8:	f8c6 e030 	str.w	lr, [r6, #48]	@ 0x30
            rk[13] = rk[ 5] ^ rk[12];
10010aac:	ea8e 0e07 	eor.w	lr, lr, r7
            rk[14] = rk[ 6] ^ rk[13];
10010ab0:	69b7      	ldr	r7, [r6, #24]
            rk[13] = rk[ 5] ^ rk[12];
10010ab2:	f8c6 e034 	str.w	lr, [r6, #52]	@ 0x34
            rk[14] = rk[ 6] ^ rk[13];
10010ab6:	ea8e 0e07 	eor.w	lr, lr, r7
            rk[15] = rk[ 7] ^ rk[14];
10010aba:	ea82 020e 	eor.w	r2, r2, lr
10010abe:	e9c6 e20e 	strd	lr, r2, [r6, #56]	@ 0x38
            rk += 8;
10010ac2:	3620      	adds	r6, #32
            temp = rk[ 7];
10010ac4:	69f2      	ldr	r2, [r6, #28]
                (GetTable(Te[1], GETBYTE(temp, 3)) & 0x000000ff) ^
10010ac6:	f859 af04 	ldr.w	sl, [r9, #4]!
            if (++i == 7)
10010aca:	4f42      	ldr	r7, [pc, #264]	@ (10010bd4 <wc_AesSetKeyLocal.constprop.0+0x4fc>)
                (GetTable(Te[0], GETBYTE(temp, 0)) & 0x0000ff00) ^
10010acc:	fa5f fe82 	uxtb.w	lr, r2
                (GetTable(Te[1], GETBYTE(temp, 3)) & 0x000000ff) ^
10010ad0:	ea4f 6812 	mov.w	r8, r2, lsr #24
10010ad4:	f508 7880 	add.w	r8, r8, #256	@ 0x100
                (GetTable(Te[0], GETBYTE(temp, 0)) & 0x0000ff00) ^
10010ad8:	f853 e02e 	ldr.w	lr, [r3, lr, lsl #2]
                (GetTable(Te[1], GETBYTE(temp, 3)) & 0x000000ff) ^
10010adc:	f813 8028 	ldrb.w	r8, [r3, r8, lsl #2]
                (GetTable(Te[0], GETBYTE(temp, 0)) & 0x0000ff00) ^
10010ae0:	f40e 4e7f 	and.w	lr, lr, #65280	@ 0xff00
                (GetTable(Te[1], GETBYTE(temp, 3)) & 0x000000ff) ^
10010ae4:	ea4e 0e08 	orr.w	lr, lr, r8
                (GetTable(Te[2], GETBYTE(temp, 2)) & 0xff000000) ^
10010ae8:	f3c2 4807 	ubfx	r8, r2, #16, #8
10010aec:	f508 7800 	add.w	r8, r8, #512	@ 0x200
                (GetTable(Te[1], GETBYTE(temp, 3)) & 0x000000ff) ^
10010af0:	ea8e 0e0a 	eor.w	lr, lr, sl
                (GetTable(Te[2], GETBYTE(temp, 2)) & 0xff000000) ^
10010af4:	f853 8028 	ldr.w	r8, [r3, r8, lsl #2]
10010af8:	f008 487f 	and.w	r8, r8, #4278190080	@ 0xff000000
                (GetTable(Te[1], GETBYTE(temp, 3)) & 0x000000ff) ^
10010afc:	ea8e 0e08 	eor.w	lr, lr, r8
                (GetTable(Te[3], GETBYTE(temp, 1)) & 0x00ff0000) ^
10010b00:	f3c2 2807 	ubfx	r8, r2, #8, #8
10010b04:	f508 7840 	add.w	r8, r8, #768	@ 0x300
            if (++i == 7)
10010b08:	454f      	cmp	r7, r9
                (GetTable(Te[3], GETBYTE(temp, 1)) & 0x00ff0000) ^
10010b0a:	f853 8028 	ldr.w	r8, [r3, r8, lsl #2]
10010b0e:	f408 087f 	and.w	r8, r8, #16711680	@ 0xff0000
                (GetTable(Te[1], GETBYTE(temp, 3)) & 0x000000ff) ^
10010b12:	ea8e 0e08 	eor.w	lr, lr, r8
10010b16:	ea80 000e 	eor.w	r0, r0, lr
            rk[ 9] = rk[ 1] ^ rk[ 8];
10010b1a:	ea85 0500 	eor.w	r5, r5, r0
            rk[10] = rk[ 2] ^ rk[ 9];
10010b1e:	ea84 0405 	eor.w	r4, r4, r5
            rk[11] = rk[ 3] ^ rk[10];
10010b22:	ea81 0104 	eor.w	r1, r1, r4
            rk[ 9] = rk[ 1] ^ rk[ 8];
10010b26:	e9c6 0508 	strd	r0, r5, [r6, #32]
            rk[11] = rk[ 3] ^ rk[10];
10010b2a:	e9c6 410a 	strd	r4, r1, [r6, #40]	@ 0x28
            if (++i == 7)
10010b2e:	d195      	bne.n	10010a5c <wc_AesSetKeyLocal.constprop.0+0x384>
10010b30:	9d01      	ldr	r5, [sp, #4]
10010b32:	9f02      	ldr	r7, [sp, #8]
10010b34:	4664      	mov	r4, ip
10010b36:	e625      	b.n	10010784 <wc_AesSetKeyLocal.constprop.0+0xac>
10010b38:	e9d4 c902 	ldrd	ip, r9, [r4, #8]
10010b3c:	4b26      	ldr	r3, [pc, #152]	@ (10010bd8 <wc_AesSetKeyLocal.constprop.0+0x500>)
10010b3e:	f8d4 e000 	ldr.w	lr, [r4]
10010b42:	6860      	ldr	r0, [r4, #4]
10010b44:	9501      	str	r5, [sp, #4]
10010b46:	461a      	mov	r2, r3
10010b48:	46a0      	mov	r8, r4
10010b4a:	4663      	mov	r3, ip
10010b4c:	f8df a090 	ldr.w	sl, [pc, #144]	@ 10010be0 <wc_AesSetKeyLocal.constprop.0+0x508>
10010b50:	4675      	mov	r5, lr
10010b52:	464c      	mov	r4, r9
10010b54:	4694      	mov	ip, r2
10010b56:	e005      	b.n	10010b64 <wc_AesSetKeyLocal.constprop.0+0x48c>
            rk[10] = rk[ 4] ^ rk[ 9];
10010b58:	6932      	ldr	r2, [r6, #16]
10010b5a:	4062      	eors	r2, r4
            rk[11] = rk[ 5] ^ rk[10];
10010b5c:	4051      	eors	r1, r2
10010b5e:	e9c6 210a 	strd	r2, r1, [r6, #40]	@ 0x28
            rk += 6;
10010b62:	3618      	adds	r6, #24
            temp = rk[ 5];
10010b64:	6971      	ldr	r1, [r6, #20]
                (GetTable(Te[1], GETBYTE(temp, 3)) & 0x000000ff) ^
10010b66:	f85a 9f04 	ldr.w	r9, [sl, #4]!
                (GetTable(Te[0], GETBYTE(temp, 0)) & 0x0000ff00) ^
10010b6a:	b2ca      	uxtb	r2, r1
                (GetTable(Te[1], GETBYTE(temp, 3)) & 0x000000ff) ^
10010b6c:	ea4f 6e11 	mov.w	lr, r1, lsr #24
10010b70:	f50e 7e80 	add.w	lr, lr, #256	@ 0x100
                (GetTable(Te[0], GETBYTE(temp, 0)) & 0x0000ff00) ^
10010b74:	f85c 2022 	ldr.w	r2, [ip, r2, lsl #2]
                (GetTable(Te[1], GETBYTE(temp, 3)) & 0x000000ff) ^
10010b78:	f81c e02e 	ldrb.w	lr, [ip, lr, lsl #2]
                (GetTable(Te[0], GETBYTE(temp, 0)) & 0x0000ff00) ^
10010b7c:	f402 427f 	and.w	r2, r2, #65280	@ 0xff00
                (GetTable(Te[1], GETBYTE(temp, 3)) & 0x000000ff) ^
10010b80:	ea42 020e 	orr.w	r2, r2, lr
                (GetTable(Te[2], GETBYTE(temp, 2)) & 0xff000000) ^
10010b84:	f3c1 4e07 	ubfx	lr, r1, #16, #8
10010b88:	f50e 7e00 	add.w	lr, lr, #512	@ 0x200
                (GetTable(Te[1], GETBYTE(temp, 3)) & 0x000000ff) ^
10010b8c:	ea82 0209 	eor.w	r2, r2, r9
                (GetTable(Te[2], GETBYTE(temp, 2)) & 0xff000000) ^
10010b90:	f85c e02e 	ldr.w	lr, [ip, lr, lsl #2]
10010b94:	f00e 4e7f 	and.w	lr, lr, #4278190080	@ 0xff000000
                (GetTable(Te[1], GETBYTE(temp, 3)) & 0x000000ff) ^
10010b98:	ea82 020e 	eor.w	r2, r2, lr
                (GetTable(Te[3], GETBYTE(temp, 1)) & 0x00ff0000) ^
10010b9c:	f3c1 2e07 	ubfx	lr, r1, #8, #8
10010ba0:	f50e 7e40 	add.w	lr, lr, #768	@ 0x300
10010ba4:	f85c e02e 	ldr.w	lr, [ip, lr, lsl #2]
10010ba8:	f40e 0e7f 	and.w	lr, lr, #16711680	@ 0xff0000
                (GetTable(Te[1], GETBYTE(temp, 3)) & 0x000000ff) ^
10010bac:	ea82 020e 	eor.w	r2, r2, lr
10010bb0:	4055      	eors	r5, r2
            rk[ 7] = rk[ 1] ^ rk[ 6];
10010bb2:	4068      	eors	r0, r5
            if (++i == 8)
10010bb4:	4a09      	ldr	r2, [pc, #36]	@ (10010bdc <wc_AesSetKeyLocal.constprop.0+0x504>)
            rk[ 8] = rk[ 2] ^ rk[ 7];
10010bb6:	4043      	eors	r3, r0
            rk[ 9] = rk[ 3] ^ rk[ 8];
10010bb8:	405c      	eors	r4, r3
            if (++i == 8)
10010bba:	4552      	cmp	r2, sl
            rk[ 7] = rk[ 1] ^ rk[ 6];
10010bbc:	e9c6 5006 	strd	r5, r0, [r6, #24]
            rk[ 9] = rk[ 3] ^ rk[ 8];
10010bc0:	e9c6 3408 	strd	r3, r4, [r6, #32]
            if (++i == 8)
10010bc4:	d1c8      	bne.n	10010b58 <wc_AesSetKeyLocal.constprop.0+0x480>
10010bc6:	9d01      	ldr	r5, [sp, #4]
10010bc8:	4644      	mov	r4, r8
10010bca:	e5db      	b.n	10010784 <wc_AesSetKeyLocal.constprop.0+0xac>
10010bcc:	f06f 00ac 	mvn.w	r0, #172	@ 0xac
    } /* wc_AesSetKeyLocal */
10010bd0:	4770      	bx	lr
10010bd2:	bf00      	nop
10010bd4:	1001d738 	.word	0x1001d738
10010bd8:	1001c720 	.word	0x1001c720
10010bdc:	1001d73c 	.word	0x1001d73c
10010be0:	1001d71c 	.word	0x1001d71c

10010be4 <wc_AesSetKey>:
    {
10010be4:	b410      	push	{r4}
10010be6:	9c01      	ldr	r4, [sp, #4]
        if (aes == NULL) {
10010be8:	b130      	cbz	r0, 10010bf8 <wc_AesSetKey+0x14>
        if (keylen > sizeof(aes->key)) {
10010bea:	2af0      	cmp	r2, #240	@ 0xf0
10010bec:	d804      	bhi.n	10010bf8 <wc_AesSetKey+0x14>
        return wc_AesSetKeyLocal(aes, userKey, keylen, iv, dir, 1);
10010bee:	9401      	str	r4, [sp, #4]
    } /* wc_AesSetKey() */
10010bf0:	f85d 4b04 	ldr.w	r4, [sp], #4
        return wc_AesSetKeyLocal(aes, userKey, keylen, iv, dir, 1);
10010bf4:	f7ff bd70 	b.w	100106d8 <wc_AesSetKeyLocal.constprop.0>
    } /* wc_AesSetKey() */
10010bf8:	f06f 00ac 	mvn.w	r0, #172	@ 0xac
10010bfc:	f85d 4b04 	ldr.w	r4, [sp], #4
10010c00:	4770      	bx	lr
10010c02:	bf00      	nop

10010c04 <wc_AesEncryptDirect>:
        /* Allow direct access to one block encrypt */
        int wc_AesEncryptDirect(Aes* aes, byte* out, const byte* in)
        {
            int ret;

            if (aes == NULL)
10010c04:	b190      	cbz	r0, 10010c2c <wc_AesEncryptDirect+0x28>
        {
10010c06:	b508      	push	{r3, lr}
10010c08:	4613      	mov	r3, r2
10010c0a:	460a      	mov	r2, r1
10010c0c:	4619      	mov	r1, r3
    r = aes->rounds >> 1;
10010c0e:	f8d0 30f0 	ldr.w	r3, [r0, #240]	@ 0xf0
10010c12:	085b      	lsrs	r3, r3, #1
    if (r > 7 || r == 0) {
10010c14:	f103 3cff 	add.w	ip, r3, #4294967295	@ 0xffffffff
10010c18:	f1bc 0f06 	cmp.w	ip, #6
10010c1c:	d803      	bhi.n	10010c26 <wc_AesEncryptDirect+0x22>
    AesEncrypt_C(aes, inBlock, outBlock, r);
10010c1e:	f7fd ffbb 	bl	1000eb98 <AesEncrypt_C>
    return 0;
10010c22:	2000      	movs	r0, #0
                return BAD_FUNC_ARG;
            VECTOR_REGISTERS_PUSH;
            ret = wc_AesEncrypt(aes, in, out);
            VECTOR_REGISTERS_POP;
            return ret;
        }
10010c24:	bd08      	pop	{r3, pc}
        return KEYUSAGE_E;
10010c26:	f06f 00e1 	mvn.w	r0, #225	@ 0xe1
        }
10010c2a:	bd08      	pop	{r3, pc}
                return BAD_FUNC_ARG;
10010c2c:	f06f 00ac 	mvn.w	r0, #172	@ 0xac
        }
10010c30:	4770      	bx	lr
10010c32:	bf00      	nop

10010c34 <wc_AesDecryptDirect>:
        /* Allow direct access to one block decrypt */
        int wc_AesDecryptDirect(Aes* aes, byte* out, const byte* in)
        {
            int ret;

            if (aes == NULL)
10010c34:	b190      	cbz	r0, 10010c5c <wc_AesDecryptDirect+0x28>
        {
10010c36:	b508      	push	{r3, lr}
10010c38:	4613      	mov	r3, r2
10010c3a:	460a      	mov	r2, r1
10010c3c:	4619      	mov	r1, r3
    r = aes->rounds >> 1;
10010c3e:	f8d0 30f0 	ldr.w	r3, [r0, #240]	@ 0xf0
10010c42:	085b      	lsrs	r3, r3, #1
    if (r > 7 || r == 0) {
10010c44:	f103 3cff 	add.w	ip, r3, #4294967295	@ 0xffffffff
10010c48:	f1bc 0f06 	cmp.w	ip, #6
10010c4c:	d803      	bhi.n	10010c56 <wc_AesDecryptDirect+0x22>
    AesDecrypt_C(aes, inBlock, outBlock, r);
10010c4e:	f7fe fe8b 	bl	1000f968 <AesDecrypt_C>
    return 0;
10010c52:	2000      	movs	r0, #0
                return BAD_FUNC_ARG;
            VECTOR_REGISTERS_PUSH;
            ret = wc_AesDecrypt(aes, in, out);
            VECTOR_REGISTERS_POP;
            return ret;
        }
10010c54:	bd08      	pop	{r3, pc}
        return KEYUSAGE_E;
10010c56:	f06f 00e1 	mvn.w	r0, #225	@ 0xe1
        }
10010c5a:	bd08      	pop	{r3, pc}
                return BAD_FUNC_ARG;
10010c5c:	f06f 00ac 	mvn.w	r0, #172	@ 0xac
        }
10010c60:	4770      	bx	lr
10010c62:	bf00      	nop

10010c64 <mxc_assert>:
};
const unsigned int num_leds = (sizeof(led_pin) / sizeof(mxc_gpio_cfg_t));

/******************************************************************************/
void mxc_assert(const char *expr, const char *file, int line)
{
10010c64:	b508      	push	{r3, lr}
10010c66:	4603      	mov	r3, r0
    printf("MXC_ASSERT %s #%d: (%s)\n", file, line, expr);
10010c68:	4801      	ldr	r0, [pc, #4]	@ (10010c70 <mxc_assert+0xc>)
10010c6a:	f003 ff75 	bl	10014b58 <printf>

    while (1) {}
10010c6e:	e7fe      	b.n	10010c6e <mxc_assert+0xa>
10010c70:	1001d748 	.word	0x1001d748

10010c74 <GPIO0_IRQHandler>:
 * NOTE: This weak definition is included to support Push Button 0 interrupts in
 *       case the user does not define this interrupt handler in their application.
 **/
__weak void GPIO0_IRQHandler(void)
{
    MXC_GPIO_Handler(MXC_GPIO_GET_IDX(MXC_GPIO0));
10010c74:	2000      	movs	r0, #0
10010c76:	f000 bd79 	b.w	1001176c <MXC_GPIO_Handler>
10010c7a:	bf00      	nop

10010c7c <GPIO1_IRQHandler>:
 * NOTE: This weak definition is included to support Push Button 1 interrupts in
 *       case the user does not define this interrupt handler in their application.
 **/
__weak void GPIO1_IRQHandler(void)
{
    MXC_GPIO_Handler(MXC_GPIO_GET_IDX(MXC_GPIO1));
10010c7c:	2001      	movs	r0, #1
10010c7e:	f000 bd75 	b.w	1001176c <MXC_GPIO_Handler>
10010c82:	bf00      	nop

10010c84 <Board_Init>:
}

/******************************************************************************/
int Board_Init(void)
{
10010c84:	b510      	push	{r4, lr}
#ifndef __riscv
    int err;

    // Enable GPIO
    MXC_SYS_ClockEnable(MXC_SYS_PERIPH_CLOCK_GPIO0);
10010c86:	2000      	movs	r0, #0
10010c88:	f000 fb5c 	bl	10011344 <MXC_SYS_ClockEnable>
    MXC_SYS_ClockEnable(MXC_SYS_PERIPH_CLOCK_GPIO1);
10010c8c:	2001      	movs	r0, #1
10010c8e:	f000 fb59 	bl	10011344 <MXC_SYS_ClockEnable>
    MXC_SYS_ClockEnable(MXC_SYS_PERIPH_CLOCK_GPIO2);
10010c92:	2040      	movs	r0, #64	@ 0x40
10010c94:	f000 fb56 	bl	10011344 <MXC_SYS_ClockEnable>
/******************************************************************************/
int Console_Init(void)
{
    int err;

    if ((err = MXC_UART_Init(ConsoleUart, CONSOLE_BAUD, MXC_UART_IBRO_CLK)) != E_NO_ERROR) {
10010c98:	4b10      	ldr	r3, [pc, #64]	@ (10010cdc <Board_Init+0x58>)
10010c9a:	2202      	movs	r2, #2
10010c9c:	6818      	ldr	r0, [r3, #0]
10010c9e:	f44f 31e1 	mov.w	r1, #115200	@ 0x1c200
10010ca2:	f001 f92f 	bl	10011f04 <MXC_UART_Init>
    if ((err = Console_Init()) < E_NO_ERROR) {
10010ca6:	1e04      	subs	r4, r0, #0
10010ca8:	db0c      	blt.n	10010cc4 <Board_Init+0x40>
    if ((err = PB_Init()) != E_NO_ERROR) {
10010caa:	f000 f8eb 	bl	10010e84 <PB_Init>
10010cae:	b958      	cbnz	r0, 10010cc8 <Board_Init+0x44>
    if ((err = LED_Init()) != E_NO_ERROR) {
10010cb0:	f000 f888 	bl	10010dc4 <LED_Init>
10010cb4:	4604      	mov	r4, r0
10010cb6:	b960      	cbnz	r0, 10010cd2 <Board_Init+0x4e>
    MXC_SIMO->vrego_c = 0x43; // Set CNN voltage
10010cb8:	4b09      	ldr	r3, [pc, #36]	@ (10010ce0 <Board_Init+0x5c>)
    MXC_Delay(200000);
10010cba:	480a      	ldr	r0, [pc, #40]	@ (10010ce4 <Board_Init+0x60>)
    MXC_SIMO->vrego_c = 0x43; // Set CNN voltage
10010cbc:	2243      	movs	r2, #67	@ 0x43
10010cbe:	60da      	str	r2, [r3, #12]
    MXC_Delay(200000);
10010cc0:	f000 fabe 	bl	10011240 <MXC_Delay>
}
10010cc4:	4620      	mov	r0, r4
10010cc6:	bd10      	pop	{r4, pc}
        MXC_ASSERT_FAIL();
10010cc8:	4907      	ldr	r1, [pc, #28]	@ (10010ce8 <Board_Init+0x64>)
10010cca:	4808      	ldr	r0, [pc, #32]	@ (10010cec <Board_Init+0x68>)
10010ccc:	226f      	movs	r2, #111	@ 0x6f
10010cce:	f7ff ffc9 	bl	10010c64 <mxc_assert>
        MXC_ASSERT_FAIL();
10010cd2:	4905      	ldr	r1, [pc, #20]	@ (10010ce8 <Board_Init+0x64>)
10010cd4:	4805      	ldr	r0, [pc, #20]	@ (10010cec <Board_Init+0x68>)
10010cd6:	2274      	movs	r2, #116	@ 0x74
10010cd8:	f7ff ffc4 	bl	10010c64 <mxc_assert>
10010cdc:	20000040 	.word	0x20000040
10010ce0:	40004400 	.word	0x40004400
10010ce4:	00030d40 	.word	0x00030d40
10010ce8:	1001d764 	.word	0x1001d764
10010cec:	1001d7ac 	.word	0x1001d7ac

10010cf0 <NMI_Handler>:
}

/******************************************************************************/
void NMI_Handler(void)
{
    __NOP();
10010cf0:	bf00      	nop
}
10010cf2:	4770      	bx	lr

10010cf4 <_close>:
    return -1;
}
int _close(int file)
{
    return -1;
}
10010cf4:	f04f 30ff 	mov.w	r0, #4294967295	@ 0xffffffff
10010cf8:	4770      	bx	lr
10010cfa:	bf00      	nop

10010cfc <_isatty>:
int _isatty(int file)
10010cfc:	f04f 30ff 	mov.w	r0, #4294967295	@ 0xffffffff
10010d00:	4770      	bx	lr
10010d02:	bf00      	nop

10010d04 <_lseek>:
    return -1;
}
int _lseek(int file, off_t offset, int whence)
{
    return -1;
}
10010d04:	f04f 30ff 	mov.w	r0, #4294967295	@ 0xffffffff
10010d08:	4770      	bx	lr
10010d0a:	bf00      	nop

10010d0c <_fstat>:
int _fstat(int file, struct stat *st)
{
    return -1;
}
10010d0c:	f04f 30ff 	mov.w	r0, #4294967295	@ 0xffffffff
10010d10:	4770      	bx	lr
10010d12:	bf00      	nop

10010d14 <_read>:
   fgetc for stdio */
#if defined(__ICCARM__) || defined(__GNUC__)

#if defined(__GNUC__) // GNUC _read function prototype
int _read(int file, char *ptr, int len)
{
10010d14:	b5f8      	push	{r3, r4, r5, r6, r7, lr}
    size_t n;
#endif /*  */

    int num = 0; // count of number received.

    switch (file) {
10010d16:	b9e0      	cbnz	r0, 10010d52 <_read+0x3e>
    case STDIN_FILENO:
        for (n = 0; n < len; n++) {
10010d18:	2a00      	cmp	r2, #0
10010d1a:	dd19      	ble.n	10010d50 <_read+0x3c>
            *ptr = MXC_UART_ReadCharacter(MXC_UARTn); // read a byte.
10010d1c:	4d10      	ldr	r5, [pc, #64]	@ (10010d60 <_read+0x4c>)
10010d1e:	460e      	mov	r6, r1
10010d20:	188f      	adds	r7, r1, r2
        for (n = 0; n < len; n++) {
10010d22:	460c      	mov	r4, r1
10010d24:	e002      	b.n	10010d2c <_read+0x18>
10010d26:	42bb      	cmp	r3, r7
10010d28:	d00f      	beq.n	10010d4a <_read+0x36>
                num++;
                ptr++;

                break;
            } else {
                ptr++;
10010d2a:	461c      	mov	r4, r3
            *ptr = MXC_UART_ReadCharacter(MXC_UARTn); // read a byte.
10010d2c:	4628      	mov	r0, r5
10010d2e:	f001 f9e1 	bl	100120f4 <MXC_UART_ReadCharacter>
10010d32:	b2c1      	uxtb	r1, r0
10010d34:	7021      	strb	r1, [r4, #0]
            MXC_UART_WriteCharacter(MXC_UARTn, *ptr); // echo the byte.
10010d36:	4628      	mov	r0, r5
10010d38:	f001 f9de 	bl	100120f8 <MXC_UART_WriteCharacter>
            if (*ptr == '\r') { // check for end of line.
10010d3c:	7822      	ldrb	r2, [r4, #0]
10010d3e:	2a0d      	cmp	r2, #13
                ptr++;
10010d40:	f104 0301 	add.w	r3, r4, #1
            if (*ptr == '\r') { // check for end of line.
10010d44:	d1ef      	bne.n	10010d26 <_read+0x12>
                *ptr = '\n';
10010d46:	230a      	movs	r3, #10
10010d48:	7023      	strb	r3, [r4, #0]
                num++;
10010d4a:	f1c6 0601 	rsb	r6, r6, #1
10010d4e:	19a0      	adds	r0, r4, r6
        errno = EBADF;
        return -1;
    }

    return num;
}
10010d50:	bdf8      	pop	{r3, r4, r5, r6, r7, pc}
        errno = EBADF;
10010d52:	f001 fcb3 	bl	100126bc <__errno>
10010d56:	2309      	movs	r3, #9
10010d58:	6003      	str	r3, [r0, #0]
        return -1;
10010d5a:	f04f 30ff 	mov.w	r0, #4294967295	@ 0xffffffff
}
10010d5e:	bdf8      	pop	{r3, r4, r5, r6, r7, pc}
10010d60:	40042000 	.word	0x40042000

10010d64 <_write>:

/* newlib/libc printf() will eventually call write() to get the data to the stdout */
#if defined(__GNUC__)
// GNUC _write function prototype
int _write(int file, char *ptr, int len)
{
10010d64:	b5f8      	push	{r3, r4, r5, r6, r7, lr}
int __write(int file, const unsigned char *ptr, size_t len)
{
    size_t n;
#endif /* __GNUC__ */

    switch (file) {
10010d66:	1e43      	subs	r3, r0, #1
10010d68:	2b01      	cmp	r3, #1
10010d6a:	d821      	bhi.n	10010db0 <_write+0x4c>
    case STDOUT_FILENO:
    case STDERR_FILENO:

        // This function should be as fast as possible
        // So we'll forgo the UART driver for now
        for (n = 0; n < len; n++) {
10010d6c:	2a00      	cmp	r2, #0
10010d6e:	4617      	mov	r7, r2
10010d70:	dd12      	ble.n	10010d98 <_write+0x34>
10010d72:	1e53      	subs	r3, r2, #1
            if (*ptr == '\n') {
                // Wait until there's room in the FIFO
                while (MXC_UART_GetTXFIFOAvailable(MXC_UARTn) == 0) {}
10010d74:	4e12      	ldr	r6, [pc, #72]	@ (10010dc0 <_write+0x5c>)
10010d76:	1e4c      	subs	r4, r1, #1
10010d78:	18cd      	adds	r5, r1, r3
            if (*ptr == '\n') {
10010d7a:	f814 3f01 	ldrb.w	r3, [r4, #1]!
10010d7e:	2b0a      	cmp	r3, #10
10010d80:	d00c      	beq.n	10010d9c <_write+0x38>

                MXC_UART_WriteCharacter(MXC_UARTn, '\r');
            }

            // Wait until there's room in the FIFO
            while (MXC_UART_GetTXFIFOAvailable(MXC_UARTn) == 0) {}
10010d82:	480f      	ldr	r0, [pc, #60]	@ (10010dc0 <_write+0x5c>)
10010d84:	f001 f9bc 	bl	10012100 <MXC_UART_GetTXFIFOAvailable>
10010d88:	2800      	cmp	r0, #0
10010d8a:	d0fa      	beq.n	10010d82 <_write+0x1e>

            MXC_UART_WriteCharacter(MXC_UARTn, *ptr++);
10010d8c:	7821      	ldrb	r1, [r4, #0]
10010d8e:	4630      	mov	r0, r6
10010d90:	f001 f9b2 	bl	100120f8 <MXC_UART_WriteCharacter>
        for (n = 0; n < len; n++) {
10010d94:	42ac      	cmp	r4, r5
10010d96:	d1f0      	bne.n	10010d7a <_write+0x16>

        break;

    default:
        errno = EBADF;
        return -1;
10010d98:	4638      	mov	r0, r7
    }

    return len;
}
10010d9a:	bdf8      	pop	{r3, r4, r5, r6, r7, pc}
                while (MXC_UART_GetTXFIFOAvailable(MXC_UARTn) == 0) {}
10010d9c:	4808      	ldr	r0, [pc, #32]	@ (10010dc0 <_write+0x5c>)
10010d9e:	f001 f9af 	bl	10012100 <MXC_UART_GetTXFIFOAvailable>
10010da2:	2800      	cmp	r0, #0
10010da4:	d0fa      	beq.n	10010d9c <_write+0x38>
                MXC_UART_WriteCharacter(MXC_UARTn, '\r');
10010da6:	210d      	movs	r1, #13
10010da8:	4630      	mov	r0, r6
10010daa:	f001 f9a5 	bl	100120f8 <MXC_UART_WriteCharacter>
10010dae:	e7e8      	b.n	10010d82 <_write+0x1e>
        errno = EBADF;
10010db0:	f001 fc84 	bl	100126bc <__errno>
10010db4:	2309      	movs	r3, #9
10010db6:	6003      	str	r3, [r0, #0]
        return -1;
10010db8:	f04f 30ff 	mov.w	r0, #4294967295	@ 0xffffffff
}
10010dbc:	bdf8      	pop	{r3, r4, r5, r6, r7, pc}
10010dbe:	bf00      	nop
10010dc0:	40042000 	.word	0x40042000

10010dc4 <LED_Init>:
#include "led.h"
#include "mxc_device.h"

/******************************************************************************/
int LED_Init(void)
{
10010dc4:	b5f8      	push	{r3, r4, r5, r6, r7, lr}
    int retval = E_NO_ERROR;
    unsigned int i;

    /* setup GPIO for the LED */
    for (i = 0; i < num_leds; i++) {
10010dc6:	4b0d      	ldr	r3, [pc, #52]	@ (10010dfc <LED_Init+0x38>)
10010dc8:	681f      	ldr	r7, [r3, #0]
10010dca:	b1a7      	cbz	r7, 10010df6 <LED_Init+0x32>
10010dcc:	2500      	movs	r5, #0
10010dce:	4c0c      	ldr	r4, [pc, #48]	@ (10010e00 <LED_Init+0x3c>)
    int retval = E_NO_ERROR;
10010dd0:	462e      	mov	r6, r5
//******************************************************************************
void LED_Off(unsigned int idx)
{
    MXC_ASSERT(idx < num_leds);
#if (LED_ON == 0)
    MXC_GPIO_OutSet(led_pin[idx].port, led_pin[idx].mask);
10010dd2:	e9d4 0100 	ldrd	r0, r1, [r4]
10010dd6:	f000 fc9b 	bl	10011710 <MXC_GPIO_OutSet>
        if (MXC_GPIO_Config(&led_pin[i]) != E_NO_ERROR) {
10010dda:	4620      	mov	r0, r4
10010ddc:	f000 fb92 	bl	10011504 <MXC_GPIO_Config>
    for (i = 0; i < num_leds; i++) {
10010de0:	3501      	adds	r5, #1
            retval = E_UNKNOWN;
10010de2:	2800      	cmp	r0, #0
10010de4:	bf18      	it	ne
10010de6:	f06f 0607 	mvnne.w	r6, #7
    for (i = 0; i < num_leds; i++) {
10010dea:	42af      	cmp	r7, r5
10010dec:	f104 040c 	add.w	r4, r4, #12
10010df0:	d1ef      	bne.n	10010dd2 <LED_Init+0xe>
}
10010df2:	4630      	mov	r0, r6
10010df4:	bdf8      	pop	{r3, r4, r5, r6, r7, pc}
    int retval = E_NO_ERROR;
10010df6:	463e      	mov	r6, r7
}
10010df8:	4630      	mov	r0, r6
10010dfa:	bdf8      	pop	{r3, r4, r5, r6, r7, pc}
10010dfc:	1001d7b4 	.word	0x1001d7b4
10010e00:	1001d7b8 	.word	0x1001d7b8

10010e04 <LED_On>:
    MXC_ASSERT(idx < num_leds);
10010e04:	4b0b      	ldr	r3, [pc, #44]	@ (10010e34 <LED_On+0x30>)
10010e06:	681b      	ldr	r3, [r3, #0]
10010e08:	4283      	cmp	r3, r0
{
10010e0a:	b510      	push	{r4, lr}
10010e0c:	4604      	mov	r4, r0
    MXC_ASSERT(idx < num_leds);
10010e0e:	d90b      	bls.n	10010e28 <LED_On+0x24>
    MXC_GPIO_OutClr(led_pin[idx].port, led_pin[idx].mask);
10010e10:	4b09      	ldr	r3, [pc, #36]	@ (10010e38 <LED_On+0x34>)
10010e12:	eb04 0444 	add.w	r4, r4, r4, lsl #1
10010e16:	eb03 0284 	add.w	r2, r3, r4, lsl #2
10010e1a:	f853 0024 	ldr.w	r0, [r3, r4, lsl #2]
10010e1e:	6851      	ldr	r1, [r2, #4]
}
10010e20:	e8bd 4010 	ldmia.w	sp!, {r4, lr}
    MXC_GPIO_OutClr(led_pin[idx].port, led_pin[idx].mask);
10010e24:	f000 bc8a 	b.w	1001173c <MXC_GPIO_OutClr>
    MXC_ASSERT(idx < num_leds);
10010e28:	4904      	ldr	r1, [pc, #16]	@ (10010e3c <LED_On+0x38>)
10010e2a:	4805      	ldr	r0, [pc, #20]	@ (10010e40 <LED_On+0x3c>)
10010e2c:	223b      	movs	r2, #59	@ 0x3b
10010e2e:	f7ff ff19 	bl	10010c64 <mxc_assert>
10010e32:	e7ed      	b.n	10010e10 <LED_On+0xc>
10010e34:	1001d7b4 	.word	0x1001d7b4
10010e38:	1001d7b8 	.word	0x1001d7b8
10010e3c:	1001d7f8 	.word	0x1001d7f8
10010e40:	1001d830 	.word	0x1001d830

10010e44 <LED_Off>:
    MXC_ASSERT(idx < num_leds);
10010e44:	4b0b      	ldr	r3, [pc, #44]	@ (10010e74 <LED_Off+0x30>)
10010e46:	681b      	ldr	r3, [r3, #0]
10010e48:	4283      	cmp	r3, r0
{
10010e4a:	b510      	push	{r4, lr}
10010e4c:	4604      	mov	r4, r0
    MXC_ASSERT(idx < num_leds);
10010e4e:	d90b      	bls.n	10010e68 <LED_Off+0x24>
    MXC_GPIO_OutSet(led_pin[idx].port, led_pin[idx].mask);
10010e50:	4b09      	ldr	r3, [pc, #36]	@ (10010e78 <LED_Off+0x34>)
10010e52:	eb04 0444 	add.w	r4, r4, r4, lsl #1
10010e56:	eb03 0284 	add.w	r2, r3, r4, lsl #2
10010e5a:	f853 0024 	ldr.w	r0, [r3, r4, lsl #2]
10010e5e:	6851      	ldr	r1, [r2, #4]
#else
    MXC_GPIO_OutClr(led_pin[idx].port, led_pin[idx].mask);
#endif
}
10010e60:	e8bd 4010 	ldmia.w	sp!, {r4, lr}
    MXC_GPIO_OutSet(led_pin[idx].port, led_pin[idx].mask);
10010e64:	f000 bc54 	b.w	10011710 <MXC_GPIO_OutSet>
    MXC_ASSERT(idx < num_leds);
10010e68:	4904      	ldr	r1, [pc, #16]	@ (10010e7c <LED_Off+0x38>)
10010e6a:	4805      	ldr	r0, [pc, #20]	@ (10010e80 <LED_Off+0x3c>)
10010e6c:	2246      	movs	r2, #70	@ 0x46
10010e6e:	f7ff fef9 	bl	10010c64 <mxc_assert>
10010e72:	e7ed      	b.n	10010e50 <LED_Off+0xc>
10010e74:	1001d7b4 	.word	0x1001d7b4
10010e78:	1001d7b8 	.word	0x1001d7b8
10010e7c:	1001d7f8 	.word	0x1001d7f8
10010e80:	1001d830 	.word	0x1001d830

10010e84 <PB_Init>:
#include "mxc_assert.h"
#include "pb.h"

/******************************************************************************/
int PB_Init(void)
{
10010e84:	b5f8      	push	{r3, r4, r5, r6, r7, lr}
    int retval = E_NO_ERROR;
    unsigned int i;

    // Enable pushbutton inputs
    for (i = 0; i < num_pbs; i++) {
10010e86:	4b0b      	ldr	r3, [pc, #44]	@ (10010eb4 <PB_Init+0x30>)
10010e88:	681f      	ldr	r7, [r3, #0]
10010e8a:	b187      	cbz	r7, 10010eae <PB_Init+0x2a>
10010e8c:	2400      	movs	r4, #0
10010e8e:	4d0a      	ldr	r5, [pc, #40]	@ (10010eb8 <PB_Init+0x34>)
    int retval = E_NO_ERROR;
10010e90:	4626      	mov	r6, r4
        if (MXC_GPIO_Config(&pb_pin[i]) != E_NO_ERROR) {
10010e92:	4628      	mov	r0, r5
10010e94:	f000 fb36 	bl	10011504 <MXC_GPIO_Config>
    for (i = 0; i < num_pbs; i++) {
10010e98:	3401      	adds	r4, #1
            retval = E_UNKNOWN;
10010e9a:	2800      	cmp	r0, #0
10010e9c:	bf18      	it	ne
10010e9e:	f06f 0607 	mvnne.w	r6, #7
    for (i = 0; i < num_pbs; i++) {
10010ea2:	42bc      	cmp	r4, r7
10010ea4:	f105 050c 	add.w	r5, r5, #12
10010ea8:	d1f3      	bne.n	10010e92 <PB_Init+0xe>
        }
    }

    return retval;
}
10010eaa:	4630      	mov	r0, r6
10010eac:	bdf8      	pop	{r3, r4, r5, r6, r7, pc}
    int retval = E_NO_ERROR;
10010eae:	463e      	mov	r6, r7
}
10010eb0:	4630      	mov	r0, r6
10010eb2:	bdf8      	pop	{r3, r4, r5, r6, r7, pc}
10010eb4:	1001d7dc 	.word	0x1001d7dc
10010eb8:	1001d7e0 	.word	0x1001d7e0

10010ebc <Reset_Handler>:
10010ebc:	4847      	ldr	r0, [pc, #284]	@ (10010fdc <LPCMP_IRQHandler+0x2>)
10010ebe:	4685      	mov	sp, r0
10010ec0:	4847      	ldr	r0, [pc, #284]	@ (10010fe0 <LPCMP_IRQHandler+0x6>)
10010ec2:	4780      	blx	r0
10010ec4:	b980      	cbnz	r0, 10010ee8 <.SKIPRAMINIT>
10010ec6:	4947      	ldr	r1, [pc, #284]	@ (10010fe4 <LPCMP_IRQHandler+0xa>)
10010ec8:	4a47      	ldr	r2, [pc, #284]	@ (10010fe8 <LPCMP_IRQHandler+0xe>)
10010eca:	4b48      	ldr	r3, [pc, #288]	@ (10010fec <LPCMP_IRQHandler+0x12>)
10010ecc:	1a9b      	subs	r3, r3, r2
10010ece:	dd03      	ble.n	10010ed8 <Reset_Handler+0x1c>
10010ed0:	3b04      	subs	r3, #4
10010ed2:	58c8      	ldr	r0, [r1, r3]
10010ed4:	50d0      	str	r0, [r2, r3]
10010ed6:	dcfb      	bgt.n	10010ed0 <Reset_Handler+0x14>
10010ed8:	4945      	ldr	r1, [pc, #276]	@ (10010ff0 <LPCMP_IRQHandler+0x16>)
10010eda:	4a46      	ldr	r2, [pc, #280]	@ (10010ff4 <LPCMP_IRQHandler+0x1a>)
10010edc:	2000      	movs	r0, #0
10010ede:	4291      	cmp	r1, r2
10010ee0:	bfbc      	itt	lt
10010ee2:	f841 0b04 	strlt.w	r0, [r1], #4
10010ee6:	e7fa      	blt.n	10010ede <Reset_Handler+0x22>

10010ee8 <.SKIPRAMINIT>:
10010ee8:	4843      	ldr	r0, [pc, #268]	@ (10010ff8 <LPCMP_IRQHandler+0x1e>)
10010eea:	4780      	blx	r0
10010eec:	4843      	ldr	r0, [pc, #268]	@ (10010ffc <LPCMP_IRQHandler+0x22>)
10010eee:	4780      	blx	r0
10010ef0:	4843      	ldr	r0, [pc, #268]	@ (10011000 <LPCMP_IRQHandler+0x26>)
10010ef2:	4780      	blx	r0

10010ef4 <.SPIN>:
10010ef4:	f7ff fffe 	bl	10010ef4 <.SPIN>
10010ef8:	e7fe      	b.n	10010ef8 <.SPIN+0x4>

10010efa <HardFault_Handler>:
10010efa:	e7fe      	b.n	10010efa <HardFault_Handler>

10010efc <MemManage_Handler>:
10010efc:	e7fe      	b.n	10010efc <MemManage_Handler>

10010efe <BusFault_Handler>:
10010efe:	e7fe      	b.n	10010efe <BusFault_Handler>

10010f00 <UsageFault_Handler>:
10010f00:	e7fe      	b.n	10010f00 <UsageFault_Handler>

10010f02 <SVC_Handler>:
10010f02:	e7fe      	b.n	10010f02 <SVC_Handler>

10010f04 <DebugMon_Handler>:
10010f04:	e7fe      	b.n	10010f04 <DebugMon_Handler>

10010f06 <PendSV_Handler>:
10010f06:	e7fe      	b.n	10010f06 <PendSV_Handler>

10010f08 <SysTick_Handler>:
10010f08:	e7fe      	b.n	10010f08 <SysTick_Handler>

10010f0a <Default_Handler>:
10010f0a:	e7fe      	b.n	10010f0a <Default_Handler>

10010f0c <PF_IRQHandler>:
10010f0c:	e7fe      	b.n	10010f0c <PF_IRQHandler>

10010f0e <WDT0_IRQHandler>:
10010f0e:	e7fe      	b.n	10010f0e <WDT0_IRQHandler>

10010f10 <RSV02_IRQHandler>:
10010f10:	e7fe      	b.n	10010f10 <RSV02_IRQHandler>

10010f12 <RTC_IRQHandler>:
10010f12:	e7fe      	b.n	10010f12 <RTC_IRQHandler>
10010f14:	e7fe      	b.n	10010f14 <RTC_IRQHandler+0x2>

10010f16 <TMR0_IRQHandler>:
10010f16:	e7fe      	b.n	10010f16 <TMR0_IRQHandler>

10010f18 <TMR1_IRQHandler>:
10010f18:	e7fe      	b.n	10010f18 <TMR1_IRQHandler>

10010f1a <TMR2_IRQHandler>:
10010f1a:	e7fe      	b.n	10010f1a <TMR2_IRQHandler>

10010f1c <TMR3_IRQHandler>:
10010f1c:	e7fe      	b.n	10010f1c <TMR3_IRQHandler>

10010f1e <TMR4_IRQHandler>:
10010f1e:	e7fe      	b.n	10010f1e <TMR4_IRQHandler>

10010f20 <TMR5_IRQHandler>:
10010f20:	e7fe      	b.n	10010f20 <TMR5_IRQHandler>

10010f22 <RSV11_IRQHandler>:
10010f22:	e7fe      	b.n	10010f22 <RSV11_IRQHandler>

10010f24 <RSV12_IRQHandler>:
10010f24:	e7fe      	b.n	10010f24 <RSV12_IRQHandler>

10010f26 <I2C0_IRQHandler>:
10010f26:	e7fe      	b.n	10010f26 <I2C0_IRQHandler>

10010f28 <UART0_IRQHandler>:
10010f28:	e7fe      	b.n	10010f28 <UART0_IRQHandler>

10010f2a <UART1_IRQHandler>:
10010f2a:	e7fe      	b.n	10010f2a <UART1_IRQHandler>

10010f2c <SPI1_IRQHandler>:
10010f2c:	e7fe      	b.n	10010f2c <SPI1_IRQHandler>

10010f2e <RSV17_IRQHandler>:
10010f2e:	e7fe      	b.n	10010f2e <RSV17_IRQHandler>

10010f30 <RSV18_IRQHandler>:
10010f30:	e7fe      	b.n	10010f30 <RSV18_IRQHandler>

10010f32 <RSV19_IRQHandler>:
10010f32:	e7fe      	b.n	10010f32 <RSV19_IRQHandler>

10010f34 <ADC_IRQHandler>:
10010f34:	e7fe      	b.n	10010f34 <ADC_IRQHandler>

10010f36 <RSV21_IRQHandler>:
10010f36:	e7fe      	b.n	10010f36 <RSV21_IRQHandler>

10010f38 <RSV22_IRQHandler>:
10010f38:	e7fe      	b.n	10010f38 <RSV22_IRQHandler>

10010f3a <FLC0_IRQHandler>:
10010f3a:	e7fe      	b.n	10010f3a <FLC0_IRQHandler>
10010f3c:	e7fe      	b.n	10010f3c <FLC0_IRQHandler+0x2>
10010f3e:	e7fe      	b.n	10010f3e <FLC0_IRQHandler+0x4>

10010f40 <GPIO2_IRQHandler>:
10010f40:	e7fe      	b.n	10010f40 <GPIO2_IRQHandler>

10010f42 <RSV27_IRQHandler>:
10010f42:	e7fe      	b.n	10010f42 <RSV27_IRQHandler>

10010f44 <DMA0_IRQHandler>:
10010f44:	e7fe      	b.n	10010f44 <DMA0_IRQHandler>

10010f46 <DMA1_IRQHandler>:
10010f46:	e7fe      	b.n	10010f46 <DMA1_IRQHandler>

10010f48 <DMA2_IRQHandler>:
10010f48:	e7fe      	b.n	10010f48 <DMA2_IRQHandler>

10010f4a <DMA3_IRQHandler>:
10010f4a:	e7fe      	b.n	10010f4a <DMA3_IRQHandler>

10010f4c <RSV32_IRQHandler>:
10010f4c:	e7fe      	b.n	10010f4c <RSV32_IRQHandler>

10010f4e <RSV33_IRQHandler>:
10010f4e:	e7fe      	b.n	10010f4e <RSV33_IRQHandler>

10010f50 <UART2_IRQHandler>:
10010f50:	e7fe      	b.n	10010f50 <UART2_IRQHandler>

10010f52 <RSV35_IRQHandler>:
10010f52:	e7fe      	b.n	10010f52 <RSV35_IRQHandler>

10010f54 <I2C1_IRQHandler>:
10010f54:	e7fe      	b.n	10010f54 <I2C1_IRQHandler>

10010f56 <RSV37_IRQHandler>:
10010f56:	e7fe      	b.n	10010f56 <RSV37_IRQHandler>

10010f58 <RSV38_IRQHandler>:
10010f58:	e7fe      	b.n	10010f58 <RSV38_IRQHandler>

10010f5a <RSV39_IRQHandler>:
10010f5a:	e7fe      	b.n	10010f5a <RSV39_IRQHandler>

10010f5c <RSV40_IRQHandler>:
10010f5c:	e7fe      	b.n	10010f5c <RSV40_IRQHandler>

10010f5e <RSV41_IRQHandler>:
10010f5e:	e7fe      	b.n	10010f5e <RSV41_IRQHandler>

10010f60 <RSV42_IRQHandler>:
10010f60:	e7fe      	b.n	10010f60 <RSV42_IRQHandler>

10010f62 <RSV43_IRQHandler>:
10010f62:	e7fe      	b.n	10010f62 <RSV43_IRQHandler>

10010f64 <RSV44_IRQHandler>:
10010f64:	e7fe      	b.n	10010f64 <RSV44_IRQHandler>

10010f66 <RSV45_IRQHandler>:
10010f66:	e7fe      	b.n	10010f66 <RSV45_IRQHandler>

10010f68 <RSV46_IRQHandler>:
10010f68:	e7fe      	b.n	10010f68 <RSV46_IRQHandler>

10010f6a <RSV47_IRQHandler>:
10010f6a:	e7fe      	b.n	10010f6a <RSV47_IRQHandler>

10010f6c <RSV48_IRQHandler>:
10010f6c:	e7fe      	b.n	10010f6c <RSV48_IRQHandler>

10010f6e <RSV49_IRQHandler>:
10010f6e:	e7fe      	b.n	10010f6e <RSV49_IRQHandler>

10010f70 <RSV50_IRQHandler>:
10010f70:	e7fe      	b.n	10010f70 <RSV50_IRQHandler>

10010f72 <RSV51_IRQHandler>:
10010f72:	e7fe      	b.n	10010f72 <RSV51_IRQHandler>

10010f74 <RSV52_IRQHandler>:
10010f74:	e7fe      	b.n	10010f74 <RSV52_IRQHandler>

10010f76 <WUT_IRQHandler>:
10010f76:	e7fe      	b.n	10010f76 <WUT_IRQHandler>

10010f78 <GPIOWAKE_IRQHandler>:
10010f78:	e7fe      	b.n	10010f78 <GPIOWAKE_IRQHandler>

10010f7a <RSV55_IRQHandler>:
10010f7a:	e7fe      	b.n	10010f7a <RSV55_IRQHandler>

10010f7c <SPI0_IRQHandler>:
10010f7c:	e7fe      	b.n	10010f7c <SPI0_IRQHandler>

10010f7e <WDT1_IRQHandler>:
10010f7e:	e7fe      	b.n	10010f7e <WDT1_IRQHandler>

10010f80 <RSV58_IRQHandler>:
10010f80:	e7fe      	b.n	10010f80 <RSV58_IRQHandler>

10010f82 <PT_IRQHandler>:
10010f82:	e7fe      	b.n	10010f82 <PT_IRQHandler>

10010f84 <RSV60_IRQHandler>:
10010f84:	e7fe      	b.n	10010f84 <RSV60_IRQHandler>

10010f86 <RSV61_IRQHandler>:
10010f86:	e7fe      	b.n	10010f86 <RSV61_IRQHandler>

10010f88 <I2C2_IRQHandler>:
10010f88:	e7fe      	b.n	10010f88 <I2C2_IRQHandler>

10010f8a <RISCV_IRQHandler>:
10010f8a:	e7fe      	b.n	10010f8a <RISCV_IRQHandler>

10010f8c <RSV64_IRQHandler>:
10010f8c:	e7fe      	b.n	10010f8c <RSV64_IRQHandler>

10010f8e <RSV65_IRQHandler>:
10010f8e:	e7fe      	b.n	10010f8e <RSV65_IRQHandler>

10010f90 <RSV66_IRQHandler>:
10010f90:	e7fe      	b.n	10010f90 <RSV66_IRQHandler>

10010f92 <OWM_IRQHandler>:
10010f92:	e7fe      	b.n	10010f92 <OWM_IRQHandler>

10010f94 <RSV68_IRQHandler>:
10010f94:	e7fe      	b.n	10010f94 <RSV68_IRQHandler>

10010f96 <RSV69_IRQHandler>:
10010f96:	e7fe      	b.n	10010f96 <RSV69_IRQHandler>

10010f98 <RSV70_IRQHandler>:
10010f98:	e7fe      	b.n	10010f98 <RSV70_IRQHandler>

10010f9a <RSV71_IRQHandler>:
10010f9a:	e7fe      	b.n	10010f9a <RSV71_IRQHandler>

10010f9c <RSV72_IRQHandler>:
10010f9c:	e7fe      	b.n	10010f9c <RSV72_IRQHandler>

10010f9e <RSV73_IRQHandler>:
10010f9e:	e7fe      	b.n	10010f9e <RSV73_IRQHandler>

10010fa0 <RSV74_IRQHandler>:
10010fa0:	e7fe      	b.n	10010fa0 <RSV74_IRQHandler>

10010fa2 <RSV75_IRQHandler>:
10010fa2:	e7fe      	b.n	10010fa2 <RSV75_IRQHandler>

10010fa4 <RSV76_IRQHandler>:
10010fa4:	e7fe      	b.n	10010fa4 <RSV76_IRQHandler>

10010fa6 <RSV77_IRQHandler>:
10010fa6:	e7fe      	b.n	10010fa6 <RSV77_IRQHandler>

10010fa8 <RSV78_IRQHandler>:
10010fa8:	e7fe      	b.n	10010fa8 <RSV78_IRQHandler>

10010faa <RSV79_IRQHandler>:
10010faa:	e7fe      	b.n	10010faa <RSV79_IRQHandler>

10010fac <RSV80_IRQHandler>:
10010fac:	e7fe      	b.n	10010fac <RSV80_IRQHandler>

10010fae <RSV81_IRQHandler>:
10010fae:	e7fe      	b.n	10010fae <RSV81_IRQHandler>

10010fb0 <ECC_IRQHandler>:
10010fb0:	e7fe      	b.n	10010fb0 <ECC_IRQHandler>

10010fb2 <DVS_IRQHandler>:
10010fb2:	e7fe      	b.n	10010fb2 <DVS_IRQHandler>

10010fb4 <SIMO_IRQHandler>:
10010fb4:	e7fe      	b.n	10010fb4 <SIMO_IRQHandler>

10010fb6 <RSV85_IRQHandler>:
10010fb6:	e7fe      	b.n	10010fb6 <RSV85_IRQHandler>

10010fb8 <RSV86_IRQHandler>:
10010fb8:	e7fe      	b.n	10010fb8 <RSV86_IRQHandler>

10010fba <RSV87_IRQHandler>:
10010fba:	e7fe      	b.n	10010fba <RSV87_IRQHandler>

10010fbc <UART3_IRQHandler>:
10010fbc:	e7fe      	b.n	10010fbc <UART3_IRQHandler>

10010fbe <RSV89_IRQHandler>:
10010fbe:	e7fe      	b.n	10010fbe <RSV89_IRQHandler>

10010fc0 <RSV90_IRQHandler>:
10010fc0:	e7fe      	b.n	10010fc0 <RSV90_IRQHandler>

10010fc2 <PCIF_IRQHandler>:
10010fc2:	e7fe      	b.n	10010fc2 <PCIF_IRQHandler>

10010fc4 <RSV92_IRQHandler>:
10010fc4:	e7fe      	b.n	10010fc4 <RSV92_IRQHandler>

10010fc6 <RSV93_IRQHandler>:
10010fc6:	e7fe      	b.n	10010fc6 <RSV93_IRQHandler>

10010fc8 <RSV94_IRQHandler>:
10010fc8:	e7fe      	b.n	10010fc8 <RSV94_IRQHandler>

10010fca <RSV95_IRQHandler>:
10010fca:	e7fe      	b.n	10010fca <RSV95_IRQHandler>

10010fcc <RSV96_IRQHandler>:
10010fcc:	e7fe      	b.n	10010fcc <RSV96_IRQHandler>

10010fce <AES_IRQHandler>:
10010fce:	e7fe      	b.n	10010fce <AES_IRQHandler>

10010fd0 <RSV98_IRQHandler>:
10010fd0:	e7fe      	b.n	10010fd0 <RSV98_IRQHandler>

10010fd2 <I2S_IRQHandler>:
10010fd2:	e7fe      	b.n	10010fd2 <I2S_IRQHandler>

10010fd4 <CNN_FIFO_IRQHandler>:
10010fd4:	e7fe      	b.n	10010fd4 <CNN_FIFO_IRQHandler>

10010fd6 <CNN_IRQHandler>:
10010fd6:	e7fe      	b.n	10010fd6 <CNN_IRQHandler>

10010fd8 <RSV102_IRQHandler>:
10010fd8:	e7fe      	b.n	10010fd8 <RSV102_IRQHandler>

10010fda <LPCMP_IRQHandler>:
10010fda:	e7fe      	b.n	10010fda <LPCMP_IRQHandler>
10010fdc:	20020000 	.word	0x20020000
10010fe0:	100110a9 	.word	0x100110a9
10010fe4:	1001de08 	.word	0x1001de08
10010fe8:	20000000 	.word	0x20000000
10010fec:	20000708 	.word	0x20000708
10010ff0:	20000800 	.word	0x20000800
10010ff4:	20001950 	.word	0x20001950
10010ff8:	100110ad 	.word	0x100110ad
10010ffc:	100149e1 	.word	0x100149e1
10011000:	1000e699 	.word	0x1000e699

10011004 <_sbrk>:
extern unsigned int __HeapLimit;
caddr_t _sbrk(int incr)
{
    char *prev_heap_end;

    if (heap_end == 0) {
10011004:	4a0b      	ldr	r2, [pc, #44]	@ (10011034 <_sbrk+0x30>)
{
10011006:	b508      	push	{r3, lr}
10011008:	4603      	mov	r3, r0
    if (heap_end == 0) {
1001100a:	6810      	ldr	r0, [r2, #0]
1001100c:	b128      	cbz	r0, 1001101a <_sbrk+0x16>
        heap_end = (caddr_t)&__HeapBase;
    }
    prev_heap_end = heap_end;

    if ((unsigned int)(heap_end + incr) > (unsigned int)&__HeapLimit) {
1001100e:	490a      	ldr	r1, [pc, #40]	@ (10011038 <_sbrk+0x34>)
10011010:	4403      	add	r3, r0
10011012:	428b      	cmp	r3, r1
10011014:	d807      	bhi.n	10011026 <_sbrk+0x22>
        errno = ENOMEM;
        return (caddr_t)-1;
    }

    heap_end += incr;
10011016:	6013      	str	r3, [r2, #0]

    return (caddr_t)prev_heap_end;
}
10011018:	bd08      	pop	{r3, pc}
        heap_end = (caddr_t)&__HeapBase;
1001101a:	4808      	ldr	r0, [pc, #32]	@ (1001103c <_sbrk+0x38>)
    if ((unsigned int)(heap_end + incr) > (unsigned int)&__HeapLimit) {
1001101c:	4906      	ldr	r1, [pc, #24]	@ (10011038 <_sbrk+0x34>)
        heap_end = (caddr_t)&__HeapBase;
1001101e:	6010      	str	r0, [r2, #0]
    if ((unsigned int)(heap_end + incr) > (unsigned int)&__HeapLimit) {
10011020:	4403      	add	r3, r0
10011022:	428b      	cmp	r3, r1
10011024:	d9f7      	bls.n	10011016 <_sbrk+0x12>
        errno = ENOMEM;
10011026:	f001 fb49 	bl	100126bc <__errno>
1001102a:	230c      	movs	r3, #12
1001102c:	6003      	str	r3, [r0, #0]
        return (caddr_t)-1;
1001102e:	f04f 30ff 	mov.w	r0, #4294967295	@ 0xffffffff
}
10011032:	bd08      	pop	{r3, pc}
10011034:	20000e38 	.word	0x20000e38
10011038:	2001f000 	.word	0x2001f000
1001103c:	20001958 	.word	0x20001958

10011040 <SystemCoreClockUpdate>:
__weak void SystemCoreClockUpdate(void)
{
    uint32_t base_freq, div, clk_src;

    // Get the clock source and frequency
    clk_src = (MXC_GCR->clkctrl & MXC_F_GCR_CLKCTRL_SYSCLK_SEL);
10011040:	f04f 4380 	mov.w	r3, #1073741824	@ 0x40000000
10011044:	689a      	ldr	r2, [r3, #8]
10011046:	f402 6260 	and.w	r2, r2, #3584	@ 0xe00
    switch (clk_src) {
1001104a:	f5b2 6f20 	cmp.w	r2, #2560	@ 0xa00
1001104e:	d020      	beq.n	10011092 <SystemCoreClockUpdate+0x52>
10011050:	d911      	bls.n	10011076 <SystemCoreClockUpdate+0x36>
10011052:	f5b2 6f40 	cmp.w	r2, #3072	@ 0xc00
10011056:	d017      	beq.n	10011088 <SystemCoreClockUpdate+0x48>
        break;
    case MXC_S_GCR_CLKCTRL_SYSCLK_SEL_INRO:
        base_freq = INRO_FREQ;
        break;
    case MXC_S_GCR_CLKCTRL_SYSCLK_SEL_IPO:
        base_freq = IPO_FREQ;
10011058:	4b0f      	ldr	r3, [pc, #60]	@ (10011098 <SystemCoreClockUpdate+0x58>)
1001105a:	4910      	ldr	r1, [pc, #64]	@ (1001109c <SystemCoreClockUpdate+0x5c>)
1001105c:	f5b2 6f60 	cmp.w	r2, #3584	@ 0xe00
10011060:	bf18      	it	ne
10011062:	460b      	movne	r3, r1
        // This code should never execute, however, initialize to safe value.
        base_freq = HIRC_FREQ;
        break;
    }

    div = (MXC_GCR->clkctrl & MXC_F_GCR_CLKCTRL_SYSCLK_DIV) >> MXC_F_GCR_CLKCTRL_SYSCLK_DIV_POS;
10011064:	f04f 4280 	mov.w	r2, #1073741824	@ 0x40000000

    SystemCoreClock = base_freq >> div;
10011068:	490d      	ldr	r1, [pc, #52]	@ (100110a0 <SystemCoreClockUpdate+0x60>)
    div = (MXC_GCR->clkctrl & MXC_F_GCR_CLKCTRL_SYSCLK_DIV) >> MXC_F_GCR_CLKCTRL_SYSCLK_DIV_POS;
1001106a:	6892      	ldr	r2, [r2, #8]
1001106c:	f3c2 1282 	ubfx	r2, r2, #6, #3
    SystemCoreClock = base_freq >> div;
10011070:	40d3      	lsrs	r3, r2
10011072:	600b      	str	r3, [r1, #0]
}
10011074:	4770      	bx	lr
    switch (clk_src) {
10011076:	b152      	cbz	r2, 1001108e <SystemCoreClockUpdate+0x4e>
        base_freq = IPO_FREQ;
10011078:	4908      	ldr	r1, [pc, #32]	@ (1001109c <SystemCoreClockUpdate+0x5c>)
1001107a:	f247 5330 	movw	r3, #30000	@ 0x7530
1001107e:	f5b2 6fc0 	cmp.w	r2, #1536	@ 0x600
10011082:	bf18      	it	ne
10011084:	460b      	movne	r3, r1
10011086:	e7ed      	b.n	10011064 <SystemCoreClockUpdate+0x24>
        base_freq = ERTCO_FREQ;
10011088:	f44f 4300 	mov.w	r3, #32768	@ 0x8000
1001108c:	e7ea      	b.n	10011064 <SystemCoreClockUpdate+0x24>
        base_freq = ISO_FREQ;
1001108e:	4b05      	ldr	r3, [pc, #20]	@ (100110a4 <SystemCoreClockUpdate+0x64>)
10011090:	e7e8      	b.n	10011064 <SystemCoreClockUpdate+0x24>
        base_freq = IBRO_FREQ;
10011092:	f44f 03e1 	mov.w	r3, #7372800	@ 0x708000
10011096:	e7e5      	b.n	10011064 <SystemCoreClockUpdate+0x24>
10011098:	047868c0 	.word	0x047868c0
1001109c:	05f5e100 	.word	0x05f5e100
100110a0:	20001950 	.word	0x20001950
100110a4:	03938700 	.word	0x03938700

100110a8 <PreInit>:
 */
__weak int PreInit(void)
{
    /* Do nothing */
    return 0;
}
100110a8:	2000      	movs	r0, #0
100110aa:	4770      	bx	lr

100110ac <SystemInit>:
 * You may over-ride this function in your program by defining a custom 
 *  SystemInit(), but care should be taken to reproduce the initialization
 *  steps or a non-functional system may result.
 */
__weak void SystemInit(void)
{
100110ac:	b510      	push	{r4, lr}
    /* Configure the interrupt controller to use the application vector table in */
    /* the application space */
#if defined(__CC_ARM) || defined(__GNUC__)
    /* IAR sets the VTOR pointer incorrectly and causes stack corruption */
    SCB->VTOR = (uint32_t)__isr_vector;
100110ae:	4c0a      	ldr	r4, [pc, #40]	@ (100110d8 <SystemInit+0x2c>)
100110b0:	4b0a      	ldr	r3, [pc, #40]	@ (100110dc <SystemInit+0x30>)
100110b2:	60a3      	str	r3, [r4, #8]
#endif /* __CC_ARM || __GNUC__ */

    /* Enable instruction cache */
    MXC_ICC_Enable(MXC_ICC0);
100110b4:	480a      	ldr	r0, [pc, #40]	@ (100110e0 <SystemInit+0x34>)
100110b6:	f000 fe37 	bl	10011d28 <MXC_ICC_Enable>

    /* Enable FPU on Cortex-M4, which occupies coprocessor slots 10 & 11 */
    /* Grant full access, per "Table B3-24 CPACR bit assignments". */
    /* DDI0403D "ARMv7-M Architecture Reference Manual" */
    SCB->CPACR |= SCB_CPACR_CP10_Msk | SCB_CPACR_CP11_Msk;
100110ba:	f8d4 3088 	ldr.w	r3, [r4, #136]	@ 0x88
100110be:	f443 0370 	orr.w	r3, r3, #15728640	@ 0xf00000
100110c2:	f8c4 3088 	str.w	r3, [r4, #136]	@ 0x88
  \details Acts as a special kind of Data Memory Barrier.
           It completes when all explicit memory accesses before this instruction complete.
 */
__STATIC_FORCEINLINE void __DSB(void)
{
  __ASM volatile ("dsb 0xF":::"memory");
100110c6:	f3bf 8f4f 	dsb	sy
  __ASM volatile ("isb 0xF":::"memory");
100110ca:	f3bf 8f6f 	isb	sy
    __DSB();
    __ISB();

    SystemCoreClockUpdate();
100110ce:	f7ff ffb7 	bl	10011040 <SystemCoreClockUpdate>

    Board_Init();
100110d2:	f7ff fdd7 	bl	10010c84 <Board_Init>
}
100110d6:	bd10      	pop	{r4, pc}
100110d8:	e000ed00 	.word	0xe000ed00
100110dc:	1000e000 	.word	0x1000e000
100110e0:	4002a000 	.word	0x4002a000

100110e4 <MXC_DelayInit>:
    }
}

/* ************************************************************************** */
static void MXC_DelayInit(uint32_t us)
{
100110e4:	b538      	push	{r3, r4, r5, lr}
    uint32_t starttick, reload, ticks, lastticks;

    // Record the current tick value and clear the overflow flag
    starttick = SysTick->VAL;
100110e6:	f04f 23e0 	mov.w	r3, #3758153728	@ 0xe000e000

    // Save the state of control register (and clear the overflow flag)
    ctrl_save = SysTick->CTRL & ~SysTick_CTRL_COUNTFLAG_Msk;
100110ea:	4918      	ldr	r1, [pc, #96]	@ (1001114c <MXC_DelayInit+0x68>)
    starttick = SysTick->VAL;
100110ec:	699c      	ldr	r4, [r3, #24]
    ctrl_save = SysTick->CTRL & ~SysTick_CTRL_COUNTFLAG_Msk;
100110ee:	691a      	ldr	r2, [r3, #16]
100110f0:	f422 3280 	bic.w	r2, r2, #65536	@ 0x10000
100110f4:	600a      	str	r2, [r1, #0]

    // If the SysTick is not running, configure and start it
    if (!(SysTick->CTRL & SysTick_CTRL_ENABLE_Msk)) {
100110f6:	691a      	ldr	r2, [r3, #16]
100110f8:	07d2      	lsls	r2, r2, #31
100110fa:	d41f      	bmi.n	1001113c <MXC_DelayInit+0x58>
        SysTick->LOAD = SysTick_LOAD_RELOAD_Msk;
100110fc:	f06f 447f 	mvn.w	r4, #4278190080	@ 0xff000000
        SysTick->VAL = SysTick_VAL_CURRENT_Msk;
        SysTick->CTRL = SysTick_CTRL_ENABLE_Msk | SysTick_CTRL_CLKSOURCE_Msk;
10011100:	2205      	movs	r2, #5
        SysTick->LOAD = SysTick_LOAD_RELOAD_Msk;
10011102:	615c      	str	r4, [r3, #20]
        starttick = SysTick_VAL_CURRENT_Msk;
        reload = SysTick_LOAD_RELOAD_Msk + 1;
10011104:	f04f 7580 	mov.w	r5, #16777216	@ 0x1000000
        SysTick->VAL = SysTick_VAL_CURRENT_Msk;
10011108:	619c      	str	r4, [r3, #24]
        SysTick->CTRL = SysTick_CTRL_ENABLE_Msk | SysTick_CTRL_CLKSOURCE_Msk;
1001110a:	611a      	str	r2, [r3, #16]
    } else {
        reload = SysTick->LOAD + 1; // get the current reload value
    }

    // Calculate the total number of ticks to delay
    ticks = (uint32_t)(((uint64_t)us * (uint64_t)SystemCoreClock) / 1000000);
1001110c:	4b10      	ldr	r3, [pc, #64]	@ (10011150 <MXC_DelayInit+0x6c>)
1001110e:	4a11      	ldr	r2, [pc, #68]	@ (10011154 <MXC_DelayInit+0x70>)
10011110:	6819      	ldr	r1, [r3, #0]
10011112:	2300      	movs	r3, #0
10011114:	fba0 0101 	umull	r0, r1, r0, r1
10011118:	f00a f882 	bl	1001b220 <__aeabi_uldivmod>

    // How many overflows of the SysTick will occur
    overflows = ticks / reload;
1001111c:	4b0e      	ldr	r3, [pc, #56]	@ (10011158 <MXC_DelayInit+0x74>)
1001111e:	fbb0 f2f5 	udiv	r2, r0, r5

    // How many remaining ticks after the last overflow
    lastticks = ticks % reload;
10011122:	fb05 0012 	mls	r0, r5, r2, r0

    // Check if there will be another overflow due to the current value of the SysTick
    if (lastticks >= starttick) {
10011126:	4284      	cmp	r4, r0
    overflows = ticks / reload;
10011128:	601a      	str	r2, [r3, #0]
    if (lastticks >= starttick) {
1001112a:	d80a      	bhi.n	10011142 <MXC_DelayInit+0x5e>
        overflows++;
1001112c:	681a      	ldr	r2, [r3, #0]
1001112e:	3201      	adds	r2, #1
10011130:	601a      	str	r2, [r3, #0]
        endtick = reload - (lastticks - starttick);
10011132:	4425      	add	r5, r4
10011134:	4b09      	ldr	r3, [pc, #36]	@ (1001115c <MXC_DelayInit+0x78>)
10011136:	1a28      	subs	r0, r5, r0
10011138:	6018      	str	r0, [r3, #0]
    } else {
        endtick = starttick - lastticks;
    }
}
1001113a:	bd38      	pop	{r3, r4, r5, pc}
        reload = SysTick->LOAD + 1; // get the current reload value
1001113c:	695d      	ldr	r5, [r3, #20]
1001113e:	3501      	adds	r5, #1
10011140:	e7e4      	b.n	1001110c <MXC_DelayInit+0x28>
        endtick = starttick - lastticks;
10011142:	4b06      	ldr	r3, [pc, #24]	@ (1001115c <MXC_DelayInit+0x78>)
10011144:	1a20      	subs	r0, r4, r0
10011146:	6018      	str	r0, [r3, #0]
}
10011148:	bd38      	pop	{r3, r4, r5, pc}
1001114a:	bf00      	nop
1001114c:	20000e40 	.word	0x20000e40
10011150:	20001950 	.word	0x20001950
10011154:	000f4240 	.word	0x000f4240
10011158:	20000044 	.word	0x20000044
1001115c:	20000e44 	.word	0x20000e44

10011160 <MXC_DelayAsync>:

/* ************************************************************************** */
int MXC_DelayAsync(uint32_t us, mxc_delay_complete_t callback)
{
10011160:	b510      	push	{r4, lr}
    cbFunc = callback;

    // Check if timeout currently ongoing
    if (overflows > 0) {
10011162:	4c0c      	ldr	r4, [pc, #48]	@ (10011194 <MXC_DelayAsync+0x34>)
    cbFunc = callback;
10011164:	4b0c      	ldr	r3, [pc, #48]	@ (10011198 <MXC_DelayAsync+0x38>)
    if (overflows > 0) {
10011166:	6822      	ldr	r2, [r4, #0]
    cbFunc = callback;
10011168:	6019      	str	r1, [r3, #0]
    if (overflows > 0) {
1001116a:	2a00      	cmp	r2, #0
1001116c:	dc0e      	bgt.n	1001118c <MXC_DelayAsync+0x2c>
        return E_BUSY;
    }

    // Check if there is nothing to do
    if (us == 0) {
1001116e:	b908      	cbnz	r0, 10011174 <MXC_DelayAsync+0x14>
        return E_NO_ERROR;
10011170:	2000      	movs	r0, #0
    if (overflows > 0) {
        SysTick->CTRL |= SysTick_CTRL_TICKINT_Msk;
    }

    return E_NO_ERROR;
}
10011172:	bd10      	pop	{r4, pc}
    MXC_DelayInit(us);
10011174:	f7ff ffb6 	bl	100110e4 <MXC_DelayInit>
    if (overflows > 0) {
10011178:	6823      	ldr	r3, [r4, #0]
1001117a:	2b00      	cmp	r3, #0
1001117c:	ddf8      	ble.n	10011170 <MXC_DelayAsync+0x10>
        SysTick->CTRL |= SysTick_CTRL_TICKINT_Msk;
1001117e:	f04f 22e0 	mov.w	r2, #3758153728	@ 0xe000e000
10011182:	6913      	ldr	r3, [r2, #16]
10011184:	f043 0302 	orr.w	r3, r3, #2
10011188:	6113      	str	r3, [r2, #16]
1001118a:	e7f1      	b.n	10011170 <MXC_DelayAsync+0x10>
        return E_BUSY;
1001118c:	f06f 0005 	mvn.w	r0, #5
}
10011190:	bd10      	pop	{r4, pc}
10011192:	bf00      	nop
10011194:	20000044 	.word	0x20000044
10011198:	20000e3c 	.word	0x20000e3c

1001119c <MXC_DelayCheck>:

/* ************************************************************************** */
int MXC_DelayCheck(void)
{
1001119c:	b5f8      	push	{r3, r4, r5, r6, r7, lr}
    // Check if timeout currently ongoing
    if (overflows < 0) {
1001119e:	4c17      	ldr	r4, [pc, #92]	@ (100111fc <MXC_DelayCheck+0x60>)
100111a0:	6823      	ldr	r3, [r4, #0]
100111a2:	2b00      	cmp	r3, #0
100111a4:	db1e      	blt.n	100111e4 <MXC_DelayCheck+0x48>

        return E_NO_ERROR;
    }

    // Check the global values
    if ((overflows == 0) && (SysTick->VAL <= endtick)) {
100111a6:	6826      	ldr	r6, [r4, #0]
100111a8:	bb2e      	cbnz	r6, 100111f6 <MXC_DelayCheck+0x5a>
100111aa:	4b15      	ldr	r3, [pc, #84]	@ (10011200 <MXC_DelayCheck+0x64>)
100111ac:	f04f 25e0 	mov.w	r5, #3758153728	@ 0xe000e000
100111b0:	681b      	ldr	r3, [r3, #0]
100111b2:	69aa      	ldr	r2, [r5, #24]
100111b4:	429a      	cmp	r2, r3
100111b6:	d81e      	bhi.n	100111f6 <MXC_DelayCheck+0x5a>
}

/* ************************************************************************** */
void MXC_DelayAbort(void)
{
    if (cbFunc != NULL) {
100111b8:	4f12      	ldr	r7, [pc, #72]	@ (10011204 <MXC_DelayCheck+0x68>)
100111ba:	683b      	ldr	r3, [r7, #0]
100111bc:	b15b      	cbz	r3, 100111d6 <MXC_DelayCheck+0x3a>
        cbFunc(E_ABORT);
100111be:	f06f 000f 	mvn.w	r0, #15
100111c2:	4798      	blx	r3
        cbFunc = NULL;
    }

    SysTick->CTRL = ctrl_save;
100111c4:	4b10      	ldr	r3, [pc, #64]	@ (10011208 <MXC_DelayCheck+0x6c>)
        cbFunc = NULL;
100111c6:	603e      	str	r6, [r7, #0]
    SysTick->CTRL = ctrl_save;
100111c8:	681a      	ldr	r2, [r3, #0]
100111ca:	612a      	str	r2, [r5, #16]
    overflows = -1;
100111cc:	f04f 33ff 	mov.w	r3, #4294967295	@ 0xffffffff
100111d0:	6023      	str	r3, [r4, #0]
        return E_NO_ERROR;
100111d2:	2000      	movs	r0, #0
}
100111d4:	bdf8      	pop	{r3, r4, r5, r6, r7, pc}
    SysTick->CTRL = ctrl_save;
100111d6:	4a0c      	ldr	r2, [pc, #48]	@ (10011208 <MXC_DelayCheck+0x6c>)
    overflows = -1;
100111d8:	f04f 33ff 	mov.w	r3, #4294967295	@ 0xffffffff
    SysTick->CTRL = ctrl_save;
100111dc:	6812      	ldr	r2, [r2, #0]
100111de:	612a      	str	r2, [r5, #16]
    overflows = -1;
100111e0:	6023      	str	r3, [r4, #0]
        if (cbFunc != NULL) {
100111e2:	e7f6      	b.n	100111d2 <MXC_DelayCheck+0x36>
        if (cbFunc != NULL) {
100111e4:	4c07      	ldr	r4, [pc, #28]	@ (10011204 <MXC_DelayCheck+0x68>)
100111e6:	6823      	ldr	r3, [r4, #0]
100111e8:	2b00      	cmp	r3, #0
100111ea:	d0f2      	beq.n	100111d2 <MXC_DelayCheck+0x36>
            cbFunc(E_NO_ERROR);
100111ec:	2000      	movs	r0, #0
100111ee:	4798      	blx	r3
            cbFunc = NULL;
100111f0:	2300      	movs	r3, #0
100111f2:	6023      	str	r3, [r4, #0]
100111f4:	e7ed      	b.n	100111d2 <MXC_DelayCheck+0x36>
    return E_BUSY;
100111f6:	f06f 0005 	mvn.w	r0, #5
}
100111fa:	bdf8      	pop	{r3, r4, r5, r6, r7, pc}
100111fc:	20000044 	.word	0x20000044
10011200:	20000e44 	.word	0x20000e44
10011204:	20000e3c 	.word	0x20000e3c
10011208:	20000e40 	.word	0x20000e40

1001120c <MXC_DelayAbort>:
{
1001120c:	b510      	push	{r4, lr}
    if (cbFunc != NULL) {
1001120e:	4c09      	ldr	r4, [pc, #36]	@ (10011234 <MXC_DelayAbort+0x28>)
10011210:	6823      	ldr	r3, [r4, #0]
10011212:	b123      	cbz	r3, 1001121e <MXC_DelayAbort+0x12>
        cbFunc(E_ABORT);
10011214:	f06f 000f 	mvn.w	r0, #15
10011218:	4798      	blx	r3
        cbFunc = NULL;
1001121a:	2300      	movs	r3, #0
1001121c:	6023      	str	r3, [r4, #0]
    SysTick->CTRL = ctrl_save;
1001121e:	4a06      	ldr	r2, [pc, #24]	@ (10011238 <MXC_DelayAbort+0x2c>)
    overflows = -1;
10011220:	4b06      	ldr	r3, [pc, #24]	@ (1001123c <MXC_DelayAbort+0x30>)
    SysTick->CTRL = ctrl_save;
10011222:	6810      	ldr	r0, [r2, #0]
10011224:	f04f 21e0 	mov.w	r1, #3758153728	@ 0xe000e000
    overflows = -1;
10011228:	f04f 32ff 	mov.w	r2, #4294967295	@ 0xffffffff
    SysTick->CTRL = ctrl_save;
1001122c:	6108      	str	r0, [r1, #16]
    overflows = -1;
1001122e:	601a      	str	r2, [r3, #0]
}
10011230:	bd10      	pop	{r4, pc}
10011232:	bf00      	nop
10011234:	20000e3c 	.word	0x20000e3c
10011238:	20000e40 	.word	0x20000e40
1001123c:	20000044 	.word	0x20000044

10011240 <MXC_Delay>:

/* ************************************************************************** */
int MXC_Delay(uint32_t us)
{
10011240:	b538      	push	{r3, r4, r5, lr}
    // Check if timeout currently ongoing
    if (overflows > 0) {
10011242:	4c18      	ldr	r4, [pc, #96]	@ (100112a4 <MXC_Delay+0x64>)
10011244:	6822      	ldr	r2, [r4, #0]
10011246:	2a00      	cmp	r2, #0
10011248:	dc29      	bgt.n	1001129e <MXC_Delay+0x5e>
        return E_BUSY;
    }

    // Check if there is nothing to do
    if (us == 0) {
1001124a:	b908      	cbnz	r0, 10011250 <MXC_Delay+0x10>
        return E_NO_ERROR;
1001124c:	2000      	movs	r0, #0
    // Wait for the counter value
    while (SysTick->VAL > endtick) {}

    MXC_DelayAbort();
    return E_NO_ERROR;
}
1001124e:	bd38      	pop	{r3, r4, r5, pc}
    MXC_DelayInit(us);
10011250:	f7ff ff48 	bl	100110e4 <MXC_DelayInit>
        if (SysTick->CTRL & SysTick_CTRL_COUNTFLAG_Msk) {
10011254:	f04f 22e0 	mov.w	r2, #3758153728	@ 0xe000e000
    while (overflows > 0) {
10011258:	e002      	b.n	10011260 <MXC_Delay+0x20>
        if (SysTick->CTRL & SysTick_CTRL_COUNTFLAG_Msk) {
1001125a:	6913      	ldr	r3, [r2, #16]
1001125c:	03db      	lsls	r3, r3, #15
1001125e:	d41a      	bmi.n	10011296 <MXC_Delay+0x56>
    while (overflows > 0) {
10011260:	6823      	ldr	r3, [r4, #0]
10011262:	2b00      	cmp	r3, #0
10011264:	dcf9      	bgt.n	1001125a <MXC_Delay+0x1a>
    while (SysTick->VAL > endtick) {}
10011266:	4b10      	ldr	r3, [pc, #64]	@ (100112a8 <MXC_Delay+0x68>)
10011268:	681a      	ldr	r2, [r3, #0]
1001126a:	f04f 21e0 	mov.w	r1, #3758153728	@ 0xe000e000
1001126e:	698b      	ldr	r3, [r1, #24]
10011270:	4293      	cmp	r3, r2
10011272:	d8fc      	bhi.n	1001126e <MXC_Delay+0x2e>
    if (cbFunc != NULL) {
10011274:	4d0d      	ldr	r5, [pc, #52]	@ (100112ac <MXC_Delay+0x6c>)
10011276:	682b      	ldr	r3, [r5, #0]
10011278:	b123      	cbz	r3, 10011284 <MXC_Delay+0x44>
        cbFunc(E_ABORT);
1001127a:	f06f 000f 	mvn.w	r0, #15
1001127e:	4798      	blx	r3
        cbFunc = NULL;
10011280:	2300      	movs	r3, #0
10011282:	602b      	str	r3, [r5, #0]
    SysTick->CTRL = ctrl_save;
10011284:	4b0a      	ldr	r3, [pc, #40]	@ (100112b0 <MXC_Delay+0x70>)
10011286:	f04f 22e0 	mov.w	r2, #3758153728	@ 0xe000e000
1001128a:	6819      	ldr	r1, [r3, #0]
1001128c:	6111      	str	r1, [r2, #16]
    overflows = -1;
1001128e:	f04f 33ff 	mov.w	r3, #4294967295	@ 0xffffffff
10011292:	6023      	str	r3, [r4, #0]
}
10011294:	e7da      	b.n	1001124c <MXC_Delay+0xc>
            overflows--;
10011296:	6823      	ldr	r3, [r4, #0]
10011298:	3b01      	subs	r3, #1
1001129a:	6023      	str	r3, [r4, #0]
1001129c:	e7e0      	b.n	10011260 <MXC_Delay+0x20>
        return E_BUSY;
1001129e:	f06f 0005 	mvn.w	r0, #5
}
100112a2:	bd38      	pop	{r3, r4, r5, pc}
100112a4:	20000044 	.word	0x20000044
100112a8:	20000e44 	.word	0x20000e44
100112ac:	20000e3c 	.word	0x20000e3c
100112b0:	20000e40 	.word	0x20000e40

100112b4 <MXC_NVIC_SetVector>:
    memcpy(&ramVectorTable, &__isr_vector, sizeof(ramVectorTable));
    SCB->VTOR = (uint32_t)&ramVectorTable;
}

void MXC_NVIC_SetVector(IRQn_Type irqn, void (*irq_handler)(void))
{
100112b4:	b5f8      	push	{r3, r4, r5, r6, r7, lr}
    int index = irqn + 16; /* offset for externals */

    /* If not copied, do copy */
    if (SCB->VTOR != (uint32_t)&ramVectorTable) {
100112b6:	4e0f      	ldr	r6, [pc, #60]	@ (100112f4 <MXC_NVIC_SetVector+0x40>)
100112b8:	4b0f      	ldr	r3, [pc, #60]	@ (100112f8 <MXC_NVIC_SetVector+0x44>)
100112ba:	68b2      	ldr	r2, [r6, #8]
100112bc:	429a      	cmp	r2, r3
{
100112be:	4604      	mov	r4, r0
100112c0:	460d      	mov	r5, r1
    int index = irqn + 16; /* offset for externals */
100112c2:	f100 0710 	add.w	r7, r0, #16
    if (SCB->VTOR != (uint32_t)&ramVectorTable) {
100112c6:	d007      	beq.n	100112d8 <MXC_NVIC_SetVector+0x24>
    memcpy(&ramVectorTable, &__isr_vector, sizeof(ramVectorTable));
100112c8:	4618      	mov	r0, r3
100112ca:	490c      	ldr	r1, [pc, #48]	@ (100112fc <MXC_NVIC_SetVector+0x48>)
100112cc:	f44f 72f0 	mov.w	r2, #480	@ 0x1e0
100112d0:	f004 fe76 	bl	10015fc0 <memcpy>
100112d4:	4603      	mov	r3, r0
    SCB->VTOR = (uint32_t)&ramVectorTable;
100112d6:	60b0      	str	r0, [r6, #8]
  if ((int32_t)(IRQn) >= 0)
100112d8:	2c00      	cmp	r4, #0
        NVIC_SetRAM();
    }

    ramVectorTable[index] = irq_handler;
100112da:	f843 5027 	str.w	r5, [r3, r7, lsl #2]
100112de:	db07      	blt.n	100112f0 <MXC_NVIC_SetVector+0x3c>
    NVIC->ISER[(((uint32_t)IRQn) >> 5UL)] = (uint32_t)(1UL << (((uint32_t)IRQn) & 0x1FUL));
100112e0:	4a07      	ldr	r2, [pc, #28]	@ (10011300 <MXC_NVIC_SetVector+0x4c>)
100112e2:	0961      	lsrs	r1, r4, #5
100112e4:	2301      	movs	r3, #1
100112e6:	f004 041f 	and.w	r4, r4, #31
100112ea:	40a3      	lsls	r3, r4
100112ec:	f842 3021 	str.w	r3, [r2, r1, lsl #2]
    NVIC_EnableIRQ(irqn);
}
100112f0:	bdf8      	pop	{r3, r4, r5, r6, r7, pc}
100112f2:	bf00      	nop
100112f4:	e000ed00 	.word	0xe000ed00
100112f8:	20001000 	.word	0x20001000
100112fc:	1000e000 	.word	0x1000e000
10011300:	e000e100 	.word	0xe000e100

10011304 <MXC_SYS_ClockDisable>:

/* ************************************************************************** */
void MXC_SYS_ClockDisable(mxc_sys_periph_clock_t clock)
{
    /* The mxc_sys_periph_clock_t enum uses enum values that are the offset by 32 and 64 for the perckcn1 register. */
    if (clock > 63) {
10011304:	283f      	cmp	r0, #63	@ 0x3f
10011306:	d908      	bls.n	1001131a <MXC_SYS_ClockDisable+0x16>
        clock -= 64;
        MXC_LPGCR->pclkdis |= (0x1 << clock);
10011308:	4a0d      	ldr	r2, [pc, #52]	@ (10011340 <MXC_SYS_ClockDisable+0x3c>)
        clock -= 64;
1001130a:	3840      	subs	r0, #64	@ 0x40
        MXC_LPGCR->pclkdis |= (0x1 << clock);
1001130c:	68d1      	ldr	r1, [r2, #12]
1001130e:	b2c0      	uxtb	r0, r0
10011310:	2301      	movs	r3, #1
10011312:	4083      	lsls	r3, r0
10011314:	430b      	orrs	r3, r1
10011316:	60d3      	str	r3, [r2, #12]
10011318:	4770      	bx	lr
    } else if (clock > 31) {
1001131a:	281f      	cmp	r0, #31
        clock -= 32;
        MXC_GCR->pclkdis1 |= (0x1 << clock);
1001131c:	f04f 4280 	mov.w	r2, #1073741824	@ 0x40000000
    } else if (clock > 31) {
10011320:	d907      	bls.n	10011332 <MXC_SYS_ClockDisable+0x2e>
        clock -= 32;
10011322:	3820      	subs	r0, #32
        MXC_GCR->pclkdis1 |= (0x1 << clock);
10011324:	6c91      	ldr	r1, [r2, #72]	@ 0x48
10011326:	b2c0      	uxtb	r0, r0
10011328:	2301      	movs	r3, #1
1001132a:	4083      	lsls	r3, r0
1001132c:	430b      	orrs	r3, r1
1001132e:	6493      	str	r3, [r2, #72]	@ 0x48
10011330:	4770      	bx	lr
    } else {
        MXC_GCR->pclkdis0 |= (0x1 << clock);
10011332:	6a51      	ldr	r1, [r2, #36]	@ 0x24
10011334:	2301      	movs	r3, #1
10011336:	4083      	lsls	r3, r0
10011338:	430b      	orrs	r3, r1
1001133a:	6253      	str	r3, [r2, #36]	@ 0x24
    }
}
1001133c:	4770      	bx	lr
1001133e:	bf00      	nop
10011340:	40080000 	.word	0x40080000

10011344 <MXC_SYS_ClockEnable>:

/* ************************************************************************** */
void MXC_SYS_ClockEnable(mxc_sys_periph_clock_t clock)
{
    /* The mxc_sys_periph_clock_t enum uses enum values that are the offset by 32 and 64 for the perckcn1 register. */
    if (clock > 63) {
10011344:	283f      	cmp	r0, #63	@ 0x3f
10011346:	d909      	bls.n	1001135c <MXC_SYS_ClockEnable+0x18>
        clock -= 64;
        MXC_LPGCR->pclkdis &= ~(0x1 << clock);
10011348:	490e      	ldr	r1, [pc, #56]	@ (10011384 <MXC_SYS_ClockEnable+0x40>)
        clock -= 64;
1001134a:	3840      	subs	r0, #64	@ 0x40
        MXC_LPGCR->pclkdis &= ~(0x1 << clock);
1001134c:	68cb      	ldr	r3, [r1, #12]
1001134e:	b2c0      	uxtb	r0, r0
10011350:	2201      	movs	r2, #1
10011352:	4082      	lsls	r2, r0
10011354:	ea23 0302 	bic.w	r3, r3, r2
10011358:	60cb      	str	r3, [r1, #12]
1001135a:	4770      	bx	lr
    } else if (clock > 31) {
1001135c:	281f      	cmp	r0, #31
        clock -= 32;
        MXC_GCR->pclkdis1 &= ~(0x1 << clock);
1001135e:	f04f 4180 	mov.w	r1, #1073741824	@ 0x40000000
    } else if (clock > 31) {
10011362:	d908      	bls.n	10011376 <MXC_SYS_ClockEnable+0x32>
        clock -= 32;
10011364:	3820      	subs	r0, #32
        MXC_GCR->pclkdis1 &= ~(0x1 << clock);
10011366:	6c8b      	ldr	r3, [r1, #72]	@ 0x48
10011368:	b2c0      	uxtb	r0, r0
1001136a:	2201      	movs	r2, #1
1001136c:	4082      	lsls	r2, r0
1001136e:	ea23 0302 	bic.w	r3, r3, r2
10011372:	648b      	str	r3, [r1, #72]	@ 0x48
10011374:	4770      	bx	lr
    } else {
        MXC_GCR->pclkdis0 &= ~(0x1 << clock);
10011376:	6a4b      	ldr	r3, [r1, #36]	@ 0x24
10011378:	2201      	movs	r2, #1
1001137a:	4082      	lsls	r2, r0
1001137c:	ea23 0302 	bic.w	r3, r3, r2
10011380:	624b      	str	r3, [r1, #36]	@ 0x24
    }
}
10011382:	4770      	bx	lr
10011384:	40080000 	.word	0x40080000

10011388 <MXC_SYS_ClockSourceEnable>:
    }
}

/******************************************************************************/
int MXC_SYS_ClockSourceEnable(mxc_sys_system_clock_t clock)
{
10011388:	b510      	push	{r4, lr}
    switch (clock) {
1001138a:	2807      	cmp	r0, #7
1001138c:	d80a      	bhi.n	100113a4 <MXC_SYS_ClockSourceEnable+0x1c>
1001138e:	e8df f000 	tbb	[pc, r0]
10011392:	090c      	.short	0x090c
10011394:	47332309 	.word	0x47332309
10011398:	045b      	.short	0x045b

    default:
        return E_BAD_PARAM;
        break;
    }
}
1001139a:	e8bd 4010 	ldmia.w	sp!, {r4, lr}
        return MXC_GPIO_Config(&gpio_cfg_extclk);
1001139e:	4836      	ldr	r0, [pc, #216]	@ (10011478 <MXC_SYS_ClockSourceEnable+0xf0>)
100113a0:	f000 b8b0 	b.w	10011504 <MXC_GPIO_Config>
    switch (clock) {
100113a4:	f06f 0002 	mvn.w	r0, #2
}
100113a8:	bd10      	pop	{r4, pc}
        MXC_GCR->clkctrl |= MXC_F_GCR_CLKCTRL_ISO_EN;
100113aa:	f04f 4480 	mov.w	r4, #1073741824	@ 0x40000000
    // We do not have access to a system tick in the RV core.
    while (!(MXC_GCR->clkctrl & ready)) {}
    return E_NO_ERROR;
#else
    // Start timeout, wait for ready
    MXC_DelayAsync(MXC_SYS_CLOCK_TIMEOUT, NULL);
100113ae:	2100      	movs	r1, #0
        MXC_GCR->clkctrl |= MXC_F_GCR_CLKCTRL_ISO_EN;
100113b0:	68a3      	ldr	r3, [r4, #8]
100113b2:	f443 2380 	orr.w	r3, r3, #262144	@ 0x40000
100113b6:	60a3      	str	r3, [r4, #8]
    MXC_DelayAsync(MXC_SYS_CLOCK_TIMEOUT, NULL);
100113b8:	f44f 707a 	mov.w	r0, #1000	@ 0x3e8
100113bc:	f7ff fed0 	bl	10011160 <MXC_DelayAsync>
100113c0:	e003      	b.n	100113ca <MXC_SYS_ClockSourceEnable+0x42>
    do {
        if (MXC_GCR->clkctrl & ready) {
            MXC_DelayAbort();
            return E_NO_ERROR;
        }
    } while (MXC_DelayCheck() == E_BUSY);
100113c2:	f7ff feeb 	bl	1001119c <MXC_DelayCheck>
100113c6:	3006      	adds	r0, #6
100113c8:	d152      	bne.n	10011470 <MXC_SYS_ClockSourceEnable+0xe8>
        if (MXC_GCR->clkctrl & ready) {
100113ca:	68a3      	ldr	r3, [r4, #8]
100113cc:	0159      	lsls	r1, r3, #5
100113ce:	d5f8      	bpl.n	100113c2 <MXC_SYS_ClockSourceEnable+0x3a>
            MXC_DelayAbort();
100113d0:	f7ff ff1c 	bl	1001120c <MXC_DelayAbort>
            return E_NO_ERROR;
100113d4:	2000      	movs	r0, #0
}
100113d6:	bd10      	pop	{r4, pc}
    MXC_DelayAsync(MXC_SYS_CLOCK_TIMEOUT, NULL);
100113d8:	2100      	movs	r1, #0
100113da:	f44f 707a 	mov.w	r0, #1000	@ 0x3e8
100113de:	f7ff febf 	bl	10011160 <MXC_DelayAsync>
        if (MXC_GCR->clkctrl & ready) {
100113e2:	f04f 4480 	mov.w	r4, #1073741824	@ 0x40000000
100113e6:	e003      	b.n	100113f0 <MXC_SYS_ClockSourceEnable+0x68>
    } while (MXC_DelayCheck() == E_BUSY);
100113e8:	f7ff fed8 	bl	1001119c <MXC_DelayCheck>
100113ec:	3006      	adds	r0, #6
100113ee:	d13f      	bne.n	10011470 <MXC_SYS_ClockSourceEnable+0xe8>
        if (MXC_GCR->clkctrl & ready) {
100113f0:	68a3      	ldr	r3, [r4, #8]
100113f2:	009a      	lsls	r2, r3, #2
100113f4:	d4ec      	bmi.n	100113d0 <MXC_SYS_ClockSourceEnable+0x48>
100113f6:	e7f7      	b.n	100113e8 <MXC_SYS_ClockSourceEnable+0x60>
        MXC_GCR->clkctrl |= MXC_F_GCR_CLKCTRL_IPO_EN;
100113f8:	f04f 4480 	mov.w	r4, #1073741824	@ 0x40000000
    MXC_DelayAsync(MXC_SYS_CLOCK_TIMEOUT, NULL);
100113fc:	2100      	movs	r1, #0
        MXC_GCR->clkctrl |= MXC_F_GCR_CLKCTRL_IPO_EN;
100113fe:	68a3      	ldr	r3, [r4, #8]
10011400:	f443 2300 	orr.w	r3, r3, #524288	@ 0x80000
10011404:	60a3      	str	r3, [r4, #8]
    MXC_DelayAsync(MXC_SYS_CLOCK_TIMEOUT, NULL);
10011406:	f44f 707a 	mov.w	r0, #1000	@ 0x3e8
1001140a:	f7ff fea9 	bl	10011160 <MXC_DelayAsync>
1001140e:	e003      	b.n	10011418 <MXC_SYS_ClockSourceEnable+0x90>
    } while (MXC_DelayCheck() == E_BUSY);
10011410:	f7ff fec4 	bl	1001119c <MXC_DelayCheck>
10011414:	3006      	adds	r0, #6
10011416:	d12b      	bne.n	10011470 <MXC_SYS_ClockSourceEnable+0xe8>
        if (MXC_GCR->clkctrl & ready) {
10011418:	68a3      	ldr	r3, [r4, #8]
1001141a:	011b      	lsls	r3, r3, #4
1001141c:	d5f8      	bpl.n	10011410 <MXC_SYS_ClockSourceEnable+0x88>
1001141e:	e7d7      	b.n	100113d0 <MXC_SYS_ClockSourceEnable+0x48>
        MXC_GCR->clkctrl |= MXC_F_GCR_CLKCTRL_IBRO_EN;
10011420:	f04f 4480 	mov.w	r4, #1073741824	@ 0x40000000
    MXC_DelayAsync(MXC_SYS_CLOCK_TIMEOUT, NULL);
10011424:	2100      	movs	r1, #0
        MXC_GCR->clkctrl |= MXC_F_GCR_CLKCTRL_IBRO_EN;
10011426:	68a3      	ldr	r3, [r4, #8]
10011428:	f443 1380 	orr.w	r3, r3, #1048576	@ 0x100000
1001142c:	60a3      	str	r3, [r4, #8]
    MXC_DelayAsync(MXC_SYS_CLOCK_TIMEOUT, NULL);
1001142e:	f44f 707a 	mov.w	r0, #1000	@ 0x3e8
10011432:	f7ff fe95 	bl	10011160 <MXC_DelayAsync>
10011436:	e003      	b.n	10011440 <MXC_SYS_ClockSourceEnable+0xb8>
    } while (MXC_DelayCheck() == E_BUSY);
10011438:	f7ff feb0 	bl	1001119c <MXC_DelayCheck>
1001143c:	3006      	adds	r0, #6
1001143e:	d117      	bne.n	10011470 <MXC_SYS_ClockSourceEnable+0xe8>
        if (MXC_GCR->clkctrl & ready) {
10011440:	68a3      	ldr	r3, [r4, #8]
10011442:	00d8      	lsls	r0, r3, #3
10011444:	d4c4      	bmi.n	100113d0 <MXC_SYS_ClockSourceEnable+0x48>
10011446:	e7f7      	b.n	10011438 <MXC_SYS_ClockSourceEnable+0xb0>
        MXC_GCR->clkctrl |= MXC_F_GCR_CLKCTRL_ERTCO_EN;
10011448:	f04f 4480 	mov.w	r4, #1073741824	@ 0x40000000
    MXC_DelayAsync(MXC_SYS_CLOCK_TIMEOUT, NULL);
1001144c:	2100      	movs	r1, #0
        MXC_GCR->clkctrl |= MXC_F_GCR_CLKCTRL_ERTCO_EN;
1001144e:	68a3      	ldr	r3, [r4, #8]
10011450:	f443 3300 	orr.w	r3, r3, #131072	@ 0x20000
10011454:	60a3      	str	r3, [r4, #8]
    MXC_DelayAsync(MXC_SYS_CLOCK_TIMEOUT, NULL);
10011456:	f44f 707a 	mov.w	r0, #1000	@ 0x3e8
1001145a:	f7ff fe81 	bl	10011160 <MXC_DelayAsync>
1001145e:	e003      	b.n	10011468 <MXC_SYS_ClockSourceEnable+0xe0>
    } while (MXC_DelayCheck() == E_BUSY);
10011460:	f7ff fe9c 	bl	1001119c <MXC_DelayCheck>
10011464:	3006      	adds	r0, #6
10011466:	d103      	bne.n	10011470 <MXC_SYS_ClockSourceEnable+0xe8>
        if (MXC_GCR->clkctrl & ready) {
10011468:	68a3      	ldr	r3, [r4, #8]
1001146a:	019b      	lsls	r3, r3, #6
1001146c:	d4b0      	bmi.n	100113d0 <MXC_SYS_ClockSourceEnable+0x48>
1001146e:	e7f7      	b.n	10011460 <MXC_SYS_ClockSourceEnable+0xd8>

    return E_TIME_OUT;
10011470:	f06f 0009 	mvn.w	r0, #9
}
10011474:	bd10      	pop	{r4, pc}
10011476:	bf00      	nop
10011478:	1001d894 	.word	0x1001d894

1001147c <MXC_SYS_Reset_Periph>:

/* ************************************************************************** */
void MXC_SYS_Reset_Periph(mxc_sys_reset_t reset)
{
    /* The mxc_sys_reset_t enum uses enum values that are the offset by 32 and 64 for the rst register. */
    if (reset > 63) {
1001147c:	283f      	cmp	r0, #63	@ 0x3f
1001147e:	d909      	bls.n	10011494 <MXC_SYS_Reset_Periph+0x18>
        reset -= 64;
10011480:	3840      	subs	r0, #64	@ 0x40
        MXC_LPGCR->rst = (0x1 << reset);
10011482:	490f      	ldr	r1, [pc, #60]	@ (100114c0 <MXC_SYS_Reset_Periph+0x44>)
10011484:	b2c0      	uxtb	r0, r0
10011486:	2201      	movs	r2, #1
10011488:	4082      	lsls	r2, r0
1001148a:	608a      	str	r2, [r1, #8]
        while (MXC_LPGCR->rst & (0x1 << reset)) {}
1001148c:	688b      	ldr	r3, [r1, #8]
1001148e:	421a      	tst	r2, r3
10011490:	d1fc      	bne.n	1001148c <MXC_SYS_Reset_Periph+0x10>
10011492:	4770      	bx	lr
    } else if (reset > 31) {
10011494:	281f      	cmp	r0, #31
10011496:	d90a      	bls.n	100114ae <MXC_SYS_Reset_Periph+0x32>
        reset -= 32;
10011498:	3820      	subs	r0, #32
        MXC_GCR->rst1 = (0x1 << reset);
1001149a:	b2c0      	uxtb	r0, r0
1001149c:	2201      	movs	r2, #1
1001149e:	f04f 4180 	mov.w	r1, #1073741824	@ 0x40000000
100114a2:	4082      	lsls	r2, r0
100114a4:	644a      	str	r2, [r1, #68]	@ 0x44
        while (MXC_GCR->rst1 & (0x1 << reset)) {}
100114a6:	6c4b      	ldr	r3, [r1, #68]	@ 0x44
100114a8:	421a      	tst	r2, r3
100114aa:	d1fc      	bne.n	100114a6 <MXC_SYS_Reset_Periph+0x2a>
100114ac:	4770      	bx	lr
    } else {
        MXC_GCR->rst0 = (0x1 << reset);
100114ae:	2201      	movs	r2, #1
100114b0:	f04f 4180 	mov.w	r1, #1073741824	@ 0x40000000
100114b4:	4082      	lsls	r2, r0
100114b6:	604a      	str	r2, [r1, #4]
        while (MXC_GCR->rst0 & (0x1 << reset)) {}
100114b8:	684b      	ldr	r3, [r1, #4]
100114ba:	421a      	tst	r2, r3
100114bc:	d1fc      	bne.n	100114b8 <MXC_SYS_Reset_Periph+0x3c>
    }
}
100114be:	4770      	bx	lr
100114c0:	40080000 	.word	0x40080000

100114c4 <MXC_GPIO_Init>:
/* **** Globals **** */

/* **** Functions **** */
int MXC_GPIO_Init(uint32_t portmask)
{
    if (portmask & 0x1) {
100114c4:	07c1      	lsls	r1, r0, #31
{
100114c6:	b510      	push	{r4, lr}
100114c8:	4604      	mov	r4, r0
    if (portmask & 0x1) {
100114ca:	d408      	bmi.n	100114de <MXC_GPIO_Init+0x1a>
        MXC_SYS_ClockEnable(MXC_SYS_PERIPH_CLOCK_GPIO0);
    }

    if (portmask & 0x2) {
100114cc:	07a2      	lsls	r2, r4, #30
100114ce:	d40b      	bmi.n	100114e8 <MXC_GPIO_Init+0x24>
        MXC_SYS_ClockEnable(MXC_SYS_PERIPH_CLOCK_GPIO1);
    }

    if (portmask & 0x4) {
100114d0:	0763      	lsls	r3, r4, #29
100114d2:	d40e      	bmi.n	100114f2 <MXC_GPIO_Init+0x2e>
        MXC_SYS_ClockEnable(MXC_SYS_PERIPH_CLOCK_GPIO2);
    }

    return MXC_GPIO_Common_Init(portmask);
100114d4:	4620      	mov	r0, r4
}
100114d6:	e8bd 4010 	ldmia.w	sp!, {r4, lr}
    return MXC_GPIO_Common_Init(portmask);
100114da:	f000 bff1 	b.w	100124c0 <MXC_GPIO_Common_Init>
        MXC_SYS_ClockEnable(MXC_SYS_PERIPH_CLOCK_GPIO0);
100114de:	2000      	movs	r0, #0
100114e0:	f7ff ff30 	bl	10011344 <MXC_SYS_ClockEnable>
    if (portmask & 0x2) {
100114e4:	07a2      	lsls	r2, r4, #30
100114e6:	d5f3      	bpl.n	100114d0 <MXC_GPIO_Init+0xc>
        MXC_SYS_ClockEnable(MXC_SYS_PERIPH_CLOCK_GPIO1);
100114e8:	2001      	movs	r0, #1
100114ea:	f7ff ff2b 	bl	10011344 <MXC_SYS_ClockEnable>
    if (portmask & 0x4) {
100114ee:	0763      	lsls	r3, r4, #29
100114f0:	d5f0      	bpl.n	100114d4 <MXC_GPIO_Init+0x10>
        MXC_SYS_ClockEnable(MXC_SYS_PERIPH_CLOCK_GPIO2);
100114f2:	2040      	movs	r0, #64	@ 0x40
100114f4:	f7ff ff26 	bl	10011344 <MXC_SYS_ClockEnable>
    return MXC_GPIO_Common_Init(portmask);
100114f8:	4620      	mov	r0, r4
}
100114fa:	e8bd 4010 	ldmia.w	sp!, {r4, lr}
    return MXC_GPIO_Common_Init(portmask);
100114fe:	f000 bfdf 	b.w	100124c0 <MXC_GPIO_Common_Init>
10011502:	bf00      	nop

10011504 <MXC_GPIO_Config>:

    return E_NO_ERROR;
}

int MXC_GPIO_Config(const mxc_gpio_cfg_t *cfg)
{
10011504:	b570      	push	{r4, r5, r6, lr}
    int port, error;
    mxc_gpio_regs_t *gpio = cfg->port;

    port = MXC_GPIO_GET_IDX(cfg->port);
10011506:	4b7f      	ldr	r3, [pc, #508]	@ (10011704 <MXC_GPIO_Config+0x200>)
    mxc_gpio_regs_t *gpio = cfg->port;
10011508:	6805      	ldr	r5, [r0, #0]
    port = MXC_GPIO_GET_IDX(cfg->port);
1001150a:	429d      	cmp	r5, r3
{
1001150c:	4604      	mov	r4, r0
    port = MXC_GPIO_GET_IDX(cfg->port);
1001150e:	d037      	beq.n	10011580 <MXC_GPIO_Config+0x7c>
10011510:	f503 5380 	add.w	r3, r3, #4096	@ 0x1000
10011514:	429d      	cmp	r5, r3
10011516:	d020      	beq.n	1001155a <MXC_GPIO_Config+0x56>
10011518:	f503 23ee 	add.w	r3, r3, #487424	@ 0x77000
1001151c:	f503 6380 	add.w	r3, r3, #1024	@ 0x400
10011520:	429d      	cmp	r5, r3
10011522:	d07f      	beq.n	10011624 <MXC_GPIO_Config+0x120>
10011524:	4878      	ldr	r0, [pc, #480]	@ (10011708 <MXC_GPIO_Config+0x204>)
10011526:	1a28      	subs	r0, r5, r0
10011528:	fab0 f080 	clz	r0, r0
1001152c:	0940      	lsrs	r0, r0, #5
1001152e:	00c0      	lsls	r0, r0, #3

    MXC_GPIO_Init(1 << port);
10011530:	f7ff ffc8 	bl	100114c4 <MXC_GPIO_Init>

    if (cfg->port == MXC_GPIO3) {
10011534:	4b74      	ldr	r3, [pc, #464]	@ (10011708 <MXC_GPIO_Config+0x204>)
10011536:	6822      	ldr	r2, [r4, #0]
10011538:	429a      	cmp	r2, r3
1001153a:	d015      	beq.n	10011568 <MXC_GPIO_Config+0x64>
        default:
            return E_NOT_SUPPORTED;
        }
    } else {
        // Configure alternate function
        error = MXC_GPIO_RevA_SetAF((mxc_gpio_reva_regs_t *)gpio, cfg->func, cfg->mask);
1001153c:	6862      	ldr	r2, [r4, #4]
1001153e:	7a21      	ldrb	r1, [r4, #8]
10011540:	4628      	mov	r0, r5
10011542:	f000 f94b 	bl	100117dc <MXC_GPIO_RevA_SetAF>
        if (error != E_NO_ERROR) {
10011546:	b9d0      	cbnz	r0, 1001157e <MXC_GPIO_Config+0x7a>
            return error;
        }

        // Configure the pad
        switch (cfg->pad) {
10011548:	7a63      	ldrb	r3, [r4, #9]
1001154a:	2b04      	cmp	r3, #4
1001154c:	f200 80d7 	bhi.w	100116fe <MXC_GPIO_Config+0x1fa>
10011550:	e8df f003 	tbb	[pc, r3]
10011554:	2f3e4c5a 	.word	0x2f3e4c5a
10011558:	18          	.byte	0x18
10011559:	00          	.byte	0x00
1001155a:	2002      	movs	r0, #2
    MXC_GPIO_Init(1 << port);
1001155c:	f7ff ffb2 	bl	100114c4 <MXC_GPIO_Init>
    if (cfg->port == MXC_GPIO3) {
10011560:	4b69      	ldr	r3, [pc, #420]	@ (10011708 <MXC_GPIO_Config+0x204>)
10011562:	6822      	ldr	r2, [r4, #0]
10011564:	429a      	cmp	r2, r3
10011566:	d1e9      	bne.n	1001153c <MXC_GPIO_Config+0x38>
        switch (cfg->func) {
10011568:	7a23      	ldrb	r3, [r4, #8]
1001156a:	2b01      	cmp	r3, #1
1001156c:	f000 80bb 	beq.w	100116e6 <MXC_GPIO_Config+0x1e2>
10011570:	2b02      	cmp	r3, #2
10011572:	f000 80a5 	beq.w	100116c0 <MXC_GPIO_Config+0x1bc>
10011576:	2b00      	cmp	r3, #0
10011578:	d056      	beq.n	10011628 <MXC_GPIO_Config+0x124>
            return E_NOT_SUPPORTED;
1001157a:	f06f 0010 	mvn.w	r0, #16
        }
    }

    // Configure the vssel
    return MXC_GPIO_SetVSSEL(gpio, cfg->vssel, cfg->mask);
}
1001157e:	bd70      	pop	{r4, r5, r6, pc}
10011580:	2001      	movs	r0, #1
10011582:	e7d5      	b.n	10011530 <MXC_GPIO_Config+0x2c>
            gpio->padctrl0 &= ~cfg->mask;
10011584:	6e2b      	ldr	r3, [r5, #96]	@ 0x60
10011586:	6862      	ldr	r2, [r4, #4]
10011588:	ea23 0302 	bic.w	r3, r3, r2
1001158c:	662b      	str	r3, [r5, #96]	@ 0x60
            gpio->padctrl1 |= cfg->mask;
1001158e:	6e6b      	ldr	r3, [r5, #100]	@ 0x64
10011590:	4313      	orrs	r3, r2
10011592:	666b      	str	r3, [r5, #100]	@ 0x64
            gpio->ps &= ~cfg->mask;
10011594:	f8d5 30b8 	ldr.w	r3, [r5, #184]	@ 0xb8
10011598:	ea23 0302 	bic.w	r3, r3, r2
1001159c:	f8c5 30b8 	str.w	r3, [r5, #184]	@ 0xb8
}

/* ************************************************************************** */
int MXC_GPIO_SetVSSEL(mxc_gpio_regs_t *port, mxc_gpio_vssel_t vssel, uint32_t mask)
{
    if (port == MXC_GPIO3) {
100115a0:	4b59      	ldr	r3, [pc, #356]	@ (10011708 <MXC_GPIO_Config+0x204>)
    return MXC_GPIO_SetVSSEL(gpio, cfg->vssel, cfg->mask);
100115a2:	7aa1      	ldrb	r1, [r4, #10]
    if (port == MXC_GPIO3) {
100115a4:	429d      	cmp	r5, r3
100115a6:	d039      	beq.n	1001161c <MXC_GPIO_Config+0x118>
        }

        return E_NO_ERROR;
    }

    return MXC_GPIO_RevA_SetVSSEL((mxc_gpio_reva_regs_t *)port, vssel, mask);
100115a8:	4628      	mov	r0, r5
}
100115aa:	e8bd 4070 	ldmia.w	sp!, {r4, r5, r6, lr}
    return MXC_GPIO_RevA_SetVSSEL((mxc_gpio_reva_regs_t *)port, vssel, mask);
100115ae:	f000 b8ff 	b.w	100117b0 <MXC_GPIO_RevA_SetVSSEL>
            gpio->padctrl0 |= cfg->mask;
100115b2:	6e2b      	ldr	r3, [r5, #96]	@ 0x60
100115b4:	6862      	ldr	r2, [r4, #4]
100115b6:	4313      	orrs	r3, r2
100115b8:	662b      	str	r3, [r5, #96]	@ 0x60
            gpio->padctrl1 &= ~cfg->mask;
100115ba:	6e6b      	ldr	r3, [r5, #100]	@ 0x64
100115bc:	ea23 0302 	bic.w	r3, r3, r2
100115c0:	666b      	str	r3, [r5, #100]	@ 0x64
            gpio->ps &= ~cfg->mask;
100115c2:	f8d5 30b8 	ldr.w	r3, [r5, #184]	@ 0xb8
100115c6:	ea23 0302 	bic.w	r3, r3, r2
100115ca:	f8c5 30b8 	str.w	r3, [r5, #184]	@ 0xb8
            break;
100115ce:	e7e7      	b.n	100115a0 <MXC_GPIO_Config+0x9c>
            gpio->padctrl0 &= ~cfg->mask;
100115d0:	6e2b      	ldr	r3, [r5, #96]	@ 0x60
100115d2:	6862      	ldr	r2, [r4, #4]
100115d4:	ea23 0302 	bic.w	r3, r3, r2
100115d8:	662b      	str	r3, [r5, #96]	@ 0x60
            gpio->padctrl1 |= cfg->mask;
100115da:	6e6b      	ldr	r3, [r5, #100]	@ 0x64
100115dc:	4313      	orrs	r3, r2
100115de:	666b      	str	r3, [r5, #100]	@ 0x64
            gpio->ps |= cfg->mask;
100115e0:	f8d5 30b8 	ldr.w	r3, [r5, #184]	@ 0xb8
100115e4:	4313      	orrs	r3, r2
100115e6:	f8c5 30b8 	str.w	r3, [r5, #184]	@ 0xb8
            break;
100115ea:	e7d9      	b.n	100115a0 <MXC_GPIO_Config+0x9c>
            gpio->padctrl0 |= cfg->mask;
100115ec:	6e2b      	ldr	r3, [r5, #96]	@ 0x60
100115ee:	6862      	ldr	r2, [r4, #4]
100115f0:	4313      	orrs	r3, r2
100115f2:	662b      	str	r3, [r5, #96]	@ 0x60
            gpio->padctrl1 &= ~cfg->mask;
100115f4:	6e6b      	ldr	r3, [r5, #100]	@ 0x64
100115f6:	ea23 0302 	bic.w	r3, r3, r2
100115fa:	666b      	str	r3, [r5, #100]	@ 0x64
            gpio->ps |= cfg->mask;
100115fc:	f8d5 30b8 	ldr.w	r3, [r5, #184]	@ 0xb8
10011600:	4313      	orrs	r3, r2
10011602:	f8c5 30b8 	str.w	r3, [r5, #184]	@ 0xb8
            break;
10011606:	e7cb      	b.n	100115a0 <MXC_GPIO_Config+0x9c>
            gpio->padctrl0 &= ~cfg->mask;
10011608:	6e2b      	ldr	r3, [r5, #96]	@ 0x60
1001160a:	6862      	ldr	r2, [r4, #4]
1001160c:	ea23 0302 	bic.w	r3, r3, r2
10011610:	662b      	str	r3, [r5, #96]	@ 0x60
            gpio->padctrl1 &= ~cfg->mask;
10011612:	6e6b      	ldr	r3, [r5, #100]	@ 0x64
10011614:	ea23 0302 	bic.w	r3, r3, r2
10011618:	666b      	str	r3, [r5, #100]	@ 0x64
            break;
1001161a:	e7c1      	b.n	100115a0 <MXC_GPIO_Config+0x9c>
        if (vssel == MXC_GPIO_VSSEL_VDDIO) {
1001161c:	2900      	cmp	r1, #0
1001161e:	d0ac      	beq.n	1001157a <MXC_GPIO_Config+0x76>
        return E_NO_ERROR;
10011620:	2000      	movs	r0, #0
}
10011622:	bd70      	pop	{r4, r5, r6, pc}
10011624:	2004      	movs	r0, #4
10011626:	e783      	b.n	10011530 <MXC_GPIO_Config+0x2c>
            MXC_MCR->gpio3_ctrl &= ~(P30_OUT_EN(cfg->mask) | P31_OUT_EN(cfg->mask));
10011628:	6863      	ldr	r3, [r4, #4]
1001162a:	4938      	ldr	r1, [pc, #224]	@ (1001170c <MXC_GPIO_Config+0x208>)
1001162c:	0058      	lsls	r0, r3, #1
1001162e:	011a      	lsls	r2, r3, #4
10011630:	6a0e      	ldr	r6, [r1, #32]
10011632:	f000 0002 	and.w	r0, r0, #2
10011636:	f002 0220 	and.w	r2, r2, #32
1001163a:	4302      	orrs	r2, r0
1001163c:	ea26 0202 	bic.w	r2, r6, r2
            MXC_MCR->gpio3_ctrl |= P30_OUT_EN(cfg->mask) | P31_OUT_EN(cfg->mask);
10011640:	620a      	str	r2, [r1, #32]
            MXC_MCR->outen &= ~(SQWAVE_OUT_EN(cfg->mask) | PDOWN_OUT_EN(cfg->mask));
10011642:	688a      	ldr	r2, [r1, #8]
10011644:	f3c3 0340 	ubfx	r3, r3, #1, #1
10011648:	4303      	orrs	r3, r0
1001164a:	ea22 0303 	bic.w	r3, r2, r3
1001164e:	608b      	str	r3, [r1, #8]
        switch (cfg->pad) {
10011650:	7a63      	ldrb	r3, [r4, #9]
10011652:	2b04      	cmp	r3, #4
10011654:	d891      	bhi.n	1001157a <MXC_GPIO_Config+0x76>
10011656:	e8df f003 	tbb	[pc, r3]
1001165a:	1b26      	.short	0x1b26
1001165c:	1b03      	.short	0x1b03
1001165e:	03          	.byte	0x03
1001165f:	00          	.byte	0x00
            MXC_MCR->gpio3_ctrl &= ~(P30_DATA_OUT(cfg->mask) | P31_DATA_OUT(cfg->mask));
10011660:	6862      	ldr	r2, [r4, #4]
10011662:	492a      	ldr	r1, [pc, #168]	@ (1001170c <MXC_GPIO_Config+0x208>)
10011664:	00d3      	lsls	r3, r2, #3
10011666:	6a08      	ldr	r0, [r1, #32]
10011668:	f003 0310 	and.w	r3, r3, #16
1001166c:	f002 0601 	and.w	r6, r2, #1
10011670:	4333      	orrs	r3, r6
10011672:	ea20 0303 	bic.w	r3, r0, r3
10011676:	620b      	str	r3, [r1, #32]
            MXC_MCR->gpio3_ctrl &= ~(P30_PULL_DIS(cfg->mask) | P31_PULL_DIS(cfg->mask));
10011678:	0156      	lsls	r6, r2, #5
1001167a:	0093      	lsls	r3, r2, #2
1001167c:	6a08      	ldr	r0, [r1, #32]
1001167e:	f003 0304 	and.w	r3, r3, #4
10011682:	f006 0640 	and.w	r6, r6, #64	@ 0x40
10011686:	4333      	orrs	r3, r6
10011688:	ea20 0303 	bic.w	r3, r0, r3
1001168c:	620b      	str	r3, [r1, #32]
            break;
1001168e:	e787      	b.n	100115a0 <MXC_GPIO_Config+0x9c>
            MXC_MCR->gpio3_ctrl |= P30_DATA_OUT(cfg->mask) | P31_DATA_OUT(cfg->mask);
10011690:	491e      	ldr	r1, [pc, #120]	@ (1001170c <MXC_GPIO_Config+0x208>)
10011692:	6862      	ldr	r2, [r4, #4]
10011694:	6a0e      	ldr	r6, [r1, #32]
10011696:	00d3      	lsls	r3, r2, #3
10011698:	f002 0001 	and.w	r0, r2, #1
1001169c:	f003 0310 	and.w	r3, r3, #16
100116a0:	4330      	orrs	r0, r6
100116a2:	4303      	orrs	r3, r0
100116a4:	e7e7      	b.n	10011676 <MXC_GPIO_Config+0x172>
            MXC_MCR->gpio3_ctrl |= P30_PULL_DIS(cfg->mask) | P31_PULL_DIS(cfg->mask);
100116a6:	6862      	ldr	r2, [r4, #4]
100116a8:	4818      	ldr	r0, [pc, #96]	@ (1001170c <MXC_GPIO_Config+0x208>)
100116aa:	0093      	lsls	r3, r2, #2
100116ac:	0151      	lsls	r1, r2, #5
100116ae:	6a06      	ldr	r6, [r0, #32]
100116b0:	f003 0304 	and.w	r3, r3, #4
100116b4:	f001 0140 	and.w	r1, r1, #64	@ 0x40
100116b8:	430b      	orrs	r3, r1
100116ba:	4333      	orrs	r3, r6
100116bc:	6203      	str	r3, [r0, #32]
            break;
100116be:	e76f      	b.n	100115a0 <MXC_GPIO_Config+0x9c>
            MXC_MCR->gpio3_ctrl |= P30_OUT_EN(cfg->mask) | P31_OUT_EN(cfg->mask);
100116c0:	6863      	ldr	r3, [r4, #4]
100116c2:	4912      	ldr	r1, [pc, #72]	@ (1001170c <MXC_GPIO_Config+0x208>)
100116c4:	0058      	lsls	r0, r3, #1
100116c6:	011a      	lsls	r2, r3, #4
100116c8:	6a0e      	ldr	r6, [r1, #32]
100116ca:	f000 0002 	and.w	r0, r0, #2
100116ce:	f002 0220 	and.w	r2, r2, #32
100116d2:	4302      	orrs	r2, r0
100116d4:	4332      	orrs	r2, r6
100116d6:	620a      	str	r2, [r1, #32]
            MXC_MCR->outen |= SQWAVE_OUT_EN(cfg->mask) | PDOWN_OUT_EN(cfg->mask);
100116d8:	688a      	ldr	r2, [r1, #8]
100116da:	f3c3 0340 	ubfx	r3, r3, #1, #1
100116de:	4303      	orrs	r3, r0
100116e0:	4313      	orrs	r3, r2
100116e2:	608b      	str	r3, [r1, #8]
            break;
100116e4:	e7b4      	b.n	10011650 <MXC_GPIO_Config+0x14c>
            MXC_MCR->gpio3_ctrl |= P30_OUT_EN(cfg->mask) | P31_OUT_EN(cfg->mask);
100116e6:	6863      	ldr	r3, [r4, #4]
100116e8:	4908      	ldr	r1, [pc, #32]	@ (1001170c <MXC_GPIO_Config+0x208>)
100116ea:	0058      	lsls	r0, r3, #1
100116ec:	011a      	lsls	r2, r3, #4
100116ee:	6a0e      	ldr	r6, [r1, #32]
100116f0:	f000 0002 	and.w	r0, r0, #2
100116f4:	f002 0220 	and.w	r2, r2, #32
100116f8:	4302      	orrs	r2, r0
100116fa:	4332      	orrs	r2, r6
100116fc:	e7a0      	b.n	10011640 <MXC_GPIO_Config+0x13c>
        switch (cfg->pad) {
100116fe:	f06f 0002 	mvn.w	r0, #2
}
10011702:	bd70      	pop	{r4, r5, r6, pc}
10011704:	40008000 	.word	0x40008000
10011708:	40080600 	.word	0x40080600
1001170c:	40006c00 	.word	0x40006c00

10011710 <MXC_GPIO_OutSet>:
    if (port == MXC_GPIO3) {
10011710:	4a08      	ldr	r2, [pc, #32]	@ (10011734 <MXC_GPIO_OutSet+0x24>)
10011712:	4290      	cmp	r0, r2
10011714:	d001      	beq.n	1001171a <MXC_GPIO_OutSet+0xa>
    MXC_GPIO_RevA_OutSet((mxc_gpio_reva_regs_t *)port, mask);
10011716:	f000 b843 	b.w	100117a0 <MXC_GPIO_RevA_OutSet>
        MXC_MCR->gpio3_ctrl |= P30_DATA_OUT(mask) | P31_DATA_OUT(mask);
1001171a:	4807      	ldr	r0, [pc, #28]	@ (10011738 <MXC_GPIO_OutSet+0x28>)
{
1001171c:	b410      	push	{r4}
        MXC_MCR->gpio3_ctrl |= P30_DATA_OUT(mask) | P31_DATA_OUT(mask);
1001171e:	6a04      	ldr	r4, [r0, #32]
10011720:	00ca      	lsls	r2, r1, #3
10011722:	f001 0101 	and.w	r1, r1, #1
10011726:	4321      	orrs	r1, r4
10011728:	f002 0310 	and.w	r3, r2, #16
1001172c:	430b      	orrs	r3, r1
}
1001172e:	bc10      	pop	{r4}
        MXC_MCR->gpio3_ctrl |= P30_DATA_OUT(mask) | P31_DATA_OUT(mask);
10011730:	6203      	str	r3, [r0, #32]
}
10011732:	4770      	bx	lr
10011734:	40080600 	.word	0x40080600
10011738:	40006c00 	.word	0x40006c00

1001173c <MXC_GPIO_OutClr>:
    if (port == MXC_GPIO3) {
1001173c:	4a09      	ldr	r2, [pc, #36]	@ (10011764 <MXC_GPIO_OutClr+0x28>)
1001173e:	4290      	cmp	r0, r2
10011740:	d001      	beq.n	10011746 <MXC_GPIO_OutClr+0xa>
    MXC_GPIO_RevA_OutClr((mxc_gpio_reva_regs_t *)port, mask);
10011742:	f000 b82f 	b.w	100117a4 <MXC_GPIO_RevA_OutClr>
{
10011746:	b410      	push	{r4}
        MXC_MCR->gpio3_ctrl &= ~(P30_DATA_OUT(mask) | P31_DATA_OUT(mask));
10011748:	4c07      	ldr	r4, [pc, #28]	@ (10011768 <MXC_GPIO_OutClr+0x2c>)
1001174a:	00ca      	lsls	r2, r1, #3
1001174c:	6a20      	ldr	r0, [r4, #32]
1001174e:	f002 0210 	and.w	r2, r2, #16
10011752:	f001 0101 	and.w	r1, r1, #1
10011756:	ea42 0301 	orr.w	r3, r2, r1
1001175a:	ea20 0303 	bic.w	r3, r0, r3
1001175e:	6223      	str	r3, [r4, #32]
}
10011760:	bc10      	pop	{r4}
10011762:	4770      	bx	lr
10011764:	40080600 	.word	0x40080600
10011768:	40006c00 	.word	0x40006c00

1001176c <MXC_GPIO_Handler>:
    MXC_GPIO_Common_Handler(port);
1001176c:	f000 beba 	b.w	100124e4 <MXC_GPIO_Common_Handler>

10011770 <MXC_GPIO_ClearFlags>:
    if (port == MXC_GPIO3) {
10011770:	4a03      	ldr	r2, [pc, #12]	@ (10011780 <MXC_GPIO_ClearFlags+0x10>)
10011772:	4290      	cmp	r0, r2
10011774:	d001      	beq.n	1001177a <MXC_GPIO_ClearFlags+0xa>
    MXC_GPIO_RevA_ClearFlags((mxc_gpio_reva_regs_t *)port, flags);
10011776:	f000 b817 	b.w	100117a8 <MXC_GPIO_RevA_ClearFlags>
        MXC_PWRSEQ->lpwkst3 = flags;
1001177a:	4a02      	ldr	r2, [pc, #8]	@ (10011784 <MXC_GPIO_ClearFlags+0x14>)
1001177c:	61d1      	str	r1, [r2, #28]
}
1001177e:	4770      	bx	lr
10011780:	40080600 	.word	0x40080600
10011784:	40006800 	.word	0x40006800

10011788 <MXC_GPIO_GetFlags>:
    if (port == MXC_GPIO3) {
10011788:	4b03      	ldr	r3, [pc, #12]	@ (10011798 <MXC_GPIO_GetFlags+0x10>)
1001178a:	4298      	cmp	r0, r3
1001178c:	d001      	beq.n	10011792 <MXC_GPIO_GetFlags+0xa>
    return MXC_GPIO_RevA_GetFlags((mxc_gpio_reva_regs_t *)port);
1001178e:	f000 b80d 	b.w	100117ac <MXC_GPIO_RevA_GetFlags>
        return MXC_PWRSEQ->lpwkst3;
10011792:	4b02      	ldr	r3, [pc, #8]	@ (1001179c <MXC_GPIO_GetFlags+0x14>)
10011794:	69d8      	ldr	r0, [r3, #28]
}
10011796:	4770      	bx	lr
10011798:	40080600 	.word	0x40080600
1001179c:	40006800 	.word	0x40006800

100117a0 <MXC_GPIO_RevA_OutSet>:
    return (port->in & mask);
}

void MXC_GPIO_RevA_OutSet(mxc_gpio_reva_regs_t *port, uint32_t mask)
{
    port->out_set = mask;
100117a0:	61c1      	str	r1, [r0, #28]
}
100117a2:	4770      	bx	lr

100117a4 <MXC_GPIO_RevA_OutClr>:

void MXC_GPIO_RevA_OutClr(mxc_gpio_reva_regs_t *port, uint32_t mask)
{
    port->out_clr = mask;
100117a4:	6201      	str	r1, [r0, #32]
}
100117a6:	4770      	bx	lr

100117a8 <MXC_GPIO_RevA_ClearFlags>:
    port->inten_clr = mask;
}

void MXC_GPIO_RevA_ClearFlags(mxc_gpio_reva_regs_t *port, uint32_t flags)
{
    port->intfl_clr = flags;
100117a8:	6481      	str	r1, [r0, #72]	@ 0x48
}
100117aa:	4770      	bx	lr

100117ac <MXC_GPIO_RevA_GetFlags>:

uint32_t MXC_GPIO_RevA_GetFlags(mxc_gpio_reva_regs_t *port)
{
    return port->intfl;
100117ac:	6c00      	ldr	r0, [r0, #64]	@ 0x40
}
100117ae:	4770      	bx	lr

100117b0 <MXC_GPIO_RevA_SetVSSEL>:

int MXC_GPIO_RevA_SetVSSEL(mxc_gpio_reva_regs_t *port, mxc_gpio_vssel_t vssel, uint32_t mask)
{
    // Configure the vssel
    switch (vssel) {
100117b0:	b159      	cbz	r1, 100117ca <MXC_GPIO_RevA_SetVSSEL+0x1a>
100117b2:	2901      	cmp	r1, #1
100117b4:	d106      	bne.n	100117c4 <MXC_GPIO_RevA_SetVSSEL+0x14>
    case MXC_GPIO_VSSEL_VDDIO:
        port->vssel &= ~mask;
        break;

    case MXC_GPIO_VSSEL_VDDIOH:
        port->vssel |= mask;
100117b6:	f8d0 30c0 	ldr.w	r3, [r0, #192]	@ 0xc0
100117ba:	4313      	orrs	r3, r2
100117bc:	f8c0 30c0 	str.w	r3, [r0, #192]	@ 0xc0

    default:
        return E_BAD_PARAM;
    }

    return E_NO_ERROR;
100117c0:	2000      	movs	r0, #0
}
100117c2:	4770      	bx	lr
    switch (vssel) {
100117c4:	f06f 0002 	mvn.w	r0, #2
100117c8:	4770      	bx	lr
        port->vssel &= ~mask;
100117ca:	f8d0 30c0 	ldr.w	r3, [r0, #192]	@ 0xc0
100117ce:	ea23 0302 	bic.w	r3, r3, r2
100117d2:	f8c0 30c0 	str.w	r3, [r0, #192]	@ 0xc0
    return E_NO_ERROR;
100117d6:	2000      	movs	r0, #0
}
100117d8:	4770      	bx	lr
100117da:	bf00      	nop

100117dc <MXC_GPIO_RevA_SetAF>:

int MXC_GPIO_RevA_SetAF(mxc_gpio_reva_regs_t *port, mxc_gpio_func_t func, uint32_t mask)
{
    //This is required for new devices going forward.
    port->inen |= mask;
100117dc:	6b03      	ldr	r3, [r0, #48]	@ 0x30
100117de:	4313      	orrs	r3, r2
100117e0:	6303      	str	r3, [r0, #48]	@ 0x30

    //Switch to I/O mode first
    port->en0_set = mask;
100117e2:	6042      	str	r2, [r0, #4]

    switch (func) {
100117e4:	2905      	cmp	r1, #5
100117e6:	d82c      	bhi.n	10011842 <MXC_GPIO_RevA_SetAF+0x66>
100117e8:	e8df f001 	tbb	[pc, r1]
100117ec:	1f19120a 	.word	0x1f19120a
100117f0:	0325      	.short	0x0325
        port->en1_clr = mask;
        port->en0_clr = mask;
        break;

    case MXC_GPIO_FUNC_ALT4:
        port->en3_clr = mask;
100117f2:	f8c0 2088 	str.w	r2, [r0, #136]	@ 0x88
        port->en2_set = mask;
100117f6:	6782      	str	r2, [r0, #120]	@ 0x78
        port->en1_set = mask;
100117f8:	66c2      	str	r2, [r0, #108]	@ 0x6c
        port->en0_clr = mask;
100117fa:	6082      	str	r2, [r0, #8]
#endif
    default:
        return E_BAD_PARAM;
    }

    return E_NO_ERROR;
100117fc:	2000      	movs	r0, #0
100117fe:	4770      	bx	lr
        port->outen_clr = mask;
10011800:	6142      	str	r2, [r0, #20]
        port->en0_set = mask;
10011802:	6042      	str	r2, [r0, #4]
        port->en1_clr = mask;
10011804:	6702      	str	r2, [r0, #112]	@ 0x70
        port->en2_clr = mask;
10011806:	67c2      	str	r2, [r0, #124]	@ 0x7c
        port->en3_clr = mask;
10011808:	f8c0 2088 	str.w	r2, [r0, #136]	@ 0x88
    return E_NO_ERROR;
1001180c:	2000      	movs	r0, #0
1001180e:	4770      	bx	lr
        port->outen_set = mask;
10011810:	6102      	str	r2, [r0, #16]
        port->en0_set = mask;
10011812:	6042      	str	r2, [r0, #4]
        port->en1_clr = mask;
10011814:	6702      	str	r2, [r0, #112]	@ 0x70
        port->en2_clr = mask;
10011816:	67c2      	str	r2, [r0, #124]	@ 0x7c
        port->en3_clr = mask;
10011818:	f8c0 2088 	str.w	r2, [r0, #136]	@ 0x88
        break;
1001181c:	e7ee      	b.n	100117fc <MXC_GPIO_RevA_SetAF+0x20>
        port->en3_clr = mask;
1001181e:	f8c0 2088 	str.w	r2, [r0, #136]	@ 0x88
        port->en2_clr = mask;
10011822:	67c2      	str	r2, [r0, #124]	@ 0x7c
        port->en1_clr = mask;
10011824:	6702      	str	r2, [r0, #112]	@ 0x70
        port->en0_clr = mask;
10011826:	6082      	str	r2, [r0, #8]
        break;
10011828:	e7e8      	b.n	100117fc <MXC_GPIO_RevA_SetAF+0x20>
        port->en3_clr = mask;
1001182a:	f8c0 2088 	str.w	r2, [r0, #136]	@ 0x88
        port->en2_clr = mask;
1001182e:	67c2      	str	r2, [r0, #124]	@ 0x7c
        port->en1_set = mask;
10011830:	66c2      	str	r2, [r0, #108]	@ 0x6c
        port->en0_clr = mask;
10011832:	6082      	str	r2, [r0, #8]
        break;
10011834:	e7e2      	b.n	100117fc <MXC_GPIO_RevA_SetAF+0x20>
        port->en3_clr = mask;
10011836:	f8c0 2088 	str.w	r2, [r0, #136]	@ 0x88
        port->en2_set = mask;
1001183a:	6782      	str	r2, [r0, #120]	@ 0x78
        port->en1_clr = mask;
1001183c:	6702      	str	r2, [r0, #112]	@ 0x70
        port->en0_clr = mask;
1001183e:	6082      	str	r2, [r0, #8]
        break;
10011840:	e7dc      	b.n	100117fc <MXC_GPIO_RevA_SetAF+0x20>
    switch (func) {
10011842:	f06f 0002 	mvn.w	r0, #2
}
10011846:	4770      	bx	lr

10011848 <MXC_I2C_SetSlaveAddr>:
    return MXC_I2C_RevA_Init((mxc_i2c_reva_regs_t *)i2c, masterMode, slaveAddr);
}

int MXC_I2C_SetSlaveAddr(mxc_i2c_regs_t *i2c, unsigned int slaveAddr, int idx)
{
    return MXC_I2C_RevA_SetSlaveAddr((mxc_i2c_reva_regs_t *)i2c, slaveAddr, idx);
10011848:	f000 b8f6 	b.w	10011a38 <MXC_I2C_RevA_SetSlaveAddr>

1001184c <MXC_I2C_Shutdown>:
}

int MXC_I2C_Shutdown(mxc_i2c_regs_t *i2c)
{
1001184c:	b508      	push	{r3, lr}
    // Configure GPIO for I2C
    if (i2c == MXC_I2C0) {
1001184e:	4b11      	ldr	r3, [pc, #68]	@ (10011894 <MXC_I2C_Shutdown+0x48>)
10011850:	4298      	cmp	r0, r3
10011852:	d00d      	beq.n	10011870 <MXC_I2C_Shutdown+0x24>
        MXC_SYS_ClockDisable(MXC_SYS_PERIPH_CLOCK_I2C0);
        MXC_SYS_Reset_Periph(MXC_SYS_RESET0_I2C0);
    } else if (i2c == MXC_I2C1) {
10011854:	4b10      	ldr	r3, [pc, #64]	@ (10011898 <MXC_I2C_Shutdown+0x4c>)
10011856:	4298      	cmp	r0, r3
10011858:	d011      	beq.n	1001187e <MXC_I2C_Shutdown+0x32>
        MXC_SYS_ClockDisable(MXC_SYS_PERIPH_CLOCK_I2C1);
        MXC_SYS_Reset_Periph(MXC_SYS_RESET1_I2C1);
    } else if (i2c == MXC_I2C2) {
1001185a:	4b10      	ldr	r3, [pc, #64]	@ (1001189c <MXC_I2C_Shutdown+0x50>)
1001185c:	4298      	cmp	r0, r3
1001185e:	d115      	bne.n	1001188c <MXC_I2C_Shutdown+0x40>
        MXC_SYS_ClockDisable(MXC_SYS_PERIPH_CLOCK_I2C2);
10011860:	2038      	movs	r0, #56	@ 0x38
10011862:	f7ff fd4f 	bl	10011304 <MXC_SYS_ClockDisable>
        MXC_SYS_Reset_Periph(MXC_SYS_RESET1_I2C2);
10011866:	2034      	movs	r0, #52	@ 0x34
10011868:	f7ff fe08 	bl	1001147c <MXC_SYS_Reset_Periph>
    } else {
        return E_NO_DEVICE;
    }

    return E_NO_ERROR;
1001186c:	2000      	movs	r0, #0
}
1001186e:	bd08      	pop	{r3, pc}
        MXC_SYS_ClockDisable(MXC_SYS_PERIPH_CLOCK_I2C0);
10011870:	200d      	movs	r0, #13
10011872:	f7ff fd47 	bl	10011304 <MXC_SYS_ClockDisable>
        MXC_SYS_Reset_Periph(MXC_SYS_RESET0_I2C0);
10011876:	2010      	movs	r0, #16
10011878:	f7ff fe00 	bl	1001147c <MXC_SYS_Reset_Periph>
1001187c:	e7f6      	b.n	1001186c <MXC_I2C_Shutdown+0x20>
        MXC_SYS_ClockDisable(MXC_SYS_PERIPH_CLOCK_I2C1);
1001187e:	201c      	movs	r0, #28
10011880:	f7ff fd40 	bl	10011304 <MXC_SYS_ClockDisable>
        MXC_SYS_Reset_Periph(MXC_SYS_RESET1_I2C1);
10011884:	2020      	movs	r0, #32
10011886:	f7ff fdf9 	bl	1001147c <MXC_SYS_Reset_Periph>
1001188a:	e7ef      	b.n	1001186c <MXC_I2C_Shutdown+0x20>
        return E_NO_DEVICE;
1001188c:	f06f 0001 	mvn.w	r0, #1
}
10011890:	bd08      	pop	{r3, pc}
10011892:	bf00      	nop
10011894:	4001d000 	.word	0x4001d000
10011898:	4001e000 	.word	0x4001e000
1001189c:	4001f000 	.word	0x4001f000

100118a0 <MXC_I2C_Init>:
    if (i2c == NULL) {
100118a0:	b3c0      	cbz	r0, 10011914 <MXC_I2C_Init+0x74>
{
100118a2:	b570      	push	{r4, r5, r6, lr}
100118a4:	4604      	mov	r4, r0
    MXC_I2C_Shutdown(i2c); // Clear everything out
100118a6:	460d      	mov	r5, r1
100118a8:	4616      	mov	r6, r2
100118aa:	f7ff ffcf 	bl	1001184c <MXC_I2C_Shutdown>
    if (i2c == MXC_I2C0) {
100118ae:	4b1b      	ldr	r3, [pc, #108]	@ (1001191c <MXC_I2C_Init+0x7c>)
100118b0:	429c      	cmp	r4, r3
100118b2:	d012      	beq.n	100118da <MXC_I2C_Init+0x3a>
    } else if (i2c == MXC_I2C1) {
100118b4:	4b1a      	ldr	r3, [pc, #104]	@ (10011920 <MXC_I2C_Init+0x80>)
100118b6:	429c      	cmp	r4, r3
100118b8:	d01c      	beq.n	100118f4 <MXC_I2C_Init+0x54>
    } else if (i2c == MXC_I2C2) {
100118ba:	4b1a      	ldr	r3, [pc, #104]	@ (10011924 <MXC_I2C_Init+0x84>)
100118bc:	429c      	cmp	r4, r3
100118be:	d126      	bne.n	1001190e <MXC_I2C_Init+0x6e>
        MXC_SYS_ClockEnable(MXC_SYS_PERIPH_CLOCK_I2C2);
100118c0:	2038      	movs	r0, #56	@ 0x38
100118c2:	f7ff fd3f 	bl	10011344 <MXC_SYS_ClockEnable>
        MXC_GPIO_Config(&gpio_cfg_i2c2);
100118c6:	4818      	ldr	r0, [pc, #96]	@ (10011928 <MXC_I2C_Init+0x88>)
100118c8:	f7ff fe1c 	bl	10011504 <MXC_GPIO_Config>
    return MXC_I2C_RevA_Init((mxc_i2c_reva_regs_t *)i2c, masterMode, slaveAddr);
100118cc:	4632      	mov	r2, r6
100118ce:	4629      	mov	r1, r5
100118d0:	4620      	mov	r0, r4
}
100118d2:	e8bd 4070 	ldmia.w	sp!, {r4, r5, r6, lr}
    return MXC_I2C_RevA_Init((mxc_i2c_reva_regs_t *)i2c, masterMode, slaveAddr);
100118d6:	f000 b849 	b.w	1001196c <MXC_I2C_RevA_Init>
        MXC_SYS_ClockEnable(MXC_SYS_PERIPH_CLOCK_I2C0);
100118da:	200d      	movs	r0, #13
100118dc:	f7ff fd32 	bl	10011344 <MXC_SYS_ClockEnable>
        MXC_GPIO_Config(&gpio_cfg_i2c0);
100118e0:	4812      	ldr	r0, [pc, #72]	@ (1001192c <MXC_I2C_Init+0x8c>)
100118e2:	f7ff fe0f 	bl	10011504 <MXC_GPIO_Config>
    return MXC_I2C_RevA_Init((mxc_i2c_reva_regs_t *)i2c, masterMode, slaveAddr);
100118e6:	4632      	mov	r2, r6
100118e8:	4629      	mov	r1, r5
100118ea:	4620      	mov	r0, r4
}
100118ec:	e8bd 4070 	ldmia.w	sp!, {r4, r5, r6, lr}
    return MXC_I2C_RevA_Init((mxc_i2c_reva_regs_t *)i2c, masterMode, slaveAddr);
100118f0:	f000 b83c 	b.w	1001196c <MXC_I2C_RevA_Init>
        MXC_SYS_ClockEnable(MXC_SYS_PERIPH_CLOCK_I2C1);
100118f4:	201c      	movs	r0, #28
100118f6:	f7ff fd25 	bl	10011344 <MXC_SYS_ClockEnable>
        MXC_GPIO_Config(&gpio_cfg_i2c1);
100118fa:	480d      	ldr	r0, [pc, #52]	@ (10011930 <MXC_I2C_Init+0x90>)
100118fc:	f7ff fe02 	bl	10011504 <MXC_GPIO_Config>
    return MXC_I2C_RevA_Init((mxc_i2c_reva_regs_t *)i2c, masterMode, slaveAddr);
10011900:	4632      	mov	r2, r6
10011902:	4629      	mov	r1, r5
10011904:	4620      	mov	r0, r4
}
10011906:	e8bd 4070 	ldmia.w	sp!, {r4, r5, r6, lr}
    return MXC_I2C_RevA_Init((mxc_i2c_reva_regs_t *)i2c, masterMode, slaveAddr);
1001190a:	f000 b82f 	b.w	1001196c <MXC_I2C_RevA_Init>
        return E_NO_DEVICE;
1001190e:	f06f 0001 	mvn.w	r0, #1
}
10011912:	bd70      	pop	{r4, r5, r6, pc}
        return E_NULL_PTR;
10011914:	f04f 30ff 	mov.w	r0, #4294967295	@ 0xffffffff
}
10011918:	4770      	bx	lr
1001191a:	bf00      	nop
1001191c:	4001d000 	.word	0x4001d000
10011920:	4001e000 	.word	0x4001e000
10011924:	4001f000 	.word	0x4001f000
10011928:	1001d870 	.word	0x1001d870
1001192c:	1001d888 	.word	0x1001d888
10011930:	1001d87c 	.word	0x1001d87c

10011934 <MXC_I2C_SetFrequency>:
    return E_NO_ERROR;
}

int MXC_I2C_SetFrequency(mxc_i2c_regs_t *i2c, unsigned int hz)
{
    return MXC_I2C_RevA_SetFrequency((mxc_i2c_reva_regs_t *)i2c, hz);
10011934:	f000 b89a 	b.w	10011a6c <MXC_I2C_RevA_SetFrequency>

10011938 <MXC_I2C_GetFrequency>:
}

int MXC_I2C_GetFrequency(mxc_i2c_regs_t *i2c)
{
    return MXC_I2C_RevA_GetFrequency((mxc_i2c_reva_regs_t *)i2c);
10011938:	f000 b8e8 	b.w	10011b0c <MXC_I2C_RevA_GetFrequency>

1001193c <MXC_I2C_ReadRXFIFO>:
    return MXC_I2C_RevA_Read((mxc_i2c_reva_regs_t *)i2c, bytes, len, ack);
}

int MXC_I2C_ReadRXFIFO(mxc_i2c_regs_t *i2c, volatile unsigned char *bytes, unsigned int len)
{
    return MXC_I2C_RevA_ReadRXFIFO((mxc_i2c_reva_regs_t *)i2c, bytes, len);
1001193c:	f000 b8f6 	b.w	10011b2c <MXC_I2C_RevA_ReadRXFIFO>

10011940 <MXC_I2C_GetRXFIFOAvailable>:
                                      (mxc_i2c_reva_dma_complete_cb_t)callback, config, MXC_DMA);
}

int MXC_I2C_GetRXFIFOAvailable(mxc_i2c_regs_t *i2c)
{
    return MXC_I2C_RevA_GetRXFIFOAvailable((mxc_i2c_reva_regs_t *)i2c);
10011940:	f000 b912 	b.w	10011b68 <MXC_I2C_RevA_GetRXFIFOAvailable>

10011944 <MXC_I2C_WriteTXFIFO>:
}

int MXC_I2C_WriteTXFIFO(mxc_i2c_regs_t *i2c, volatile unsigned char *bytes, unsigned int len)
{
    return MXC_I2C_RevA_WriteTXFIFO((mxc_i2c_reva_regs_t *)i2c, bytes, len);
10011944:	f000 b918 	b.w	10011b78 <MXC_I2C_RevA_WriteTXFIFO>

10011948 <MXC_I2C_GetTXFIFOAvailable>:
                                       (mxc_i2c_reva_dma_complete_cb_t)callback, config, MXC_DMA);
}

int MXC_I2C_GetTXFIFOAvailable(mxc_i2c_regs_t *i2c)
{
    return MXC_I2C_RevA_GetTXFIFOAvailable((mxc_i2c_reva_regs_t *)i2c);
10011948:	f000 b92e 	b.w	10011ba8 <MXC_I2C_RevA_GetTXFIFOAvailable>

1001194c <MXC_I2C_ClearRXFIFO>:
}

void MXC_I2C_ClearRXFIFO(mxc_i2c_regs_t *i2c)
{
    MXC_I2C_RevA_ClearRXFIFO((mxc_i2c_reva_regs_t *)i2c);
1001194c:	f000 b938 	b.w	10011bc0 <MXC_I2C_RevA_ClearRXFIFO>

10011950 <MXC_I2C_ClearTXFIFO>:
}

void MXC_I2C_ClearTXFIFO(mxc_i2c_regs_t *i2c)
{
    MXC_I2C_RevA_ClearTXFIFO((mxc_i2c_reva_regs_t *)i2c);
10011950:	f000 b93e 	b.w	10011bd0 <MXC_I2C_RevA_ClearTXFIFO>

10011954 <MXC_I2C_ClearFlags>:
    return MXC_I2C_RevA_GetFlags((mxc_i2c_reva_regs_t *)i2c, flags0, flags1);
}

void MXC_I2C_ClearFlags(mxc_i2c_regs_t *i2c, unsigned int flags0, unsigned int flags1)
{
    MXC_I2C_RevA_ClearFlags((mxc_i2c_reva_regs_t *)i2c, flags0, flags1);
10011954:	f000 b944 	b.w	10011be0 <MXC_I2C_RevA_ClearFlags>

10011958 <MXC_I2C_EnableInt>:
}

void MXC_I2C_EnableInt(mxc_i2c_regs_t *i2c, unsigned int flags0, unsigned int flags1)
{
    MXC_I2C_RevA_EnableInt((mxc_i2c_reva_regs_t *)i2c, flags0, flags1);
10011958:	f000 b946 	b.w	10011be8 <MXC_I2C_RevA_EnableInt>

1001195c <MXC_I2C_DisableInt>:
}

void MXC_I2C_DisableInt(mxc_i2c_regs_t *i2c, unsigned int flags0, unsigned int flags1)
{
    MXC_I2C_RevA_DisableInt((mxc_i2c_reva_regs_t *)i2c, flags0, flags1);
1001195c:	f000 b94c 	b.w	10011bf8 <MXC_I2C_RevA_DisableInt>

10011960 <MXC_I2C_Recover>:
    return MXC_I2C_RevA_GetTimeout((mxc_i2c_reva_regs_t *)i2c);
}

int MXC_I2C_Recover(mxc_i2c_regs_t *i2c, unsigned int retries)
{
    return MXC_I2C_RevA_Recover((mxc_i2c_reva_regs_t *)i2c, retries);
10011960:	f000 b954 	b.w	10011c0c <MXC_I2C_RevA_Recover>

10011964 <MXC_I2C_SetRXThreshold>:
        (mxc_i2c_reva_regs_t *)i2c, (mxc_i2c_reva_slave_handler_t)callback, interruptCheck);
}

int MXC_I2C_SetRXThreshold(mxc_i2c_regs_t *i2c, unsigned int numBytes)
{
    return MXC_I2C_RevA_SetRXThreshold((mxc_i2c_reva_regs_t *)i2c, numBytes);
10011964:	f000 b9be 	b.w	10011ce4 <MXC_I2C_RevA_SetRXThreshold>

10011968 <MXC_I2C_SetTXThreshold>:
    return MXC_I2C_RevA_GetRXThreshold((mxc_i2c_reva_regs_t *)i2c);
}

int MXC_I2C_SetTXThreshold(mxc_i2c_regs_t *i2c, unsigned int numBytes)
{
    return MXC_I2C_RevA_SetTXThreshold((mxc_i2c_reva_regs_t *)i2c, numBytes);
10011968:	f000 b9cc 	b.w	10011d04 <MXC_I2C_RevA_SetTXThreshold>

1001196c <MXC_I2C_RevA_Init>:

/* ************************************************************************* */
/* Control/Configuration functions                                           */
/* ************************************************************************* */
int MXC_I2C_RevA_Init(mxc_i2c_reva_regs_t *i2c, int masterMode, unsigned int slaveAddr)
{
1001196c:	b5f8      	push	{r3, r4, r5, r6, r7, lr}
    int err;

    if (i2c == NULL) {
1001196e:	2800      	cmp	r0, #0
10011970:	d057      	beq.n	10011a22 <MXC_I2C_RevA_Init+0xb6>
        return E_NULL_PTR;
    }

    if ((err = MXC_I2C_Recover((mxc_i2c_regs_t *)i2c, 16)) != E_NO_ERROR) {
10011972:	460f      	mov	r7, r1
10011974:	2110      	movs	r1, #16
10011976:	4615      	mov	r5, r2
10011978:	4604      	mov	r4, r0
1001197a:	f7ff fff1 	bl	10011960 <MXC_I2C_Recover>
1001197e:	4606      	mov	r6, r0
10011980:	b108      	cbz	r0, 10011986 <MXC_I2C_RevA_Init+0x1a>
        i2c->ctrl |= MXC_F_I2C_REVA_CTRL_MST_MODE;
        states[MXC_I2C_GET_IDX((mxc_i2c_regs_t *)i2c)].master = 1;
    }

    return E_NO_ERROR;
}
10011982:	4630      	mov	r0, r6
10011984:	bdf8      	pop	{r3, r4, r5, r6, r7, pc}
    i2c->ctrl |= MXC_F_I2C_REVA_CTRL_EN;
10011986:	6823      	ldr	r3, [r4, #0]
10011988:	f043 0301 	orr.w	r3, r3, #1
1001198c:	6023      	str	r3, [r4, #0]
    MXC_I2C_ClearRXFIFO((mxc_i2c_regs_t *)i2c);
1001198e:	4620      	mov	r0, r4
10011990:	f7ff ffdc 	bl	1001194c <MXC_I2C_ClearRXFIFO>
    MXC_I2C_ClearTXFIFO((mxc_i2c_regs_t *)i2c);
10011994:	4620      	mov	r0, r4
10011996:	f7ff ffdb 	bl	10011950 <MXC_I2C_ClearTXFIFO>
    MXC_I2C_SetTXThreshold((mxc_i2c_regs_t *)i2c, 2); // set TX threshold to 2 bytes
1001199a:	2102      	movs	r1, #2
1001199c:	4620      	mov	r0, r4
1001199e:	f7ff ffe3 	bl	10011968 <MXC_I2C_SetTXThreshold>
    MXC_I2C_SetRXThreshold((mxc_i2c_regs_t *)i2c, 6); // set RX threshold to 6 bytes
100119a2:	2106      	movs	r1, #6
100119a4:	4620      	mov	r0, r4
100119a6:	f7ff ffdd 	bl	10011964 <MXC_I2C_SetRXThreshold>
    if (!masterMode) {
100119aa:	b1df      	cbz	r7, 100119e4 <MXC_I2C_RevA_Init+0x78>
        i2c->ctrl |= MXC_F_I2C_REVA_CTRL_MST_MODE;
100119ac:	6823      	ldr	r3, [r4, #0]
        states[MXC_I2C_GET_IDX((mxc_i2c_regs_t *)i2c)].master = 1;
100119ae:	4a1e      	ldr	r2, [pc, #120]	@ (10011a28 <MXC_I2C_RevA_Init+0xbc>)
        i2c->ctrl |= MXC_F_I2C_REVA_CTRL_MST_MODE;
100119b0:	f043 0302 	orr.w	r3, r3, #2
        states[MXC_I2C_GET_IDX((mxc_i2c_regs_t *)i2c)].master = 1;
100119b4:	4294      	cmp	r4, r2
        i2c->ctrl |= MXC_F_I2C_REVA_CTRL_MST_MODE;
100119b6:	6023      	str	r3, [r4, #0]
        states[MXC_I2C_GET_IDX((mxc_i2c_regs_t *)i2c)].master = 1;
100119b8:	d02f      	beq.n	10011a1a <MXC_I2C_RevA_Init+0xae>
100119ba:	4b1c      	ldr	r3, [pc, #112]	@ (10011a2c <MXC_I2C_RevA_Init+0xc0>)
100119bc:	429c      	cmp	r4, r3
100119be:	d00f      	beq.n	100119e0 <MXC_I2C_RevA_Init+0x74>
100119c0:	f503 5380 	add.w	r3, r3, #4096	@ 0x1000
100119c4:	429c      	cmp	r4, r3
100119c6:	bf14      	ite	ne
100119c8:	f04f 34ff 	movne.w	r4, #4294967295	@ 0xffffffff
100119cc:	2402      	moveq	r4, #2
100119ce:	4b18      	ldr	r3, [pc, #96]	@ (10011a30 <MXC_I2C_RevA_Init+0xc4>)
100119d0:	eb04 0444 	add.w	r4, r4, r4, lsl #1
100119d4:	eb03 03c4 	add.w	r3, r3, r4, lsl #3
100119d8:	2201      	movs	r2, #1
100119da:	605a      	str	r2, [r3, #4]
}
100119dc:	4630      	mov	r0, r6
100119de:	bdf8      	pop	{r3, r4, r5, r6, r7, pc}
        states[MXC_I2C_GET_IDX((mxc_i2c_regs_t *)i2c)].master = 1;
100119e0:	2401      	movs	r4, #1
100119e2:	e7f4      	b.n	100119ce <MXC_I2C_RevA_Init+0x62>
        MXC_I2C_SetSlaveAddr((mxc_i2c_regs_t *)i2c, slaveAddr, 0);
100119e4:	463a      	mov	r2, r7
100119e6:	4629      	mov	r1, r5
100119e8:	4620      	mov	r0, r4
100119ea:	f7ff ff2d 	bl	10011848 <MXC_I2C_SetSlaveAddr>
        states[MXC_I2C_GET_IDX((mxc_i2c_regs_t *)i2c)].master = 0;
100119ee:	4b0e      	ldr	r3, [pc, #56]	@ (10011a28 <MXC_I2C_RevA_Init+0xbc>)
100119f0:	429c      	cmp	r4, r3
100119f2:	d009      	beq.n	10011a08 <MXC_I2C_RevA_Init+0x9c>
100119f4:	f503 5380 	add.w	r3, r3, #4096	@ 0x1000
100119f8:	429c      	cmp	r4, r3
100119fa:	d010      	beq.n	10011a1e <MXC_I2C_RevA_Init+0xb2>
100119fc:	4f0d      	ldr	r7, [pc, #52]	@ (10011a34 <MXC_I2C_RevA_Init+0xc8>)
100119fe:	42bc      	cmp	r4, r7
10011a00:	bf14      	ite	ne
10011a02:	f04f 37ff 	movne.w	r7, #4294967295	@ 0xffffffff
10011a06:	2702      	moveq	r7, #2
10011a08:	4b09      	ldr	r3, [pc, #36]	@ (10011a30 <MXC_I2C_RevA_Init+0xc4>)
10011a0a:	eb07 0147 	add.w	r1, r7, r7, lsl #1
10011a0e:	eb03 03c1 	add.w	r3, r3, r1, lsl #3
10011a12:	2200      	movs	r2, #0
10011a14:	605a      	str	r2, [r3, #4]
}
10011a16:	4630      	mov	r0, r6
10011a18:	bdf8      	pop	{r3, r4, r5, r6, r7, pc}
        states[MXC_I2C_GET_IDX((mxc_i2c_regs_t *)i2c)].master = 1;
10011a1a:	4634      	mov	r4, r6
10011a1c:	e7d7      	b.n	100119ce <MXC_I2C_RevA_Init+0x62>
        states[MXC_I2C_GET_IDX((mxc_i2c_regs_t *)i2c)].master = 0;
10011a1e:	2701      	movs	r7, #1
10011a20:	e7f2      	b.n	10011a08 <MXC_I2C_RevA_Init+0x9c>
        return E_NULL_PTR;
10011a22:	f04f 36ff 	mov.w	r6, #4294967295	@ 0xffffffff
10011a26:	e7ac      	b.n	10011982 <MXC_I2C_RevA_Init+0x16>
10011a28:	4001d000 	.word	0x4001d000
10011a2c:	4001e000 	.word	0x4001e000
10011a30:	200011e0 	.word	0x200011e0
10011a34:	4001f000 	.word	0x4001f000

10011a38 <MXC_I2C_RevA_SetSlaveAddr>:

int MXC_I2C_RevA_SetSlaveAddr(mxc_i2c_reva_regs_t *i2c, unsigned int slaveAddr, int idx)
{
    if (i2c == NULL) {
10011a38:	4603      	mov	r3, r0
10011a3a:	b1a0      	cbz	r0, 10011a66 <MXC_I2C_RevA_SetSlaveAddr+0x2e>
        return E_NULL_PTR;
    }

    if (idx != 0) {
10011a3c:	b96a      	cbnz	r2, 10011a5a <MXC_I2C_RevA_SetSlaveAddr+0x22>
        // Multiple slaves are not supported yet
        return E_NOT_SUPPORTED;
    }

    if (slaveAddr > MXC_F_I2C_REVA_SLAVE_ADDR) {
10011a3e:	f5b1 6f80 	cmp.w	r1, #1024	@ 0x400
10011a42:	d20d      	bcs.n	10011a60 <MXC_I2C_RevA_SetSlaveAddr+0x28>
        return E_BAD_PARAM;
    }

    i2c->slave = 0;

    if (slaveAddr > MXC_I2C_REVA_MAX_ADDR_WIDTH) {
10011a44:	297f      	cmp	r1, #127	@ 0x7f
    i2c->slave = 0;
10011a46:	64c2      	str	r2, [r0, #76]	@ 0x4c
        // Set for 10bit addressing mode
        i2c->slave = MXC_F_I2C_REVA_SLAVE_EXT_ADDR_EN;
10011a48:	bf84      	itt	hi
10011a4a:	f44f 4200 	movhi.w	r2, #32768	@ 0x8000
10011a4e:	64c2      	strhi	r2, [r0, #76]	@ 0x4c
    }

    i2c->slave |= slaveAddr;
10011a50:	6cc2      	ldr	r2, [r0, #76]	@ 0x4c
10011a52:	430a      	orrs	r2, r1

    return E_NO_ERROR;
10011a54:	2000      	movs	r0, #0
    i2c->slave |= slaveAddr;
10011a56:	64da      	str	r2, [r3, #76]	@ 0x4c
    return E_NO_ERROR;
10011a58:	4770      	bx	lr
        return E_NOT_SUPPORTED;
10011a5a:	f06f 0010 	mvn.w	r0, #16
10011a5e:	4770      	bx	lr
        return E_BAD_PARAM;
10011a60:	f06f 0002 	mvn.w	r0, #2
}
10011a64:	4770      	bx	lr
        return E_NULL_PTR;
10011a66:	f04f 30ff 	mov.w	r0, #4294967295	@ 0xffffffff
10011a6a:	4770      	bx	lr

10011a6c <MXC_I2C_RevA_SetFrequency>:

int MXC_I2C_RevA_SetFrequency(mxc_i2c_reva_regs_t *i2c, unsigned int hz)
{
    unsigned int ticksTotal, hiClks, lowClks;

    if (i2c == NULL) {
10011a6c:	2800      	cmp	r0, #0
10011a6e:	d03f      	beq.n	10011af0 <MXC_I2C_RevA_SetFrequency+0x84>
{
10011a70:	b410      	push	{r4}
        return E_NULL_PTR;
    }

    if (hz > MXC_I2C_REVA_FASTPLUS_SPEED && hz <= MXC_I2C_REVA_HIGH_SPEED) {
10011a72:	4a21      	ldr	r2, [pc, #132]	@ (10011af8 <MXC_I2C_RevA_SetFrequency+0x8c>)
10011a74:	f5a1 2374 	sub.w	r3, r1, #999424	@ 0xf4000
10011a78:	f46f 7410 	mvn.w	r4, #576	@ 0x240
10011a7c:	4423      	add	r3, r4
10011a7e:	4293      	cmp	r3, r2
10011a80:	d313      	bcc.n	10011aaa <MXC_I2C_RevA_SetFrequency+0x3e>

        i2c->ctrl |= MXC_F_I2C_REVA_CTRL_HS_EN;

        hz = MXC_I2C_REVA_FAST_SPEED; // High speed preambles will be sent at 400kHz

    } else if (hz > MXC_I2C_REVA_HIGH_SPEED) {
10011a82:	4b1e      	ldr	r3, [pc, #120]	@ (10011afc <MXC_I2C_RevA_SetFrequency+0x90>)
10011a84:	4299      	cmp	r1, r3
10011a86:	d82f      	bhi.n	10011ae8 <MXC_I2C_RevA_SetFrequency+0x7c>
        ticksTotal = PeripheralClock / hz;
10011a88:	4b1d      	ldr	r3, [pc, #116]	@ (10011b00 <MXC_I2C_RevA_SetFrequency+0x94>)
        return E_BAD_PARAM;
    }

    // Calculate the period of SCL, 50% duty cycle
    ticksTotal = PeripheralClock / hz;
10011a8a:	681b      	ldr	r3, [r3, #0]
10011a8c:	085b      	lsrs	r3, r3, #1
10011a8e:	fbb3 f3f1 	udiv	r3, r3, r1
    hiClks = (ticksTotal >> 1) - 1;
10011a92:	085b      	lsrs	r3, r3, #1
    if (ticksTotal % 1) {
        hiClks++;
    }

    // Check for maximum/minimum supported speeds
    if ((hiClks > MXC_F_I2C_REVA_CLKHI_HI) || (lowClks == 0)) {
10011a94:	1e9a      	subs	r2, r3, #2
10011a96:	f5b2 7fff 	cmp.w	r2, #510	@ 0x1fe
    hiClks = (ticksTotal >> 1) - 1;
10011a9a:	f103 33ff 	add.w	r3, r3, #4294967295	@ 0xffffffff
    if ((hiClks > MXC_F_I2C_REVA_CLKHI_HI) || (lowClks == 0)) {
10011a9e:	d823      	bhi.n	10011ae8 <MXC_I2C_RevA_SetFrequency+0x7c>
        return E_BAD_PARAM;
    }

    i2c->clklo = lowClks & MXC_F_I2C_REVA_CLKLO_LO;
10011aa0:	6343      	str	r3, [r0, #52]	@ 0x34
    i2c->clkhi = hiClks & MXC_F_I2C_REVA_CLKHI_HI;

    // Return the actual speed set, since it won't be exactly what's requested
    return MXC_I2C_GetFrequency((mxc_i2c_regs_t *)i2c);
}
10011aa2:	bc10      	pop	{r4}
    i2c->clkhi = hiClks & MXC_F_I2C_REVA_CLKHI_HI;
10011aa4:	6383      	str	r3, [r0, #56]	@ 0x38
    return MXC_I2C_GetFrequency((mxc_i2c_regs_t *)i2c);
10011aa6:	f7ff bf47 	b.w	10011938 <MXC_I2C_GetFrequency>
        ticksTotal = PeripheralClock / hz;
10011aaa:	4b15      	ldr	r3, [pc, #84]	@ (10011b00 <MXC_I2C_RevA_SetFrequency+0x94>)
        hsLowClks = (ticksTotal * 2) / 3 - 1;
10011aac:	4c15      	ldr	r4, [pc, #84]	@ (10011b04 <MXC_I2C_RevA_SetFrequency+0x98>)
        ticksTotal = PeripheralClock / hz;
10011aae:	681b      	ldr	r3, [r3, #0]
10011ab0:	085b      	lsrs	r3, r3, #1
10011ab2:	fbb3 f1f1 	udiv	r1, r3, r1
        hsLowClks = (ticksTotal * 2) / 3 - 1;
10011ab6:	004a      	lsls	r2, r1, #1
        hsHiClks = ticksTotal / 3 - 1;
10011ab8:	fba4 c101 	umull	ip, r1, r4, r1
10011abc:	0849      	lsrs	r1, r1, #1
        hsLowClks = (ticksTotal * 2) / 3 - 1;
10011abe:	fba4 4202 	umull	r4, r2, r4, r2
        hsHiClks = ticksTotal / 3 - 1;
10011ac2:	3901      	subs	r1, #1
        hsLowClks = (ticksTotal * 2) / 3 - 1;
10011ac4:	0852      	lsrs	r2, r2, #1
        if ((hsHiClks > 0xF) || (hsLowClks > 0xF)) {
10011ac6:	290f      	cmp	r1, #15
        hsLowClks = (ticksTotal * 2) / 3 - 1;
10011ac8:	f102 32ff 	add.w	r2, r2, #4294967295	@ 0xffffffff
        if ((hsHiClks > 0xF) || (hsLowClks > 0xF)) {
10011acc:	dc0c      	bgt.n	10011ae8 <MXC_I2C_RevA_SetFrequency+0x7c>
10011ace:	2a0f      	cmp	r2, #15
10011ad0:	dc0a      	bgt.n	10011ae8 <MXC_I2C_RevA_SetFrequency+0x7c>
        hsHiClks = (hsHiClks << MXC_F_I2C_REVA_HSCLK_HI_POS) & MXC_F_I2C_REVA_HSCLK_HI;
10011ad2:	0209      	lsls	r1, r1, #8
10011ad4:	b289      	uxth	r1, r1
        i2c->hsclk = (hsLowClks | hsHiClks);
10011ad6:	b2d2      	uxtb	r2, r2
10011ad8:	430a      	orrs	r2, r1
10011ada:	63c2      	str	r2, [r0, #60]	@ 0x3c
        i2c->ctrl |= MXC_F_I2C_REVA_CTRL_HS_EN;
10011adc:	6802      	ldr	r2, [r0, #0]
        hz = MXC_I2C_REVA_FAST_SPEED; // High speed preambles will be sent at 400kHz
10011ade:	490a      	ldr	r1, [pc, #40]	@ (10011b08 <MXC_I2C_RevA_SetFrequency+0x9c>)
        i2c->ctrl |= MXC_F_I2C_REVA_CTRL_HS_EN;
10011ae0:	f442 4200 	orr.w	r2, r2, #32768	@ 0x8000
10011ae4:	6002      	str	r2, [r0, #0]
        hz = MXC_I2C_REVA_FAST_SPEED; // High speed preambles will be sent at 400kHz
10011ae6:	e7d2      	b.n	10011a8e <MXC_I2C_RevA_SetFrequency+0x22>
            return E_BAD_PARAM;
10011ae8:	f06f 0002 	mvn.w	r0, #2
}
10011aec:	bc10      	pop	{r4}
10011aee:	4770      	bx	lr
        return E_NULL_PTR;
10011af0:	f04f 30ff 	mov.w	r0, #4294967295	@ 0xffffffff
}
10011af4:	4770      	bx	lr
10011af6:	bf00      	nop
10011af8:	00249f00 	.word	0x00249f00
10011afc:	0033e140 	.word	0x0033e140
10011b00:	20001950 	.word	0x20001950
10011b04:	aaaaaaab 	.word	0xaaaaaaab
10011b08:	00061a80 	.word	0x00061a80

10011b0c <MXC_I2C_RevA_GetFrequency>:
    unsigned int sclCycles = 0;

    // Calculate the speed based on what we've written into registers
    sclCycles = (i2c->clklo & MXC_F_I2C_REVA_CLKLO_LO) + (i2c->clkhi & MXC_F_I2C_REVA_CLKHI_HI);

    return PeripheralClock / sclCycles;
10011b0c:	4906      	ldr	r1, [pc, #24]	@ (10011b28 <MXC_I2C_RevA_GetFrequency+0x1c>)
    sclCycles = (i2c->clklo & MXC_F_I2C_REVA_CLKLO_LO) + (i2c->clkhi & MXC_F_I2C_REVA_CLKHI_HI);
10011b0e:	6b43      	ldr	r3, [r0, #52]	@ 0x34
10011b10:	6b82      	ldr	r2, [r0, #56]	@ 0x38
    return PeripheralClock / sclCycles;
10011b12:	6808      	ldr	r0, [r1, #0]
    sclCycles = (i2c->clklo & MXC_F_I2C_REVA_CLKLO_LO) + (i2c->clkhi & MXC_F_I2C_REVA_CLKHI_HI);
10011b14:	f3c2 0208 	ubfx	r2, r2, #0, #9
10011b18:	f3c3 0308 	ubfx	r3, r3, #0, #9
10011b1c:	4413      	add	r3, r2
    return PeripheralClock / sclCycles;
10011b1e:	0840      	lsrs	r0, r0, #1
}
10011b20:	fbb0 f0f3 	udiv	r0, r0, r3
10011b24:	4770      	bx	lr
10011b26:	bf00      	nop
10011b28:	20001950 	.word	0x20001950

10011b2c <MXC_I2C_RevA_ReadRXFIFO>:
int MXC_I2C_RevA_ReadRXFIFO(mxc_i2c_reva_regs_t *i2c, volatile unsigned char *bytes,
                            unsigned int len)
{
    unsigned read = 0;

    if ((i2c == NULL) || (bytes == NULL)) {
10011b2c:	b1c8      	cbz	r0, 10011b62 <MXC_I2C_RevA_ReadRXFIFO+0x36>
10011b2e:	b1c1      	cbz	r1, 10011b62 <MXC_I2C_RevA_ReadRXFIFO+0x36>
        return E_NULL_PTR;
    }

    while ((len > read) && (!(i2c->status & MXC_F_I2C_REVA_STATUS_RX_EM))) {
10011b30:	b1aa      	cbz	r2, 10011b5e <MXC_I2C_RevA_ReadRXFIFO+0x32>
{
10011b32:	b500      	push	{lr}
    unsigned read = 0;
10011b34:	2300      	movs	r3, #0
        bytes[read++] = i2c->fifo;
10011b36:	f101 3eff 	add.w	lr, r1, #4294967295	@ 0xffffffff
10011b3a:	e007      	b.n	10011b4c <MXC_I2C_RevA_ReadRXFIFO+0x20>
10011b3c:	6ac1      	ldr	r1, [r0, #44]	@ 0x2c
10011b3e:	3301      	adds	r3, #1
10011b40:	fa5f fc81 	uxtb.w	ip, r1
    while ((len > read) && (!(i2c->status & MXC_F_I2C_REVA_STATUS_RX_EM))) {
10011b44:	429a      	cmp	r2, r3
        bytes[read++] = i2c->fifo;
10011b46:	f80e c003 	strb.w	ip, [lr, r3]
    while ((len > read) && (!(i2c->status & MXC_F_I2C_REVA_STATUS_RX_EM))) {
10011b4a:	d005      	beq.n	10011b58 <MXC_I2C_RevA_ReadRXFIFO+0x2c>
10011b4c:	6841      	ldr	r1, [r0, #4]
10011b4e:	0789      	lsls	r1, r1, #30
10011b50:	d5f4      	bpl.n	10011b3c <MXC_I2C_RevA_ReadRXFIFO+0x10>
    }

    return read;
10011b52:	4618      	mov	r0, r3
}
10011b54:	f85d fb04 	ldr.w	pc, [sp], #4
    return read;
10011b58:	4610      	mov	r0, r2
}
10011b5a:	f85d fb04 	ldr.w	pc, [sp], #4
    while ((len > read) && (!(i2c->status & MXC_F_I2C_REVA_STATUS_RX_EM))) {
10011b5e:	4610      	mov	r0, r2
10011b60:	4770      	bx	lr
        return E_NULL_PTR;
10011b62:	f04f 30ff 	mov.w	r0, #4294967295	@ 0xffffffff
}
10011b66:	4770      	bx	lr

10011b68 <MXC_I2C_RevA_GetRXFIFOAvailable>:
    return E_NO_ERROR;
}

int MXC_I2C_RevA_GetRXFIFOAvailable(mxc_i2c_reva_regs_t *i2c)
{
    if (i2c == NULL) {
10011b68:	b118      	cbz	r0, 10011b72 <MXC_I2C_RevA_GetRXFIFOAvailable+0xa>
        return E_NULL_PTR;
    }

    return (i2c->rxctrl1 & MXC_F_I2C_REVA_RXCTRL1_LVL) >> MXC_F_I2C_REVA_RXCTRL1_LVL_POS;
10011b6a:	6a00      	ldr	r0, [r0, #32]
10011b6c:	f3c0 2003 	ubfx	r0, r0, #8, #4
10011b70:	4770      	bx	lr
        return E_NULL_PTR;
10011b72:	f04f 30ff 	mov.w	r0, #4294967295	@ 0xffffffff
}
10011b76:	4770      	bx	lr

10011b78 <MXC_I2C_RevA_WriteTXFIFO>:
int MXC_I2C_RevA_WriteTXFIFO(mxc_i2c_reva_regs_t *i2c, volatile unsigned char *bytes,
                             unsigned int len)
{
    unsigned written = 0;

    if ((i2c == NULL) || (bytes == NULL)) {
10011b78:	b198      	cbz	r0, 10011ba2 <MXC_I2C_RevA_WriteTXFIFO+0x2a>
10011b7a:	b191      	cbz	r1, 10011ba2 <MXC_I2C_RevA_WriteTXFIFO+0x2a>
        return E_NULL_PTR;
    }

    while ((len > written) && (!(i2c->status & MXC_F_I2C_REVA_STATUS_TX_FULL))) {
10011b7c:	b17a      	cbz	r2, 10011b9e <MXC_I2C_RevA_WriteTXFIFO+0x26>
    unsigned written = 0;
10011b7e:	2300      	movs	r3, #0
        i2c->fifo = bytes[written++];
10011b80:	f101 3cff 	add.w	ip, r1, #4294967295	@ 0xffffffff
10011b84:	e006      	b.n	10011b94 <MXC_I2C_RevA_WriteTXFIFO+0x1c>
10011b86:	3301      	adds	r3, #1
    while ((len > written) && (!(i2c->status & MXC_F_I2C_REVA_STATUS_TX_FULL))) {
10011b88:	429a      	cmp	r2, r3
        i2c->fifo = bytes[written++];
10011b8a:	f81c 1003 	ldrb.w	r1, [ip, r3]
10011b8e:	b2c9      	uxtb	r1, r1
10011b90:	62c1      	str	r1, [r0, #44]	@ 0x2c
    while ((len > written) && (!(i2c->status & MXC_F_I2C_REVA_STATUS_TX_FULL))) {
10011b92:	d004      	beq.n	10011b9e <MXC_I2C_RevA_WriteTXFIFO+0x26>
10011b94:	6841      	ldr	r1, [r0, #4]
10011b96:	06c9      	lsls	r1, r1, #27
10011b98:	d5f5      	bpl.n	10011b86 <MXC_I2C_RevA_WriteTXFIFO+0xe>
    }

    return written;
10011b9a:	4618      	mov	r0, r3
10011b9c:	4770      	bx	lr
10011b9e:	4610      	mov	r0, r2
10011ba0:	4770      	bx	lr
        return E_NULL_PTR;
10011ba2:	f04f 30ff 	mov.w	r0, #4294967295	@ 0xffffffff
}
10011ba6:	4770      	bx	lr

10011ba8 <MXC_I2C_RevA_GetTXFIFOAvailable>:
    return E_NO_ERROR;
}

int MXC_I2C_RevA_GetTXFIFOAvailable(mxc_i2c_reva_regs_t *i2c)
{
    if (i2c == NULL) {
10011ba8:	b138      	cbz	r0, 10011bba <MXC_I2C_RevA_GetTXFIFOAvailable+0x12>
        return E_NULL_PTR;
    }

    int txFIFOlen = (i2c->fifolen & MXC_F_I2C_REVA_FIFOLEN_TX_DEPTH) >>
10011baa:	6983      	ldr	r3, [r0, #24]
                    MXC_F_I2C_REVA_FIFOLEN_TX_DEPTH_POS;
    return txFIFOlen -
           ((i2c->txctrl1 & MXC_F_I2C_REVA_TXCTRL1_LVL) >> MXC_F_I2C_REVA_TXCTRL1_LVL_POS);
10011bac:	6a82      	ldr	r2, [r0, #40]	@ 0x28
    return txFIFOlen -
10011bae:	f3c3 2007 	ubfx	r0, r3, #8, #8
           ((i2c->txctrl1 & MXC_F_I2C_REVA_TXCTRL1_LVL) >> MXC_F_I2C_REVA_TXCTRL1_LVL_POS);
10011bb2:	f3c2 2303 	ubfx	r3, r2, #8, #4
    return txFIFOlen -
10011bb6:	1ac0      	subs	r0, r0, r3
10011bb8:	4770      	bx	lr
        return E_NULL_PTR;
10011bba:	f04f 30ff 	mov.w	r0, #4294967295	@ 0xffffffff
}
10011bbe:	4770      	bx	lr

10011bc0 <MXC_I2C_RevA_ClearRXFIFO>:

void MXC_I2C_RevA_ClearRXFIFO(mxc_i2c_reva_regs_t *i2c)
{
    i2c->rxctrl0 |= MXC_F_I2C_REVA_RXCTRL0_FLUSH;
10011bc0:	69c3      	ldr	r3, [r0, #28]
10011bc2:	f043 0380 	orr.w	r3, r3, #128	@ 0x80
10011bc6:	61c3      	str	r3, [r0, #28]

    while (i2c->rxctrl0 & MXC_F_I2C_REVA_RXCTRL0_FLUSH) {}
10011bc8:	69c3      	ldr	r3, [r0, #28]
10011bca:	061b      	lsls	r3, r3, #24
10011bcc:	d4fc      	bmi.n	10011bc8 <MXC_I2C_RevA_ClearRXFIFO+0x8>
}
10011bce:	4770      	bx	lr

10011bd0 <MXC_I2C_RevA_ClearTXFIFO>:

void MXC_I2C_RevA_ClearTXFIFO(mxc_i2c_reva_regs_t *i2c)
{
    i2c->txctrl0 |= MXC_F_I2C_REVA_TXCTRL0_FLUSH;
10011bd0:	6a43      	ldr	r3, [r0, #36]	@ 0x24
10011bd2:	f043 0380 	orr.w	r3, r3, #128	@ 0x80
10011bd6:	6243      	str	r3, [r0, #36]	@ 0x24

    while (i2c->txctrl0 & MXC_F_I2C_REVA_TXCTRL0_FLUSH) {}
10011bd8:	6a43      	ldr	r3, [r0, #36]	@ 0x24
10011bda:	061b      	lsls	r3, r3, #24
10011bdc:	d4fc      	bmi.n	10011bd8 <MXC_I2C_RevA_ClearTXFIFO+0x8>
}
10011bde:	4770      	bx	lr

10011be0 <MXC_I2C_RevA_ClearFlags>:
    return E_NO_ERROR;
}

void MXC_I2C_RevA_ClearFlags(mxc_i2c_reva_regs_t *i2c, unsigned int flags0, unsigned int flags1)
{
    i2c->intfl0 = flags0;
10011be0:	6081      	str	r1, [r0, #8]
    i2c->intfl1 = flags1;
10011be2:	6102      	str	r2, [r0, #16]
}
10011be4:	4770      	bx	lr
10011be6:	bf00      	nop

10011be8 <MXC_I2C_RevA_EnableInt>:

void MXC_I2C_RevA_EnableInt(mxc_i2c_reva_regs_t *i2c, unsigned int flags0, unsigned int flags1)
{
    i2c->inten0 |= flags0;
10011be8:	68c3      	ldr	r3, [r0, #12]
10011bea:	430b      	orrs	r3, r1
10011bec:	60c3      	str	r3, [r0, #12]
    i2c->inten1 |= flags1;
10011bee:	6943      	ldr	r3, [r0, #20]
10011bf0:	4313      	orrs	r3, r2
10011bf2:	6143      	str	r3, [r0, #20]
}
10011bf4:	4770      	bx	lr
10011bf6:	bf00      	nop

10011bf8 <MXC_I2C_RevA_DisableInt>:

void MXC_I2C_RevA_DisableInt(mxc_i2c_reva_regs_t *i2c, unsigned int flags0, unsigned int flags1)
{
    i2c->inten0 &= ~flags0;
10011bf8:	68c3      	ldr	r3, [r0, #12]
10011bfa:	ea23 0301 	bic.w	r3, r3, r1
10011bfe:	60c3      	str	r3, [r0, #12]
    i2c->inten1 &= ~flags1;
10011c00:	6943      	ldr	r3, [r0, #20]
10011c02:	ea23 0302 	bic.w	r3, r3, r2
10011c06:	6143      	str	r3, [r0, #20]
}
10011c08:	4770      	bx	lr
10011c0a:	bf00      	nop

10011c0c <MXC_I2C_RevA_Recover>:
int MXC_I2C_RevA_Recover(mxc_i2c_reva_regs_t *i2c, unsigned int retries)
{
    int err;
    unsigned int i;

    if (i2c == NULL) {
10011c0c:	2800      	cmp	r0, #0
10011c0e:	d065      	beq.n	10011cdc <MXC_I2C_RevA_Recover+0xd0>
        return E_NULL_PTR;
    }

    err = E_COMM_ERR;

    i2c->ctrl |= MXC_F_I2C_REVA_CTRL_EN;
10011c10:	6803      	ldr	r3, [r0, #0]
10011c12:	f043 0301 	orr.w	r3, r3, #1
{
10011c16:	e92d 41f0 	stmdb	sp!, {r4, r5, r6, r7, r8, lr}
    i2c->ctrl |= MXC_F_I2C_REVA_CTRL_EN;
10011c1a:	6003      	str	r3, [r0, #0]
    int swBit = i2c->ctrl & MXC_F_I2C_REVA_CTRL_BB_MODE;
10011c1c:	6807      	ldr	r7, [r0, #0]

    if (i2c == NULL) {
        return E_NULL_PTR;
    }

    i2c->ctrl |= MXC_F_I2C_REVA_CTRL_BB_MODE;
10011c1e:	6803      	ldr	r3, [r0, #0]
10011c20:	f443 6380 	orr.w	r3, r3, #1024	@ 0x400
10011c24:	460e      	mov	r6, r1
10011c26:	4604      	mov	r4, r0
10011c28:	f407 6780 	and.w	r7, r7, #1024	@ 0x400
10011c2c:	6003      	str	r3, [r0, #0]

    // Follow the procedure detailed in the header file
    // Delay 10uS between each step to give the line/slaves time to react
    for (i = 0; i < retries; i++) {
10011c2e:	2900      	cmp	r1, #0
10011c30:	d043      	beq.n	10011cba <MXC_I2C_RevA_Recover+0xae>
10011c32:	2500      	movs	r5, #0
10011c34:	e02b      	b.n	10011c8e <MXC_I2C_RevA_Recover+0x82>
        if (i2c->ctrl & MXC_F_I2C_REVA_CTRL_SCL) {
            i2c->ctrl |= MXC_F_I2C_REVA_CTRL_SCL_OUT | MXC_F_I2C_REVA_CTRL_SDA_OUT;
            continue; // Give up and try again
        }

        MXC_Delay(10);
10011c36:	f7ff fb03 	bl	10011240 <MXC_Delay>
        i2c->ctrl &= ~MXC_F_I2C_REVA_CTRL_SDA_OUT;
10011c3a:	6823      	ldr	r3, [r4, #0]
10011c3c:	f023 0380 	bic.w	r3, r3, #128	@ 0x80
10011c40:	6023      	str	r3, [r4, #0]

        MXC_Delay(10);
10011c42:	200a      	movs	r0, #10
10011c44:	f7ff fafc 	bl	10011240 <MXC_Delay>

        if (i2c->ctrl & MXC_F_I2C_REVA_CTRL_SDA) {
10011c48:	6823      	ldr	r3, [r4, #0]
10011c4a:	f413 7800 	ands.w	r8, r3, #512	@ 0x200
            i2c->ctrl |= MXC_F_I2C_REVA_CTRL_SCL_OUT | MXC_F_I2C_REVA_CTRL_SDA_OUT;
            continue; // Give up and try again
        }

        MXC_Delay(10);
10011c4e:	f04f 000a 	mov.w	r0, #10
        if (i2c->ctrl & MXC_F_I2C_REVA_CTRL_SDA) {
10011c52:	d12b      	bne.n	10011cac <MXC_I2C_RevA_Recover+0xa0>
        MXC_Delay(10);
10011c54:	f7ff faf4 	bl	10011240 <MXC_Delay>
        i2c->ctrl |= MXC_F_I2C_REVA_CTRL_SDA_OUT;
10011c58:	6823      	ldr	r3, [r4, #0]
10011c5a:	f043 0380 	orr.w	r3, r3, #128	@ 0x80
10011c5e:	6023      	str	r3, [r4, #0]

        MXC_Delay(10);
10011c60:	200a      	movs	r0, #10
10011c62:	f7ff faed 	bl	10011240 <MXC_Delay>

        if (!(i2c->ctrl & MXC_F_I2C_REVA_CTRL_SDA)) {
10011c66:	6823      	ldr	r3, [r4, #0]
10011c68:	059a      	lsls	r2, r3, #22
            i2c->ctrl |= MXC_F_I2C_REVA_CTRL_SCL_OUT | MXC_F_I2C_REVA_CTRL_SDA_OUT;
            continue; // Give up and try again
        }

        MXC_Delay(10);
10011c6a:	f04f 000a 	mov.w	r0, #10
        if (!(i2c->ctrl & MXC_F_I2C_REVA_CTRL_SDA)) {
10011c6e:	d51d      	bpl.n	10011cac <MXC_I2C_RevA_Recover+0xa0>
        MXC_Delay(10);
10011c70:	f7ff fae6 	bl	10011240 <MXC_Delay>
        i2c->ctrl |= MXC_F_I2C_REVA_CTRL_SCL_OUT;
10011c74:	6823      	ldr	r3, [r4, #0]
10011c76:	f043 0340 	orr.w	r3, r3, #64	@ 0x40
10011c7a:	6023      	str	r3, [r4, #0]

        MXC_Delay(10);
10011c7c:	200a      	movs	r0, #10
10011c7e:	f7ff fadf 	bl	10011240 <MXC_Delay>

        if (i2c->ctrl & MXC_F_I2C_REVA_CTRL_SCL) {
10011c82:	6823      	ldr	r3, [r4, #0]
10011c84:	05db      	lsls	r3, r3, #23
10011c86:	d425      	bmi.n	10011cd4 <MXC_I2C_RevA_Recover+0xc8>
    for (i = 0; i < retries; i++) {
10011c88:	3501      	adds	r5, #1
10011c8a:	42ae      	cmp	r6, r5
10011c8c:	d015      	beq.n	10011cba <MXC_I2C_RevA_Recover+0xae>
        MXC_Delay(10);
10011c8e:	200a      	movs	r0, #10
10011c90:	f7ff fad6 	bl	10011240 <MXC_Delay>
        i2c->ctrl &= ~MXC_F_I2C_REVA_CTRL_SCL_OUT;
10011c94:	6823      	ldr	r3, [r4, #0]
10011c96:	f023 0340 	bic.w	r3, r3, #64	@ 0x40
10011c9a:	6023      	str	r3, [r4, #0]
        MXC_Delay(10);
10011c9c:	200a      	movs	r0, #10
10011c9e:	f7ff facf 	bl	10011240 <MXC_Delay>
        if (i2c->ctrl & MXC_F_I2C_REVA_CTRL_SCL) {
10011ca2:	6823      	ldr	r3, [r4, #0]
10011ca4:	05d9      	lsls	r1, r3, #23
        MXC_Delay(10);
10011ca6:	f04f 000a 	mov.w	r0, #10
        if (i2c->ctrl & MXC_F_I2C_REVA_CTRL_SCL) {
10011caa:	d5c4      	bpl.n	10011c36 <MXC_I2C_RevA_Recover+0x2a>
            i2c->ctrl |= MXC_F_I2C_REVA_CTRL_SCL_OUT | MXC_F_I2C_REVA_CTRL_SDA_OUT;
10011cac:	6823      	ldr	r3, [r4, #0]
    for (i = 0; i < retries; i++) {
10011cae:	3501      	adds	r5, #1
            i2c->ctrl |= MXC_F_I2C_REVA_CTRL_SCL_OUT | MXC_F_I2C_REVA_CTRL_SDA_OUT;
10011cb0:	f043 03c0 	orr.w	r3, r3, #192	@ 0xc0
    for (i = 0; i < retries; i++) {
10011cb4:	42ae      	cmp	r6, r5
            i2c->ctrl |= MXC_F_I2C_REVA_CTRL_SCL_OUT | MXC_F_I2C_REVA_CTRL_SDA_OUT;
10011cb6:	6023      	str	r3, [r4, #0]
    for (i = 0; i < retries; i++) {
10011cb8:	d1e9      	bne.n	10011c8e <MXC_I2C_RevA_Recover+0x82>
    err = E_COMM_ERR;
10011cba:	f06f 0008 	mvn.w	r0, #8
            err = E_NO_ERROR; // We have control
            break;
        }
    }

    if (swBit == 0) {
10011cbe:	b91f      	cbnz	r7, 10011cc8 <MXC_I2C_RevA_Recover+0xbc>
        i2c->ctrl &= ~MXC_F_I2C_REVA_CTRL_BB_MODE;
10011cc0:	6823      	ldr	r3, [r4, #0]
10011cc2:	f423 6380 	bic.w	r3, r3, #1024	@ 0x400
10011cc6:	6023      	str	r3, [r4, #0]
    }

    i2c->ctrl &= ~MXC_F_I2C_REVA_CTRL_EN;
10011cc8:	6823      	ldr	r3, [r4, #0]
10011cca:	f023 0301 	bic.w	r3, r3, #1
10011cce:	6023      	str	r3, [r4, #0]

    return err;
}
10011cd0:	e8bd 81f0 	ldmia.w	sp!, {r4, r5, r6, r7, r8, pc}
            err = E_NO_ERROR; // We have control
10011cd4:	4640      	mov	r0, r8
    if (swBit == 0) {
10011cd6:	2f00      	cmp	r7, #0
10011cd8:	d1f6      	bne.n	10011cc8 <MXC_I2C_RevA_Recover+0xbc>
10011cda:	e7f1      	b.n	10011cc0 <MXC_I2C_RevA_Recover+0xb4>
        return E_NULL_PTR;
10011cdc:	f04f 30ff 	mov.w	r0, #4294967295	@ 0xffffffff
}
10011ce0:	4770      	bx	lr
10011ce2:	bf00      	nop

10011ce4 <MXC_I2C_RevA_SetRXThreshold>:
    return E_NO_ERROR;
}

int MXC_I2C_RevA_SetRXThreshold(mxc_i2c_reva_regs_t *i2c, unsigned int numBytes)
{
    unsigned int rxFIFOlen = (i2c->fifolen & MXC_F_I2C_REVA_FIFOLEN_RX_DEPTH) >>
10011ce4:	6982      	ldr	r2, [r0, #24]
10011ce6:	b2d2      	uxtb	r2, r2
                             MXC_F_I2C_REVA_FIFOLEN_RX_DEPTH_POS;

    if (numBytes > rxFIFOlen) {
10011ce8:	428a      	cmp	r2, r1
{
10011cea:	4603      	mov	r3, r0
    if (numBytes > rxFIFOlen) {
10011cec:	d307      	bcc.n	10011cfe <MXC_I2C_RevA_SetRXThreshold+0x1a>
        return E_BAD_PARAM;
    }

    i2c->rxctrl0 = (i2c->rxctrl0 & ~MXC_F_I2C_REVA_RXCTRL0_THD_LVL) |
10011cee:	69c2      	ldr	r2, [r0, #28]
10011cf0:	f422 6270 	bic.w	r2, r2, #3840	@ 0xf00
10011cf4:	ea42 2101 	orr.w	r1, r2, r1, lsl #8
                   (numBytes << MXC_F_I2C_REVA_RXCTRL0_THD_LVL_POS);
    return E_NO_ERROR;
10011cf8:	2000      	movs	r0, #0
    i2c->rxctrl0 = (i2c->rxctrl0 & ~MXC_F_I2C_REVA_RXCTRL0_THD_LVL) |
10011cfa:	61d9      	str	r1, [r3, #28]
    return E_NO_ERROR;
10011cfc:	4770      	bx	lr
        return E_BAD_PARAM;
10011cfe:	f06f 0002 	mvn.w	r0, #2
}
10011d02:	4770      	bx	lr

10011d04 <MXC_I2C_RevA_SetTXThreshold>:
    return (i2c->rxctrl0 & MXC_F_I2C_REVA_RXCTRL0_THD_LVL) >> MXC_F_I2C_REVA_RXCTRL0_THD_LVL_POS;
}

int MXC_I2C_RevA_SetTXThreshold(mxc_i2c_reva_regs_t *i2c, unsigned int numBytes)
{
    unsigned int txFIFOlen = (i2c->fifolen & MXC_F_I2C_REVA_FIFOLEN_TX_DEPTH) >>
10011d04:	6982      	ldr	r2, [r0, #24]
10011d06:	f3c2 2207 	ubfx	r2, r2, #8, #8
                             MXC_F_I2C_REVA_FIFOLEN_TX_DEPTH_POS;

    if (numBytes > txFIFOlen) {
10011d0a:	428a      	cmp	r2, r1
{
10011d0c:	4603      	mov	r3, r0
    if (numBytes > txFIFOlen) {
10011d0e:	d307      	bcc.n	10011d20 <MXC_I2C_RevA_SetTXThreshold+0x1c>
        return E_BAD_PARAM;
    }

    i2c->txctrl0 = (i2c->txctrl0 & ~MXC_F_I2C_REVA_TXCTRL0_THD_LVL) |
10011d10:	6a42      	ldr	r2, [r0, #36]	@ 0x24
10011d12:	f422 6270 	bic.w	r2, r2, #3840	@ 0xf00
10011d16:	ea42 2101 	orr.w	r1, r2, r1, lsl #8
                   (numBytes << MXC_F_I2C_REVA_TXCTRL0_THD_LVL_POS);
    return E_NO_ERROR;
10011d1a:	2000      	movs	r0, #0
    i2c->txctrl0 = (i2c->txctrl0 & ~MXC_F_I2C_REVA_TXCTRL0_THD_LVL) |
10011d1c:	6259      	str	r1, [r3, #36]	@ 0x24
    return E_NO_ERROR;
10011d1e:	4770      	bx	lr
        return E_BAD_PARAM;
10011d20:	f06f 0002 	mvn.w	r0, #2
}
10011d24:	4770      	bx	lr
10011d26:	bf00      	nop

10011d28 <MXC_ICC_Enable>:
    return MXC_ICC_RevA_ID((mxc_icc_reva_regs_t *)icc, cid);
}

void MXC_ICC_Enable(mxc_icc_regs_t *icc)
{
    MXC_ICC_RevA_Enable((mxc_icc_reva_regs_t *)icc);
10011d28:	f000 b802 	b.w	10011d30 <MXC_ICC_RevA_Enable>

10011d2c <MXC_ICC_Disable>:
}

void MXC_ICC_Disable(mxc_icc_regs_t *icc)
{
    MXC_ICC_RevA_Disable((mxc_icc_reva_regs_t *)icc);
10011d2c:	f000 b818 	b.w	10011d60 <MXC_ICC_RevA_Disable>

10011d30 <MXC_ICC_RevA_Enable>:
}

void MXC_ICC_RevA_Enable(mxc_icc_reva_regs_t *icc)
{
    // Invalidate cache and wait until ready
    icc->ctrl &= ~MXC_F_ICC_REVA_CTRL_EN;
10011d30:	f8d0 3100 	ldr.w	r3, [r0, #256]	@ 0x100
    icc->invalidate = 1;
10011d34:	2201      	movs	r2, #1
    icc->ctrl &= ~MXC_F_ICC_REVA_CTRL_EN;
10011d36:	f023 0301 	bic.w	r3, r3, #1
10011d3a:	f8c0 3100 	str.w	r3, [r0, #256]	@ 0x100
    icc->invalidate = 1;
10011d3e:	f8c0 2700 	str.w	r2, [r0, #1792]	@ 0x700
    return (icc->ctrl & MXC_F_ICC_REVA_CTRL_RDY);
10011d42:	f8d0 3100 	ldr.w	r3, [r0, #256]	@ 0x100

    while (!(MXC_ICC_Ready(icc))) {}
10011d46:	03da      	lsls	r2, r3, #15
10011d48:	d5fb      	bpl.n	10011d42 <MXC_ICC_RevA_Enable+0x12>

    // Enable Cache
    icc->ctrl |= MXC_F_ICC_REVA_CTRL_EN;
10011d4a:	f8d0 3100 	ldr.w	r3, [r0, #256]	@ 0x100
10011d4e:	f043 0301 	orr.w	r3, r3, #1
10011d52:	f8c0 3100 	str.w	r3, [r0, #256]	@ 0x100
    return (icc->ctrl & MXC_F_ICC_REVA_CTRL_RDY);
10011d56:	f8d0 3100 	ldr.w	r3, [r0, #256]	@ 0x100
    while (!(MXC_ICC_Ready(icc))) {}
10011d5a:	03db      	lsls	r3, r3, #15
10011d5c:	d5fb      	bpl.n	10011d56 <MXC_ICC_RevA_Enable+0x26>
}
10011d5e:	4770      	bx	lr

10011d60 <MXC_ICC_RevA_Disable>:

void MXC_ICC_RevA_Disable(mxc_icc_reva_regs_t *icc)
{
    // Disable Cache
    icc->ctrl &= ~MXC_F_ICC_REVA_CTRL_EN;
10011d60:	f8d0 3100 	ldr.w	r3, [r0, #256]	@ 0x100
10011d64:	f023 0301 	bic.w	r3, r3, #1
10011d68:	f8c0 3100 	str.w	r3, [r0, #256]	@ 0x100
}
10011d6c:	4770      	bx	lr
10011d6e:	bf00      	nop

10011d70 <MXC_TRNG_Init>:
/* ************************************************************************* */

/********************************************************/

int MXC_TRNG_Init()
{
10011d70:	b508      	push	{r3, lr}
    MXC_SYS_ClockEnable(MXC_SYS_PERIPH_CLOCK_TRNG);
10011d72:	2022      	movs	r0, #34	@ 0x22
10011d74:	f7ff fae6 	bl	10011344 <MXC_SYS_ClockEnable>

    MXC_TRNG_RevB_Init();
10011d78:	f000 f81a 	bl	10011db0 <MXC_TRNG_RevB_Init>

    return E_NO_ERROR;
}
10011d7c:	2000      	movs	r0, #0
10011d7e:	bd08      	pop	{r3, pc}

10011d80 <MXC_TRNG_Shutdown>:
{
    MXC_TRNG_RevB_DisableInt((mxc_trng_revb_regs_t *)MXC_TRNG);
}

int MXC_TRNG_Shutdown(void)
{
10011d80:	b510      	push	{r4, lr}
    int error = MXC_TRNG_RevB_Shutdown();
10011d82:	f000 f817 	bl	10011db4 <MXC_TRNG_RevB_Shutdown>
10011d86:	4604      	mov	r4, r0

    MXC_SYS_ClockDisable(MXC_SYS_PERIPH_CLOCK_TRNG);
10011d88:	2022      	movs	r0, #34	@ 0x22
10011d8a:	f7ff fabb 	bl	10011304 <MXC_SYS_ClockDisable>

    return error;
}
10011d8e:	4620      	mov	r0, r4
10011d90:	bd10      	pop	{r4, pc}
10011d92:	bf00      	nop

10011d94 <MXC_TRNG_Handler>:

void MXC_TRNG_Handler(void)
{
    MXC_TRNG_RevB_Handler((mxc_trng_revb_regs_t *)MXC_TRNG);
10011d94:	4801      	ldr	r0, [pc, #4]	@ (10011d9c <MXC_TRNG_Handler+0x8>)
10011d96:	f000 b80f 	b.w	10011db8 <MXC_TRNG_RevB_Handler>
10011d9a:	bf00      	nop
10011d9c:	4004d000 	.word	0x4004d000

10011da0 <MXC_TRNG_RandomInt>:
/* True Random Number Generator (TRNG) functions                             */
/* ************************************************************************* */

int MXC_TRNG_RandomInt(void)
{
    return MXC_TRNG_RevB_RandomInt((mxc_trng_revb_regs_t *)MXC_TRNG);
10011da0:	4801      	ldr	r0, [pc, #4]	@ (10011da8 <MXC_TRNG_RandomInt+0x8>)
10011da2:	f000 b83d 	b.w	10011e20 <MXC_TRNG_RevB_RandomInt>
10011da6:	bf00      	nop
10011da8:	4004d000 	.word	0x4004d000

10011dac <MXC_TRNG_Random>:
}

int MXC_TRNG_Random(uint8_t *data, uint32_t len)
{
    return MXC_TRNG_RevB_Random(data, len);
10011dac:	f000 b83e 	b.w	10011e2c <MXC_TRNG_RevB_Random>

10011db0 <MXC_TRNG_RevB_Init>:
/* ************************************************************************* */

int MXC_TRNG_RevB_Init(void)
{
    return E_NO_ERROR;
}
10011db0:	2000      	movs	r0, #0
10011db2:	4770      	bx	lr

10011db4 <MXC_TRNG_RevB_Shutdown>:
void MXC_TRNG_RevB_DisableInt(mxc_trng_revb_regs_t *trng)
{
    trng->ctrl &= ~MXC_F_TRNG_REVB_CTRL_RND_IE;
}

int MXC_TRNG_RevB_Shutdown(void)
10011db4:	2000      	movs	r0, #0
10011db6:	4770      	bx	lr

10011db8 <MXC_TRNG_RevB_Handler>:
{
    return E_NO_ERROR;
}

void MXC_TRNG_RevB_Handler(mxc_trng_revb_regs_t *trng)
{
10011db8:	b5f0      	push	{r4, r5, r6, r7, lr}
    uint32_t temp;
    mxc_trng_complete_t cb;

    // if this is last block, disable interrupt before reading trng->data
    if (TRNG_maxLength <= TRNG_count + 4) {
10011dba:	4f15      	ldr	r7, [pc, #84]	@ (10011e10 <MXC_TRNG_RevB_Handler+0x58>)
10011dbc:	4b15      	ldr	r3, [pc, #84]	@ (10011e14 <MXC_TRNG_RevB_Handler+0x5c>)
10011dbe:	683d      	ldr	r5, [r7, #0]
10011dc0:	681e      	ldr	r6, [r3, #0]
10011dc2:	1d2a      	adds	r2, r5, #4
10011dc4:	42b2      	cmp	r2, r6
{
10011dc6:	b083      	sub	sp, #12
    if (TRNG_maxLength <= TRNG_count + 4) {
10011dc8:	d303      	bcc.n	10011dd2 <MXC_TRNG_RevB_Handler+0x1a>
        trng->ctrl &= ~MXC_F_TRNG_REVB_CTRL_RND_IE;
10011dca:	6803      	ldr	r3, [r0, #0]
10011dcc:	f023 0302 	bic.w	r3, r3, #2
10011dd0:	6003      	str	r3, [r0, #0]
    }

    temp = trng->data;

    if ((TRNG_count + 3) < TRNG_maxLength) {
        memcpy(&(TRNG_data[TRNG_count]), (uint8_t *)(&temp), 4);
10011dd2:	4b11      	ldr	r3, [pc, #68]	@ (10011e18 <MXC_TRNG_RevB_Handler+0x60>)
    temp = trng->data;
10011dd4:	6884      	ldr	r4, [r0, #8]
        memcpy(&(TRNG_data[TRNG_count]), (uint8_t *)(&temp), 4);
10011dd6:	6819      	ldr	r1, [r3, #0]
    temp = trng->data;
10011dd8:	9401      	str	r4, [sp, #4]
    if ((TRNG_count + 3) < TRNG_maxLength) {
10011dda:	1ceb      	adds	r3, r5, #3
10011ddc:	429e      	cmp	r6, r3
        memcpy(&(TRNG_data[TRNG_count]), (uint8_t *)(&temp), 4);
10011dde:	eb01 0005 	add.w	r0, r1, r5
    if ((TRNG_count + 3) < TRNG_maxLength) {
10011de2:	d90d      	bls.n	10011e00 <MXC_TRNG_RevB_Handler+0x48>
        memcpy(&(TRNG_data[TRNG_count]), (uint8_t *)(&temp), 4);
10011de4:	514c      	str	r4, [r1, r5]
    } else {
        memcpy(&(TRNG_data[TRNG_count]), (uint8_t *)(&temp), TRNG_maxLength & 0x03);
        TRNG_count += (TRNG_maxLength & 0x03);
    }

    if (TRNG_maxLength == TRNG_count) {
10011de6:	4296      	cmp	r6, r2
        TRNG_count += 4;
10011de8:	603a      	str	r2, [r7, #0]
    if (TRNG_maxLength == TRNG_count) {
10011dea:	d001      	beq.n	10011df0 <MXC_TRNG_RevB_Handler+0x38>
        cb = MXC_TRNG_Callback;
        cb(0, 0);
    }
}
10011dec:	b003      	add	sp, #12
10011dee:	bdf0      	pop	{r4, r5, r6, r7, pc}
        cb = MXC_TRNG_Callback;
10011df0:	4b0a      	ldr	r3, [pc, #40]	@ (10011e1c <MXC_TRNG_RevB_Handler+0x64>)
        cb(0, 0);
10011df2:	2100      	movs	r1, #0
10011df4:	681b      	ldr	r3, [r3, #0]
10011df6:	4608      	mov	r0, r1
}
10011df8:	b003      	add	sp, #12
10011dfa:	e8bd 40f0 	ldmia.w	sp!, {r4, r5, r6, r7, lr}
        cb(0, 0);
10011dfe:	4718      	bx	r3
        memcpy(&(TRNG_data[TRNG_count]), (uint8_t *)(&temp), TRNG_maxLength & 0x03);
10011e00:	f006 0203 	and.w	r2, r6, #3
10011e04:	4614      	mov	r4, r2
10011e06:	a901      	add	r1, sp, #4
10011e08:	f004 f8da 	bl	10015fc0 <memcpy>
        TRNG_count += (TRNG_maxLength & 0x03);
10011e0c:	192a      	adds	r2, r5, r4
10011e0e:	e7ea      	b.n	10011de6 <MXC_TRNG_RevB_Handler+0x2e>
10011e10:	20001230 	.word	0x20001230
10011e14:	2000122c 	.word	0x2000122c
10011e18:	20001228 	.word	0x20001228
10011e1c:	20001234 	.word	0x20001234

10011e20 <MXC_TRNG_RevB_RandomInt>:
/* True Random Number Generator(TRNG) functions                             */
/* ************************************************************************* */

int MXC_TRNG_RevB_RandomInt(mxc_trng_revb_regs_t *trng)
{
    while (!(trng->status & MXC_F_TRNG_REVB_STATUS_RDY)) {}
10011e20:	6843      	ldr	r3, [r0, #4]
10011e22:	07db      	lsls	r3, r3, #31
10011e24:	d5fc      	bpl.n	10011e20 <MXC_TRNG_RevB_RandomInt>

    return (int)trng->data;
10011e26:	6880      	ldr	r0, [r0, #8]
}
10011e28:	4770      	bx	lr
10011e2a:	bf00      	nop

10011e2c <MXC_TRNG_RevB_Random>:

int MXC_TRNG_RevB_Random(uint8_t *data, uint32_t len)
{
    unsigned int i, temp;

    if (data == NULL) {
10011e2c:	b380      	cbz	r0, 10011e90 <MXC_TRNG_RevB_Random+0x64>
{
10011e2e:	e92d 41f0 	stmdb	sp!, {r4, r5, r6, r7, r8, lr}
        return E_NULL_PTR;
    }

    for (i = 0; (i + 3) < len; i += 4) {
10011e32:	2903      	cmp	r1, #3
{
10011e34:	b082      	sub	sp, #8
10011e36:	460e      	mov	r6, r1
10011e38:	4607      	mov	r7, r0
    for (i = 0; (i + 3) < len; i += 4) {
10011e3a:	d926      	bls.n	10011e8a <MXC_TRNG_RevB_Random+0x5e>
10011e3c:	f1a1 0804 	sub.w	r8, r1, #4
10011e40:	f028 0503 	bic.w	r5, r8, #3
10011e44:	4604      	mov	r4, r0
10011e46:	4405      	add	r5, r0
        temp = MXC_TRNG_RandomInt();
10011e48:	f7ff ffaa 	bl	10011da0 <MXC_TRNG_RandomInt>
    for (i = 0; (i + 3) < len; i += 4) {
10011e4c:	42ac      	cmp	r4, r5
        memcpy(&(data[i]), (uint8_t *)(&temp), 4);
10011e4e:	6020      	str	r0, [r4, #0]
        temp = MXC_TRNG_RandomInt();
10011e50:	9001      	str	r0, [sp, #4]
    for (i = 0; (i + 3) < len; i += 4) {
10011e52:	f104 0404 	add.w	r4, r4, #4
10011e56:	d1f7      	bne.n	10011e48 <MXC_TRNG_RevB_Random+0x1c>
10011e58:	f028 0803 	bic.w	r8, r8, #3
10011e5c:	f108 0804 	add.w	r8, r8, #4
    }

    if (len & 0x03) {
10011e60:	f016 0603 	ands.w	r6, r6, #3
10011e64:	d103      	bne.n	10011e6e <MXC_TRNG_RevB_Random+0x42>
        temp = MXC_TRNG_RandomInt();
        memcpy(&(data[i]), (uint8_t *)(&temp), len & 0x03);
    }

    return E_NO_ERROR;
10011e66:	2000      	movs	r0, #0
}
10011e68:	b002      	add	sp, #8
10011e6a:	e8bd 81f0 	ldmia.w	sp!, {r4, r5, r6, r7, r8, pc}
        temp = MXC_TRNG_RandomInt();
10011e6e:	f7ff ff97 	bl	10011da0 <MXC_TRNG_RandomInt>
        memcpy(&(data[i]), (uint8_t *)(&temp), len & 0x03);
10011e72:	4632      	mov	r2, r6
        temp = MXC_TRNG_RandomInt();
10011e74:	4603      	mov	r3, r0
        memcpy(&(data[i]), (uint8_t *)(&temp), len & 0x03);
10011e76:	a901      	add	r1, sp, #4
10011e78:	eb07 0008 	add.w	r0, r7, r8
        temp = MXC_TRNG_RandomInt();
10011e7c:	9301      	str	r3, [sp, #4]
        memcpy(&(data[i]), (uint8_t *)(&temp), len & 0x03);
10011e7e:	f004 f89f 	bl	10015fc0 <memcpy>
    return E_NO_ERROR;
10011e82:	2000      	movs	r0, #0
}
10011e84:	b002      	add	sp, #8
10011e86:	e8bd 81f0 	ldmia.w	sp!, {r4, r5, r6, r7, r8, pc}
    for (i = 0; (i + 3) < len; i += 4) {
10011e8a:	f04f 0800 	mov.w	r8, #0
10011e8e:	e7e7      	b.n	10011e60 <MXC_TRNG_RevB_Random+0x34>
        return E_NULL_PTR;
10011e90:	f04f 30ff 	mov.w	r0, #4294967295	@ 0xffffffff
}
10011e94:	4770      	bx	lr
10011e96:	bf00      	nop

10011e98 <MXC_UART_Shutdown>:

    return MXC_UART_RevB_Init((mxc_uart_revb_regs_t *)uart, baud, clock);
}

int MXC_UART_Shutdown(mxc_uart_regs_t *uart)
{
10011e98:	b508      	push	{r3, lr}
    switch (MXC_UART_GET_IDX(uart)) {
10011e9a:	4b16      	ldr	r3, [pc, #88]	@ (10011ef4 <MXC_UART_Shutdown+0x5c>)
10011e9c:	4298      	cmp	r0, r3
10011e9e:	d010      	beq.n	10011ec2 <MXC_UART_Shutdown+0x2a>
10011ea0:	4b15      	ldr	r3, [pc, #84]	@ (10011ef8 <MXC_UART_Shutdown+0x60>)
10011ea2:	4298      	cmp	r0, r3
10011ea4:	d014      	beq.n	10011ed0 <MXC_UART_Shutdown+0x38>
10011ea6:	4b15      	ldr	r3, [pc, #84]	@ (10011efc <MXC_UART_Shutdown+0x64>)
10011ea8:	4298      	cmp	r0, r3
10011eaa:	d018      	beq.n	10011ede <MXC_UART_Shutdown+0x46>
10011eac:	4b14      	ldr	r3, [pc, #80]	@ (10011f00 <MXC_UART_Shutdown+0x68>)
10011eae:	4298      	cmp	r0, r3
10011eb0:	d11c      	bne.n	10011eec <MXC_UART_Shutdown+0x54>
        MXC_SYS_Reset_Periph(MXC_SYS_RESET0_UART2);
        MXC_SYS_ClockDisable(MXC_SYS_PERIPH_CLOCK_UART2);
        break;

    case 3:
        MXC_SYS_Reset_Periph(MXC_SYS_RESET_UART3);
10011eb2:	2044      	movs	r0, #68	@ 0x44
10011eb4:	f7ff fae2 	bl	1001147c <MXC_SYS_Reset_Periph>
        MXC_SYS_ClockDisable(MXC_SYS_PERIPH_CLOCK_UART3);
10011eb8:	2044      	movs	r0, #68	@ 0x44
10011eba:	f7ff fa23 	bl	10011304 <MXC_SYS_ClockDisable>

    default:
        return E_BAD_PARAM;
    }

    return E_NO_ERROR;
10011ebe:	2000      	movs	r0, #0
}
10011ec0:	bd08      	pop	{r3, pc}
        MXC_SYS_Reset_Periph(MXC_SYS_RESET0_UART0);
10011ec2:	200b      	movs	r0, #11
10011ec4:	f7ff fada 	bl	1001147c <MXC_SYS_Reset_Periph>
        MXC_SYS_ClockDisable(MXC_SYS_PERIPH_CLOCK_UART0);
10011ec8:	2009      	movs	r0, #9
10011eca:	f7ff fa1b 	bl	10011304 <MXC_SYS_ClockDisable>
        break;
10011ece:	e7f6      	b.n	10011ebe <MXC_UART_Shutdown+0x26>
        MXC_SYS_Reset_Periph(MXC_SYS_RESET0_UART1);
10011ed0:	200c      	movs	r0, #12
10011ed2:	f7ff fad3 	bl	1001147c <MXC_SYS_Reset_Periph>
        MXC_SYS_ClockDisable(MXC_SYS_PERIPH_CLOCK_UART1);
10011ed6:	200a      	movs	r0, #10
10011ed8:	f7ff fa14 	bl	10011304 <MXC_SYS_ClockDisable>
        break;
10011edc:	e7ef      	b.n	10011ebe <MXC_UART_Shutdown+0x26>
        MXC_SYS_Reset_Periph(MXC_SYS_RESET0_UART2);
10011ede:	201c      	movs	r0, #28
10011ee0:	f7ff facc 	bl	1001147c <MXC_SYS_Reset_Periph>
        MXC_SYS_ClockDisable(MXC_SYS_PERIPH_CLOCK_UART2);
10011ee4:	2021      	movs	r0, #33	@ 0x21
10011ee6:	f7ff fa0d 	bl	10011304 <MXC_SYS_ClockDisable>
        break;
10011eea:	e7e8      	b.n	10011ebe <MXC_UART_Shutdown+0x26>
        return E_BAD_PARAM;
10011eec:	f06f 0002 	mvn.w	r0, #2
}
10011ef0:	bd08      	pop	{r3, pc}
10011ef2:	bf00      	nop
10011ef4:	40042000 	.word	0x40042000
10011ef8:	40043000 	.word	0x40043000
10011efc:	40044000 	.word	0x40044000
10011f00:	40081400 	.word	0x40081400

10011f04 <MXC_UART_Init>:
{
10011f04:	b570      	push	{r4, r5, r6, lr}
10011f06:	4604      	mov	r4, r0
10011f08:	460e      	mov	r6, r1
10011f0a:	4615      	mov	r5, r2
    retval = MXC_UART_Shutdown(uart);
10011f0c:	f7ff ffc4 	bl	10011e98 <MXC_UART_Shutdown>
    if (retval) {
10011f10:	bba8      	cbnz	r0, 10011f7e <MXC_UART_Init+0x7a>
    switch (clock) {
10011f12:	2d02      	cmp	r5, #2
10011f14:	d02d      	beq.n	10011f72 <MXC_UART_Init+0x6e>
10011f16:	2d04      	cmp	r5, #4
10011f18:	d018      	beq.n	10011f4c <MXC_UART_Init+0x48>
    switch (MXC_UART_GET_IDX(uart)) {
10011f1a:	4b20      	ldr	r3, [pc, #128]	@ (10011f9c <MXC_UART_Init+0x98>)
10011f1c:	429c      	cmp	r4, r3
10011f1e:	d01b      	beq.n	10011f58 <MXC_UART_Init+0x54>
10011f20:	4b1f      	ldr	r3, [pc, #124]	@ (10011fa0 <MXC_UART_Init+0x9c>)
10011f22:	429c      	cmp	r4, r3
10011f24:	d02c      	beq.n	10011f80 <MXC_UART_Init+0x7c>
10011f26:	4b1f      	ldr	r3, [pc, #124]	@ (10011fa4 <MXC_UART_Init+0xa0>)
10011f28:	429c      	cmp	r4, r3
10011f2a:	d030      	beq.n	10011f8e <MXC_UART_Init+0x8a>
10011f2c:	4b1e      	ldr	r3, [pc, #120]	@ (10011fa8 <MXC_UART_Init+0xa4>)
10011f2e:	429c      	cmp	r4, r3
10011f30:	d123      	bne.n	10011f7a <MXC_UART_Init+0x76>
        MXC_GPIO_Config(&gpio_cfg_uart3);
10011f32:	481e      	ldr	r0, [pc, #120]	@ (10011fac <MXC_UART_Init+0xa8>)
10011f34:	f7ff fae6 	bl	10011504 <MXC_GPIO_Config>
        MXC_SYS_ClockEnable(MXC_SYS_PERIPH_CLOCK_UART3);
10011f38:	2044      	movs	r0, #68	@ 0x44
10011f3a:	f7ff fa03 	bl	10011344 <MXC_SYS_ClockEnable>
    return MXC_UART_RevB_Init((mxc_uart_revb_regs_t *)uart, baud, clock);
10011f3e:	462a      	mov	r2, r5
10011f40:	4631      	mov	r1, r6
10011f42:	4620      	mov	r0, r4
}
10011f44:	e8bd 4070 	ldmia.w	sp!, {r4, r5, r6, lr}
    return MXC_UART_RevB_Init((mxc_uart_revb_regs_t *)uart, baud, clock);
10011f48:	f000 b8f8 	b.w	1001213c <MXC_UART_RevB_Init>
        MXC_SYS_ClockSourceEnable(MXC_SYS_CLOCK_ERTCO);
10011f4c:	2006      	movs	r0, #6
10011f4e:	f7ff fa1b 	bl	10011388 <MXC_SYS_ClockSourceEnable>
    switch (MXC_UART_GET_IDX(uart)) {
10011f52:	4b12      	ldr	r3, [pc, #72]	@ (10011f9c <MXC_UART_Init+0x98>)
10011f54:	429c      	cmp	r4, r3
10011f56:	d1e3      	bne.n	10011f20 <MXC_UART_Init+0x1c>
        MXC_GPIO_Config(&gpio_cfg_uart0);
10011f58:	4815      	ldr	r0, [pc, #84]	@ (10011fb0 <MXC_UART_Init+0xac>)
10011f5a:	f7ff fad3 	bl	10011504 <MXC_GPIO_Config>
        MXC_SYS_ClockEnable(MXC_SYS_PERIPH_CLOCK_UART0);
10011f5e:	2009      	movs	r0, #9
10011f60:	f7ff f9f0 	bl	10011344 <MXC_SYS_ClockEnable>
    return MXC_UART_RevB_Init((mxc_uart_revb_regs_t *)uart, baud, clock);
10011f64:	462a      	mov	r2, r5
10011f66:	4631      	mov	r1, r6
10011f68:	4620      	mov	r0, r4
}
10011f6a:	e8bd 4070 	ldmia.w	sp!, {r4, r5, r6, lr}
    return MXC_UART_RevB_Init((mxc_uart_revb_regs_t *)uart, baud, clock);
10011f6e:	f000 b8e5 	b.w	1001213c <MXC_UART_RevB_Init>
        MXC_SYS_ClockSourceEnable(MXC_SYS_CLOCK_IBRO);
10011f72:	2005      	movs	r0, #5
10011f74:	f7ff fa08 	bl	10011388 <MXC_SYS_ClockSourceEnable>
        break;
10011f78:	e7cf      	b.n	10011f1a <MXC_UART_Init+0x16>
        return E_BAD_PARAM;
10011f7a:	f06f 0002 	mvn.w	r0, #2
}
10011f7e:	bd70      	pop	{r4, r5, r6, pc}
        MXC_GPIO_Config(&gpio_cfg_uart1);
10011f80:	480c      	ldr	r0, [pc, #48]	@ (10011fb4 <MXC_UART_Init+0xb0>)
10011f82:	f7ff fabf 	bl	10011504 <MXC_GPIO_Config>
        MXC_SYS_ClockEnable(MXC_SYS_PERIPH_CLOCK_UART1);
10011f86:	200a      	movs	r0, #10
10011f88:	f7ff f9dc 	bl	10011344 <MXC_SYS_ClockEnable>
        break;
10011f8c:	e7d7      	b.n	10011f3e <MXC_UART_Init+0x3a>
        MXC_GPIO_Config(&gpio_cfg_uart2);
10011f8e:	480a      	ldr	r0, [pc, #40]	@ (10011fb8 <MXC_UART_Init+0xb4>)
10011f90:	f7ff fab8 	bl	10011504 <MXC_GPIO_Config>
        MXC_SYS_ClockEnable(MXC_SYS_PERIPH_CLOCK_UART2);
10011f94:	2021      	movs	r0, #33	@ 0x21
10011f96:	f7ff f9d5 	bl	10011344 <MXC_SYS_ClockEnable>
        break;
10011f9a:	e7d0      	b.n	10011f3e <MXC_UART_Init+0x3a>
10011f9c:	40042000 	.word	0x40042000
10011fa0:	40043000 	.word	0x40043000
10011fa4:	40044000 	.word	0x40044000
10011fa8:	40081400 	.word	0x40081400
10011fac:	1001d840 	.word	0x1001d840
10011fb0:	1001d864 	.word	0x1001d864
10011fb4:	1001d858 	.word	0x1001d858
10011fb8:	1001d84c 	.word	0x1001d84c

10011fbc <MXC_UART_SetFrequency>:
}

int MXC_UART_SetFrequency(mxc_uart_regs_t *uart, unsigned int baud, mxc_uart_clock_t clock)
{
    int frequency, clkDiv = 0, mod = 0;
    if (MXC_UART_GET_IDX(uart) < 0) {
10011fbc:	4b31      	ldr	r3, [pc, #196]	@ (10012084 <MXC_UART_SetFrequency+0xc8>)
10011fbe:	4298      	cmp	r0, r3
{
10011fc0:	b510      	push	{r4, lr}
10011fc2:	4604      	mov	r4, r0
    if (MXC_UART_GET_IDX(uart) < 0) {
10011fc4:	d015      	beq.n	10011ff2 <MXC_UART_SetFrequency+0x36>
10011fc6:	f503 5380 	add.w	r3, r3, #4096	@ 0x1000
10011fca:	4298      	cmp	r0, r3
10011fcc:	d011      	beq.n	10011ff2 <MXC_UART_SetFrequency+0x36>
10011fce:	f503 5380 	add.w	r3, r3, #4096	@ 0x1000
10011fd2:	4298      	cmp	r0, r3
10011fd4:	d00d      	beq.n	10011ff2 <MXC_UART_SetFrequency+0x36>
10011fd6:	f503 3375 	add.w	r3, r3, #250880	@ 0x3d400
10011fda:	4298      	cmp	r0, r3
10011fdc:	d106      	bne.n	10011fec <MXC_UART_SetFrequency+0x30>
    }

    // check if the uart is LPUART
    if (uart == MXC_UART3) {
        // OSR default value
        uart->osr = 5;
10011fde:	2305      	movs	r3, #5

        switch (clock) {
10011fe0:	2a02      	cmp	r2, #2
        uart->osr = 5;
10011fe2:	6143      	str	r3, [r0, #20]
        switch (clock) {
10011fe4:	d014      	beq.n	10012010 <MXC_UART_SetFrequency+0x54>
10011fe6:	2a04      	cmp	r2, #4
10011fe8:	d032      	beq.n	10012050 <MXC_UART_SetFrequency+0x94>
10011fea:	b18a      	cbz	r2, 10012010 <MXC_UART_SetFrequency+0x54>
        return E_BAD_PARAM;
10011fec:	f06f 0002 	mvn.w	r0, #2
        uart->ctrl |= MXC_F_UART_CTRL_BCLKEN;
        while (((uart->ctrl & MXC_F_UART_CTRL_BCLKRDY) >> MXC_F_UART_CTRL_BCLKRDY_POS) == 0) {}
    }

    return frequency;
}
10011ff0:	bd10      	pop	{r4, pc}
        if (clock == MXC_UART_ERTCO_CLK) {
10011ff2:	2a04      	cmp	r2, #4
10011ff4:	d0fa      	beq.n	10011fec <MXC_UART_SetFrequency+0x30>
        frequency = MXC_UART_RevB_SetFrequency((mxc_uart_revb_regs_t *)uart, baud, clock);
10011ff6:	4620      	mov	r0, r4
10011ff8:	f000 f8d8 	bl	100121ac <MXC_UART_RevB_SetFrequency>
    if (frequency > 0) {
10011ffc:	2800      	cmp	r0, #0
10011ffe:	ddf7      	ble.n	10011ff0 <MXC_UART_SetFrequency+0x34>
        uart->ctrl |= MXC_F_UART_CTRL_BCLKEN;
10012000:	6823      	ldr	r3, [r4, #0]
10012002:	f443 4300 	orr.w	r3, r3, #32768	@ 0x8000
10012006:	6023      	str	r3, [r4, #0]
        while (((uart->ctrl & MXC_F_UART_CTRL_BCLKRDY) >> MXC_F_UART_CTRL_BCLKRDY_POS) == 0) {}
10012008:	6823      	ldr	r3, [r4, #0]
1001200a:	031b      	lsls	r3, r3, #12
1001200c:	d5fc      	bpl.n	10012008 <MXC_UART_SetFrequency+0x4c>
}
1001200e:	bd10      	pop	{r4, pc}
            clkDiv = ((IBRO_FREQ) / baud);
10012010:	f44f 03e1 	mov.w	r3, #7372800	@ 0x708000
10012014:	fbb3 f3f1 	udiv	r3, r3, r1
            mod = ((IBRO_FREQ) % baud);
10012018:	fb01 f203 	mul.w	r2, r1, r3
1001201c:	f5c2 02e1 	rsb	r2, r2, #7372800	@ 0x708000
        if (!clkDiv || mod > (baud / 2)) {
10012020:	b113      	cbz	r3, 10012028 <MXC_UART_SetFrequency+0x6c>
10012022:	ebb2 0f51 	cmp.w	r2, r1, lsr #1
10012026:	d900      	bls.n	1001202a <MXC_UART_SetFrequency+0x6e>
            clkDiv++;
10012028:	3301      	adds	r3, #1
        uart->clkdiv = clkDiv;
1001202a:	4a17      	ldr	r2, [pc, #92]	@ (10012088 <MXC_UART_SetFrequency+0xcc>)
1001202c:	6113      	str	r3, [r2, #16]
        return E_BAD_PARAM;
    }

    // check if UARt is LP UART
    if (uart == MXC_UART3) {
        if ((uart->ctrl & MXC_F_UART_CTRL_BCLKSRC) == MXC_S_UART_CTRL_BCLKSRC_EXTERNAL_CLOCK) {
1001202e:	6810      	ldr	r0, [r2, #0]
10012030:	f400 3040 	and.w	r0, r0, #196608	@ 0x30000
10012034:	f5b0 3f80 	cmp.w	r0, #65536	@ 0x10000
10012038:	d005      	beq.n	10012046 <MXC_UART_SetFrequency+0x8a>
            periphClock = ERTCO_FREQ * 2;
        } else if ((uart->ctrl & MXC_F_UART_CTRL_BCLKSRC) ==
1001203a:	6813      	ldr	r3, [r2, #0]
1001203c:	f413 3f40 	tst.w	r3, #196608	@ 0x30000
10012040:	d1d4      	bne.n	10011fec <MXC_UART_SetFrequency+0x30>
10012042:	f44f 00e1 	mov.w	r0, #7372800	@ 0x708000
                   MXC_S_UART_CTRL_BCLKSRC_PERIPHERAL_CLOCK) {
            periphClock = IBRO_FREQ;
        } else {
            return E_BAD_PARAM;
        }
        return (periphClock / uart->clkdiv);
10012046:	4b10      	ldr	r3, [pc, #64]	@ (10012088 <MXC_UART_SetFrequency+0xcc>)
10012048:	691b      	ldr	r3, [r3, #16]
1001204a:	fbb0 f0f3 	udiv	r0, r0, r3
1001204e:	e7d5      	b.n	10011ffc <MXC_UART_SetFrequency+0x40>
            uart->ctrl |= MXC_S_UART_CTRL_BCLKSRC_EXTERNAL_CLOCK;
10012050:	6803      	ldr	r3, [r0, #0]
10012052:	f443 3380 	orr.w	r3, r3, #65536	@ 0x10000
10012056:	6003      	str	r3, [r0, #0]
            uart->ctrl |= MXC_F_UART_CTRL_FDM;
10012058:	6803      	ldr	r3, [r0, #0]
            if (baud > 2400) {
1001205a:	f5b1 6f16 	cmp.w	r1, #2400	@ 0x960
            uart->ctrl |= MXC_F_UART_CTRL_FDM;
1001205e:	f443 1300 	orr.w	r3, r3, #2097152	@ 0x200000
10012062:	6003      	str	r3, [r0, #0]
            if (baud > 2400) {
10012064:	d90a      	bls.n	1001207c <MXC_UART_SetFrequency+0xc0>
                uart->osr = 0;
10012066:	2300      	movs	r3, #0
10012068:	6143      	str	r3, [r0, #20]
            clkDiv = ((ERTCO_FREQ * 2) / baud);
1001206a:	f44f 3380 	mov.w	r3, #65536	@ 0x10000
1001206e:	fbb3 f3f1 	udiv	r3, r3, r1
            mod = ((ERTCO_FREQ * 2) % baud);
10012072:	fb01 f203 	mul.w	r2, r1, r3
10012076:	f5c2 3280 	rsb	r2, r2, #65536	@ 0x10000
1001207a:	e7d1      	b.n	10012020 <MXC_UART_SetFrequency+0x64>
                uart->osr = 1;
1001207c:	2301      	movs	r3, #1
1001207e:	6143      	str	r3, [r0, #20]
10012080:	e7f3      	b.n	1001206a <MXC_UART_SetFrequency+0xae>
10012082:	bf00      	nop
10012084:	40042000 	.word	0x40042000
10012088:	40081400 	.word	0x40081400

1001208c <MXC_UART_GetFrequency>:
    if (MXC_UART_GET_IDX(uart) < 0) {
1001208c:	4b12      	ldr	r3, [pc, #72]	@ (100120d8 <MXC_UART_GetFrequency+0x4c>)
1001208e:	4298      	cmp	r0, r3
10012090:	d01c      	beq.n	100120cc <MXC_UART_GetFrequency+0x40>
10012092:	f503 5380 	add.w	r3, r3, #4096	@ 0x1000
10012096:	4298      	cmp	r0, r3
10012098:	d018      	beq.n	100120cc <MXC_UART_GetFrequency+0x40>
1001209a:	f503 5380 	add.w	r3, r3, #4096	@ 0x1000
1001209e:	4298      	cmp	r0, r3
100120a0:	d014      	beq.n	100120cc <MXC_UART_GetFrequency+0x40>
100120a2:	f503 3375 	add.w	r3, r3, #250880	@ 0x3d400
100120a6:	4298      	cmp	r0, r3
100120a8:	d112      	bne.n	100120d0 <MXC_UART_GetFrequency+0x44>
        if ((uart->ctrl & MXC_F_UART_CTRL_BCLKSRC) == MXC_S_UART_CTRL_BCLKSRC_EXTERNAL_CLOCK) {
100120aa:	6803      	ldr	r3, [r0, #0]
100120ac:	f403 3340 	and.w	r3, r3, #196608	@ 0x30000
100120b0:	f5b3 3f80 	cmp.w	r3, #65536	@ 0x10000
100120b4:	d005      	beq.n	100120c2 <MXC_UART_GetFrequency+0x36>
        } else if ((uart->ctrl & MXC_F_UART_CTRL_BCLKSRC) ==
100120b6:	6803      	ldr	r3, [r0, #0]
100120b8:	f413 3f40 	tst.w	r3, #196608	@ 0x30000
100120bc:	d108      	bne.n	100120d0 <MXC_UART_GetFrequency+0x44>
100120be:	f44f 03e1 	mov.w	r3, #7372800	@ 0x708000
        return (periphClock / uart->clkdiv);
100120c2:	4a06      	ldr	r2, [pc, #24]	@ (100120dc <MXC_UART_GetFrequency+0x50>)
100120c4:	6910      	ldr	r0, [r2, #16]
100120c6:	fbb3 f0f0 	udiv	r0, r3, r0
100120ca:	4770      	bx	lr
    } else {
        return MXC_UART_RevB_GetFrequency((mxc_uart_revb_regs_t *)uart);
100120cc:	f000 b8ba 	b.w	10012244 <MXC_UART_RevB_GetFrequency>
        return E_BAD_PARAM;
100120d0:	f06f 0002 	mvn.w	r0, #2
    }
}
100120d4:	4770      	bx	lr
100120d6:	bf00      	nop
100120d8:	40042000 	.word	0x40042000
100120dc:	40081400 	.word	0x40081400

100120e0 <MXC_UART_SetDataSize>:

int MXC_UART_SetDataSize(mxc_uart_regs_t *uart, int dataSize)
{
    return MXC_UART_RevB_SetDataSize((mxc_uart_revb_regs_t *)uart, dataSize);
100120e0:	f000 b8f0 	b.w	100122c4 <MXC_UART_RevB_SetDataSize>

100120e4 <MXC_UART_SetStopBits>:
}

int MXC_UART_SetStopBits(mxc_uart_regs_t *uart, mxc_uart_stop_t stopBits)
{
    return MXC_UART_RevB_SetStopBits((mxc_uart_revb_regs_t *)uart, stopBits);
100120e4:	f000 b90e 	b.w	10012304 <MXC_UART_RevB_SetStopBits>

100120e8 <MXC_UART_SetParity>:
}

int MXC_UART_SetParity(mxc_uart_regs_t *uart, mxc_uart_parity_t parity)
{
    return MXC_UART_RevB_SetParity((mxc_uart_revb_regs_t *)uart, parity);
100120e8:	f000 b930 	b.w	1001234c <MXC_UART_RevB_SetParity>

100120ec <MXC_UART_ReadCharacterRaw>:
    return MXC_UART_RevB_AbortTransmission((mxc_uart_revb_regs_t *)uart);
}

int MXC_UART_ReadCharacterRaw(mxc_uart_regs_t *uart)
{
    return MXC_UART_RevB_ReadCharacterRaw((mxc_uart_revb_regs_t *)uart);
100120ec:	f000 b984 	b.w	100123f8 <MXC_UART_RevB_ReadCharacterRaw>

100120f0 <MXC_UART_WriteCharacterRaw>:
}

int MXC_UART_WriteCharacterRaw(mxc_uart_regs_t *uart, uint8_t character)
{
    return MXC_UART_RevB_WriteCharacterRaw((mxc_uart_revb_regs_t *)uart, character);
100120f0:	f000 b99e 	b.w	10012430 <MXC_UART_RevB_WriteCharacterRaw>

100120f4 <MXC_UART_ReadCharacter>:
}

int MXC_UART_ReadCharacter(mxc_uart_regs_t *uart)
{
    return MXC_UART_Common_ReadCharacter(uart);
100120f4:	f000 b808 	b.w	10012108 <MXC_UART_Common_ReadCharacter>

100120f8 <MXC_UART_WriteCharacter>:
}

int MXC_UART_WriteCharacter(mxc_uart_regs_t *uart, uint8_t character)
{
    return MXC_UART_Common_WriteCharacter(uart, character);
100120f8:	f000 b812 	b.w	10012120 <MXC_UART_Common_WriteCharacter>

100120fc <MXC_UART_GetRXFIFOAvailable>:
    return MXC_UART_RevB_ReadRXFIFODMA((mxc_uart_revb_regs_t *)uart, bytes, len, callback, config);
}

unsigned int MXC_UART_GetRXFIFOAvailable(mxc_uart_regs_t *uart)
{
    return MXC_UART_RevB_GetRXFIFOAvailable((mxc_uart_revb_regs_t *)uart);
100120fc:	f000 b9b6 	b.w	1001246c <MXC_UART_RevB_GetRXFIFOAvailable>

10012100 <MXC_UART_GetTXFIFOAvailable>:
    return MXC_UART_RevB_WriteTXFIFODMA((mxc_uart_revb_regs_t *)uart, bytes, len, callback, config);
}

unsigned int MXC_UART_GetTXFIFOAvailable(mxc_uart_regs_t *uart)
{
    return MXC_UART_RevB_GetTXFIFOAvailable((mxc_uart_revb_regs_t *)uart);
10012100:	f000 b9b8 	b.w	10012474 <MXC_UART_RevB_GetTXFIFOAvailable>

10012104 <MXC_UART_SetRXThreshold>:
    return MXC_UART_RevB_ClearTXFIFO((mxc_uart_revb_regs_t *)uart);
}

int MXC_UART_SetRXThreshold(mxc_uart_regs_t *uart, unsigned int numBytes)
{
    return MXC_UART_RevB_SetRXThreshold((mxc_uart_revb_regs_t *)uart, numBytes);
10012104:	f000 b9bc 	b.w	10012480 <MXC_UART_RevB_SetRXThreshold>

10012108 <MXC_UART_Common_ReadCharacter>:

#include "uart_common.h"
#include "uart.h"

int MXC_UART_Common_ReadCharacter(mxc_uart_regs_t *uart)
{
10012108:	b510      	push	{r4, lr}
1001210a:	4604      	mov	r4, r0
    // Wait until FIFO has a character ready.
    while (MXC_UART_GetRXFIFOAvailable(uart) < 1) {}
1001210c:	4620      	mov	r0, r4
1001210e:	f7ff fff5 	bl	100120fc <MXC_UART_GetRXFIFOAvailable>
10012112:	2800      	cmp	r0, #0
10012114:	d0fa      	beq.n	1001210c <MXC_UART_Common_ReadCharacter+0x4>

    // Read the character using the non-blocking function.
    return MXC_UART_ReadCharacterRaw(uart);
10012116:	4620      	mov	r0, r4
}
10012118:	e8bd 4010 	ldmia.w	sp!, {r4, lr}
    return MXC_UART_ReadCharacterRaw(uart);
1001211c:	f7ff bfe6 	b.w	100120ec <MXC_UART_ReadCharacterRaw>

10012120 <MXC_UART_Common_WriteCharacter>:

int MXC_UART_Common_WriteCharacter(mxc_uart_regs_t *uart, uint8_t character)
{
10012120:	b538      	push	{r3, r4, r5, lr}
10012122:	4604      	mov	r4, r0
10012124:	460d      	mov	r5, r1
    // Wait until FIFO has space for the character.
    while (MXC_UART_GetTXFIFOAvailable(uart) < 1) {}
10012126:	4620      	mov	r0, r4
10012128:	f7ff ffea 	bl	10012100 <MXC_UART_GetTXFIFOAvailable>
1001212c:	2800      	cmp	r0, #0
1001212e:	d0fa      	beq.n	10012126 <MXC_UART_Common_WriteCharacter+0x6>

    // Write the character using the non-blocking function.
    return MXC_UART_WriteCharacterRaw(uart, character);
10012130:	4629      	mov	r1, r5
10012132:	4620      	mov	r0, r4
}
10012134:	e8bd 4038 	ldmia.w	sp!, {r3, r4, r5, lr}
    return MXC_UART_WriteCharacterRaw(uart, character);
10012138:	f7ff bfda 	b.w	100120f0 <MXC_UART_WriteCharacterRaw>

1001213c <MXC_UART_RevB_Init>:
/* ************************************************************************* */
int MXC_UART_RevB_Init(mxc_uart_revb_regs_t *uart, unsigned int baud, mxc_uart_revb_clock_t clock)
{
    int err;

    if (MXC_UART_GET_IDX((mxc_uart_regs_t *)uart) < 0) {
1001213c:	4b1a      	ldr	r3, [pc, #104]	@ (100121a8 <MXC_UART_RevB_Init+0x6c>)
1001213e:	4298      	cmp	r0, r3
{
10012140:	b570      	push	{r4, r5, r6, lr}
10012142:	4604      	mov	r4, r0
10012144:	460d      	mov	r5, r1
10012146:	4616      	mov	r6, r2
    if (MXC_UART_GET_IDX((mxc_uart_regs_t *)uart) < 0) {
10012148:	d00b      	beq.n	10012162 <MXC_UART_RevB_Init+0x26>
1001214a:	f503 5380 	add.w	r3, r3, #4096	@ 0x1000
1001214e:	4298      	cmp	r0, r3
10012150:	d007      	beq.n	10012162 <MXC_UART_RevB_Init+0x26>
10012152:	f503 5380 	add.w	r3, r3, #4096	@ 0x1000
10012156:	4298      	cmp	r0, r3
10012158:	d003      	beq.n	10012162 <MXC_UART_RevB_Init+0x26>
1001215a:	f503 3375 	add.w	r3, r3, #250880	@ 0x3d400
1001215e:	4298      	cmp	r0, r3
10012160:	d11f      	bne.n	100121a2 <MXC_UART_RevB_Init+0x66>
        return E_BAD_PARAM;
    }

    // Initialize UART
    if ((err = MXC_UART_SetRXThreshold((mxc_uart_regs_t *)uart, 1)) !=
10012162:	2101      	movs	r1, #1
10012164:	4620      	mov	r0, r4
10012166:	f7ff ffcd 	bl	10012104 <MXC_UART_SetRXThreshold>
1001216a:	b100      	cbz	r0, 1001216e <MXC_UART_RevB_Init+0x32>
        E_NO_ERROR) {
        return err;
    }

    return E_NO_ERROR;
}
1001216c:	bd70      	pop	{r4, r5, r6, pc}
    if ((err = MXC_UART_SetDataSize((mxc_uart_regs_t *)uart, 8)) !=
1001216e:	2108      	movs	r1, #8
10012170:	4620      	mov	r0, r4
10012172:	f7ff ffb5 	bl	100120e0 <MXC_UART_SetDataSize>
10012176:	2800      	cmp	r0, #0
10012178:	d1f8      	bne.n	1001216c <MXC_UART_RevB_Init+0x30>
    if ((err = MXC_UART_SetParity((mxc_uart_regs_t *)uart, MXC_UART_PARITY_DISABLE)) !=
1001217a:	4601      	mov	r1, r0
1001217c:	4620      	mov	r0, r4
1001217e:	f7ff ffb3 	bl	100120e8 <MXC_UART_SetParity>
10012182:	2800      	cmp	r0, #0
10012184:	d1f2      	bne.n	1001216c <MXC_UART_RevB_Init+0x30>
    if ((err = MXC_UART_SetStopBits((mxc_uart_regs_t *)uart, MXC_UART_STOP_1)) != E_NO_ERROR) {
10012186:	4601      	mov	r1, r0
10012188:	4620      	mov	r0, r4
1001218a:	f7ff ffab 	bl	100120e4 <MXC_UART_SetStopBits>
1001218e:	2800      	cmp	r0, #0
10012190:	d1ec      	bne.n	1001216c <MXC_UART_RevB_Init+0x30>
    if ((err = MXC_UART_SetFrequency((mxc_uart_regs_t *)uart, baud, (mxc_uart_clock_t)clock)) <
10012192:	4632      	mov	r2, r6
10012194:	4629      	mov	r1, r5
10012196:	4620      	mov	r0, r4
10012198:	f7ff ff10 	bl	10011fbc <MXC_UART_SetFrequency>
1001219c:	ea00 70e0 	and.w	r0, r0, r0, asr #31
}
100121a0:	bd70      	pop	{r4, r5, r6, pc}
        return E_BAD_PARAM;
100121a2:	f06f 0002 	mvn.w	r0, #2
}
100121a6:	bd70      	pop	{r4, r5, r6, pc}
100121a8:	40042000 	.word	0x40042000

100121ac <MXC_UART_RevB_SetFrequency>:

int MXC_UART_RevB_SetFrequency(mxc_uart_revb_regs_t *uart, unsigned int baud,
                               mxc_uart_revb_clock_t clock)
{
    unsigned clkDiv = 0, mod = 0;
    if (MXC_UART_GET_IDX((mxc_uart_regs_t *)uart) < 0) {
100121ac:	4b22      	ldr	r3, [pc, #136]	@ (10012238 <MXC_UART_RevB_SetFrequency+0x8c>)
100121ae:	4298      	cmp	r0, r3
100121b0:	d00b      	beq.n	100121ca <MXC_UART_RevB_SetFrequency+0x1e>
100121b2:	f503 5380 	add.w	r3, r3, #4096	@ 0x1000
100121b6:	4298      	cmp	r0, r3
100121b8:	d007      	beq.n	100121ca <MXC_UART_RevB_SetFrequency+0x1e>
100121ba:	f503 5380 	add.w	r3, r3, #4096	@ 0x1000
100121be:	4298      	cmp	r0, r3
100121c0:	d003      	beq.n	100121ca <MXC_UART_RevB_SetFrequency+0x1e>
100121c2:	f503 3375 	add.w	r3, r3, #250880	@ 0x3d400
100121c6:	4298      	cmp	r0, r3
100121c8:	d132      	bne.n	10012230 <MXC_UART_RevB_SetFrequency+0x84>
        return E_BAD_PARAM;
    }

    // OSR default value
    uart->osr = 5;
100121ca:	2305      	movs	r3, #5

    switch (clock) {
100121cc:	2a01      	cmp	r2, #1
{
100121ce:	b410      	push	{r4}
    uart->osr = 5;
100121d0:	6143      	str	r3, [r0, #20]
    switch (clock) {
100121d2:	d023      	beq.n	1001221c <MXC_UART_RevB_SetFrequency+0x70>
100121d4:	2a02      	cmp	r2, #2
100121d6:	d014      	beq.n	10012202 <MXC_UART_RevB_SetFrequency+0x56>
100121d8:	b11a      	cbz	r2, 100121e2 <MXC_UART_RevB_SetFrequency+0x36>
    if (!clkDiv || mod > (baud / 2)) {
        clkDiv++;
    }
    uart->clkdiv = clkDiv;
    return MXC_UART_GetFrequency((mxc_uart_regs_t *)uart);
}
100121da:	f06f 0002 	mvn.w	r0, #2
100121de:	bc10      	pop	{r4}
100121e0:	4770      	bx	lr
        clkDiv = (PeripheralClock / baud);
100121e2:	4b16      	ldr	r3, [pc, #88]	@ (1001223c <MXC_UART_RevB_SetFrequency+0x90>)
100121e4:	681a      	ldr	r2, [r3, #0]
100121e6:	0852      	lsrs	r2, r2, #1
100121e8:	fbb2 f3f1 	udiv	r3, r2, r1
        mod = (PeripheralClock % baud);
100121ec:	fb01 2213 	mls	r2, r1, r3, r2
    if (!clkDiv || mod > (baud / 2)) {
100121f0:	b113      	cbz	r3, 100121f8 <MXC_UART_RevB_SetFrequency+0x4c>
100121f2:	ebb2 0f51 	cmp.w	r2, r1, lsr #1
100121f6:	d900      	bls.n	100121fa <MXC_UART_RevB_SetFrequency+0x4e>
        clkDiv++;
100121f8:	3301      	adds	r3, #1
}
100121fa:	bc10      	pop	{r4}
    uart->clkdiv = clkDiv;
100121fc:	6103      	str	r3, [r0, #16]
    return MXC_UART_GetFrequency((mxc_uart_regs_t *)uart);
100121fe:	f7ff bf45 	b.w	1001208c <MXC_UART_GetFrequency>
        uart->ctrl |= MXC_S_UART_REVB_CTRL_BCLKSRC_CLK2;
10012202:	6804      	ldr	r4, [r0, #0]
        clkDiv = (IBRO_FREQ / baud);
10012204:	f44f 03e1 	mov.w	r3, #7372800	@ 0x708000
        uart->ctrl |= MXC_S_UART_REVB_CTRL_BCLKSRC_CLK2;
10012208:	f444 3400 	orr.w	r4, r4, #131072	@ 0x20000
        clkDiv = (IBRO_FREQ / baud);
1001220c:	fbb3 f3f1 	udiv	r3, r3, r1
        mod = (IBRO_FREQ % baud);
10012210:	fb01 f203 	mul.w	r2, r1, r3
10012214:	f5c2 02e1 	rsb	r2, r2, #7372800	@ 0x708000
        uart->ctrl |= MXC_S_UART_REVB_CTRL_BCLKSRC_CLK2;
10012218:	6004      	str	r4, [r0, #0]
        break;
1001221a:	e7e9      	b.n	100121f0 <MXC_UART_RevB_SetFrequency+0x44>
        uart->ctrl |= MXC_S_UART_REVB_CTRL_BCLKSRC_EXTERNAL_CLOCK;
1001221c:	6804      	ldr	r4, [r0, #0]
        clkDiv = UART_EXTCLK_FREQ / baud;
1001221e:	4a08      	ldr	r2, [pc, #32]	@ (10012240 <MXC_UART_RevB_SetFrequency+0x94>)
10012220:	fbb2 f3f1 	udiv	r3, r2, r1
        uart->ctrl |= MXC_S_UART_REVB_CTRL_BCLKSRC_EXTERNAL_CLOCK;
10012224:	f444 3480 	orr.w	r4, r4, #65536	@ 0x10000
10012228:	6004      	str	r4, [r0, #0]
        mod = UART_EXTCLK_FREQ % baud;
1001222a:	fb01 2213 	mls	r2, r1, r3, r2
        break;
1001222e:	e7df      	b.n	100121f0 <MXC_UART_RevB_SetFrequency+0x44>
}
10012230:	f06f 0002 	mvn.w	r0, #2
10012234:	4770      	bx	lr
10012236:	bf00      	nop
10012238:	40042000 	.word	0x40042000
1001223c:	20001950 	.word	0x20001950
10012240:	047868c0 	.word	0x047868c0

10012244 <MXC_UART_RevB_GetFrequency>:

int MXC_UART_RevB_GetFrequency(mxc_uart_revb_regs_t *uart)
{
    int periphClock = 0;

    if (MXC_UART_GET_IDX((mxc_uart_regs_t *)uart) < 0) {
10012244:	4b1c      	ldr	r3, [pc, #112]	@ (100122b8 <MXC_UART_RevB_GetFrequency+0x74>)
10012246:	4298      	cmp	r0, r3
10012248:	d00b      	beq.n	10012262 <MXC_UART_RevB_GetFrequency+0x1e>
1001224a:	f503 5380 	add.w	r3, r3, #4096	@ 0x1000
1001224e:	4298      	cmp	r0, r3
10012250:	d007      	beq.n	10012262 <MXC_UART_RevB_GetFrequency+0x1e>
10012252:	f503 5380 	add.w	r3, r3, #4096	@ 0x1000
10012256:	4298      	cmp	r0, r3
10012258:	d003      	beq.n	10012262 <MXC_UART_RevB_GetFrequency+0x1e>
1001225a:	f503 3375 	add.w	r3, r3, #250880	@ 0x3d400
1001225e:	4298      	cmp	r0, r3
10012260:	d122      	bne.n	100122a8 <MXC_UART_RevB_GetFrequency+0x64>
        return E_BAD_PARAM;
    }

    if ((uart->ctrl & MXC_F_UART_REVB_CTRL_BCLKSRC) ==
10012262:	6803      	ldr	r3, [r0, #0]
10012264:	f403 3340 	and.w	r3, r3, #196608	@ 0x30000
10012268:	f5b3 3f80 	cmp.w	r3, #65536	@ 0x10000
1001226c:	d017      	beq.n	1001229e <MXC_UART_RevB_GetFrequency+0x5a>
        MXC_S_UART_REVB_CTRL_BCLKSRC_EXTERNAL_CLOCK) {
        periphClock = UART_EXTCLK_FREQ;
    } else if ((uart->ctrl & MXC_F_UART_REVB_CTRL_BCLKSRC) ==
1001226e:	6803      	ldr	r3, [r0, #0]
10012270:	f413 3f40 	tst.w	r3, #196608	@ 0x30000
10012274:	d00c      	beq.n	10012290 <MXC_UART_RevB_GetFrequency+0x4c>
               MXC_S_UART_REVB_CTRL_BCLKSRC_PERIPHERAL_CLOCK) {
        periphClock = PeripheralClock;
    } else if ((uart->ctrl & MXC_F_UART_REVB_CTRL_BCLKSRC) == MXC_S_UART_REVB_CTRL_BCLKSRC_CLK2) {
10012276:	6803      	ldr	r3, [r0, #0]
10012278:	f403 3340 	and.w	r3, r3, #196608	@ 0x30000
1001227c:	f5b3 3f00 	cmp.w	r3, #131072	@ 0x20000
10012280:	bf08      	it	eq
10012282:	f44f 03e1 	moveq.w	r3, #7372800	@ 0x708000
10012286:	d112      	bne.n	100122ae <MXC_UART_RevB_GetFrequency+0x6a>
#endif
    } else {
        return E_BAD_PARAM;
    }

    return (periphClock / uart->clkdiv);
10012288:	6900      	ldr	r0, [r0, #16]
1001228a:	fbb3 f0f0 	udiv	r0, r3, r0
1001228e:	4770      	bx	lr
        periphClock = PeripheralClock;
10012290:	4b0a      	ldr	r3, [pc, #40]	@ (100122bc <MXC_UART_RevB_GetFrequency+0x78>)
    return (periphClock / uart->clkdiv);
10012292:	6900      	ldr	r0, [r0, #16]
        periphClock = PeripheralClock;
10012294:	681b      	ldr	r3, [r3, #0]
10012296:	085b      	lsrs	r3, r3, #1
    return (periphClock / uart->clkdiv);
10012298:	fbb3 f0f0 	udiv	r0, r3, r0
1001229c:	4770      	bx	lr
1001229e:	4b08      	ldr	r3, [pc, #32]	@ (100122c0 <MXC_UART_RevB_GetFrequency+0x7c>)
100122a0:	6900      	ldr	r0, [r0, #16]
100122a2:	fbb3 f0f0 	udiv	r0, r3, r0
100122a6:	4770      	bx	lr
        return E_BAD_PARAM;
100122a8:	f06f 0002 	mvn.w	r0, #2
}
100122ac:	4770      	bx	lr
    } else if ((uart->ctrl & MXC_F_UART_REVB_CTRL_BCLKSRC) == MXC_S_UART_REVB_CTRL_BCLKSRC_CLK3) {
100122ae:	6803      	ldr	r3, [r0, #0]
        return E_BAD_PARAM;
100122b0:	f06f 0002 	mvn.w	r0, #2
        return E_BAD_PARAM;
100122b4:	4770      	bx	lr
100122b6:	bf00      	nop
100122b8:	40042000 	.word	0x40042000
100122bc:	20001950 	.word	0x20001950
100122c0:	047868c0 	.word	0x047868c0

100122c4 <MXC_UART_RevB_SetDataSize>:

int MXC_UART_RevB_SetDataSize(mxc_uart_revb_regs_t *uart, int dataSize)
{
    if (MXC_UART_GET_IDX((mxc_uart_regs_t *)uart) < 0) {
100122c4:	4a0e      	ldr	r2, [pc, #56]	@ (10012300 <MXC_UART_RevB_SetDataSize+0x3c>)
100122c6:	4290      	cmp	r0, r2
{
100122c8:	4603      	mov	r3, r0
    if (MXC_UART_GET_IDX((mxc_uart_regs_t *)uart) < 0) {
100122ca:	d00b      	beq.n	100122e4 <MXC_UART_RevB_SetDataSize+0x20>
100122cc:	f502 5280 	add.w	r2, r2, #4096	@ 0x1000
100122d0:	4290      	cmp	r0, r2
100122d2:	d007      	beq.n	100122e4 <MXC_UART_RevB_SetDataSize+0x20>
100122d4:	f502 5280 	add.w	r2, r2, #4096	@ 0x1000
100122d8:	4290      	cmp	r0, r2
100122da:	d003      	beq.n	100122e4 <MXC_UART_RevB_SetDataSize+0x20>
100122dc:	f502 3275 	add.w	r2, r2, #250880	@ 0x3d400
100122e0:	4290      	cmp	r0, r2
100122e2:	d10a      	bne.n	100122fa <MXC_UART_RevB_SetDataSize+0x36>
        return E_BAD_PARAM;
    }

    if (dataSize < 5 || dataSize > 8) {
100122e4:	3905      	subs	r1, #5
100122e6:	2903      	cmp	r1, #3
100122e8:	d807      	bhi.n	100122fa <MXC_UART_RevB_SetDataSize+0x36>
        return E_BAD_PARAM;
    }

    dataSize = (dataSize - 5) << MXC_F_UART_REVB_CTRL_CHAR_SIZE_POS;

    MXC_SETFIELD(uart->ctrl, MXC_F_UART_REVB_CTRL_CHAR_SIZE, dataSize);
100122ea:	681a      	ldr	r2, [r3, #0]
100122ec:	f422 6240 	bic.w	r2, r2, #3072	@ 0xc00
100122f0:	ea42 2281 	orr.w	r2, r2, r1, lsl #10

    return E_NO_ERROR;
100122f4:	2000      	movs	r0, #0
    MXC_SETFIELD(uart->ctrl, MXC_F_UART_REVB_CTRL_CHAR_SIZE, dataSize);
100122f6:	601a      	str	r2, [r3, #0]
    return E_NO_ERROR;
100122f8:	4770      	bx	lr
        return E_BAD_PARAM;
100122fa:	f06f 0002 	mvn.w	r0, #2
}
100122fe:	4770      	bx	lr
10012300:	40042000 	.word	0x40042000

10012304 <MXC_UART_RevB_SetStopBits>:

int MXC_UART_RevB_SetStopBits(mxc_uart_revb_regs_t *uart, mxc_uart_stop_t stopBits)
{
    if (MXC_UART_GET_IDX((mxc_uart_regs_t *)uart) < 0) {
10012304:	4b10      	ldr	r3, [pc, #64]	@ (10012348 <MXC_UART_RevB_SetStopBits+0x44>)
10012306:	4298      	cmp	r0, r3
10012308:	d00b      	beq.n	10012322 <MXC_UART_RevB_SetStopBits+0x1e>
1001230a:	f503 5380 	add.w	r3, r3, #4096	@ 0x1000
1001230e:	4298      	cmp	r0, r3
10012310:	d007      	beq.n	10012322 <MXC_UART_RevB_SetStopBits+0x1e>
10012312:	f503 5380 	add.w	r3, r3, #4096	@ 0x1000
10012316:	4298      	cmp	r0, r3
10012318:	d003      	beq.n	10012322 <MXC_UART_RevB_SetStopBits+0x1e>
1001231a:	f503 3375 	add.w	r3, r3, #250880	@ 0x3d400
1001231e:	4298      	cmp	r0, r3
10012320:	d108      	bne.n	10012334 <MXC_UART_RevB_SetStopBits+0x30>
        return E_BAD_PARAM;
    }

    switch (stopBits) {
10012322:	b151      	cbz	r1, 1001233a <MXC_UART_RevB_SetStopBits+0x36>
10012324:	2901      	cmp	r1, #1
10012326:	d105      	bne.n	10012334 <MXC_UART_RevB_SetStopBits+0x30>
        MXC_SETFIELD(uart->ctrl, MXC_F_UART_REVB_CTRL_STOPBITS,
                     0 << MXC_F_UART_REVB_CTRL_STOPBITS_POS);
        break;

    case MXC_UART_STOP_2:
        MXC_SETFIELD(uart->ctrl, MXC_F_UART_REVB_CTRL_STOPBITS,
10012328:	6803      	ldr	r3, [r0, #0]
1001232a:	f443 5380 	orr.w	r3, r3, #4096	@ 0x1000
1001232e:	6003      	str	r3, [r0, #0]
    default:
        return E_BAD_PARAM;
        break;
    }

    return E_NO_ERROR;
10012330:	2000      	movs	r0, #0
10012332:	4770      	bx	lr
10012334:	f06f 0002 	mvn.w	r0, #2
}
10012338:	4770      	bx	lr
        MXC_SETFIELD(uart->ctrl, MXC_F_UART_REVB_CTRL_STOPBITS,
1001233a:	6803      	ldr	r3, [r0, #0]
1001233c:	f423 5380 	bic.w	r3, r3, #4096	@ 0x1000
10012340:	6003      	str	r3, [r0, #0]
    return E_NO_ERROR;
10012342:	2000      	movs	r0, #0
10012344:	4770      	bx	lr
10012346:	bf00      	nop
10012348:	40042000 	.word	0x40042000

1001234c <MXC_UART_RevB_SetParity>:

int MXC_UART_RevB_SetParity(mxc_uart_revb_regs_t *uart, mxc_uart_parity_t parity)
{
    if (MXC_UART_GET_IDX((mxc_uart_regs_t *)uart) < 0) {
1001234c:	4b29      	ldr	r3, [pc, #164]	@ (100123f4 <MXC_UART_RevB_SetParity+0xa8>)
1001234e:	4298      	cmp	r0, r3
10012350:	d00b      	beq.n	1001236a <MXC_UART_RevB_SetParity+0x1e>
10012352:	f503 5380 	add.w	r3, r3, #4096	@ 0x1000
10012356:	4298      	cmp	r0, r3
10012358:	d007      	beq.n	1001236a <MXC_UART_RevB_SetParity+0x1e>
1001235a:	f503 5380 	add.w	r3, r3, #4096	@ 0x1000
1001235e:	4298      	cmp	r0, r3
10012360:	d003      	beq.n	1001236a <MXC_UART_RevB_SetParity+0x1e>
10012362:	f503 3375 	add.w	r3, r3, #250880	@ 0x3d400
10012366:	4298      	cmp	r0, r3
10012368:	d141      	bne.n	100123ee <MXC_UART_RevB_SetParity+0xa2>
        return E_BAD_PARAM;
    }

    switch (parity) {
1001236a:	2904      	cmp	r1, #4
1001236c:	d83f      	bhi.n	100123ee <MXC_UART_RevB_SetParity+0xa2>
1001236e:	e8df f001 	tbb	[pc, r1]
10012372:	1711      	.short	0x1711
10012374:	3124      	.short	0x3124
10012376:	03          	.byte	0x03
10012377:	00          	.byte	0x00
        MXC_SETFIELD(uart->ctrl, MXC_F_UART_REVB_CTRL_PAR_EO, 1 << MXC_F_UART_REVB_CTRL_PAR_EO_POS);
        MXC_SETFIELD(uart->ctrl, MXC_F_UART_REVB_CTRL_PAR_MD, 0 << MXC_F_UART_REVB_CTRL_PAR_MD_POS);
        break;

    case MXC_UART_PARITY_ODD_1:
        MXC_SETFIELD(uart->ctrl, MXC_F_UART_REVB_CTRL_PAR_EN, 1 << MXC_F_UART_REVB_CTRL_PAR_EN_POS);
10012378:	6803      	ldr	r3, [r0, #0]
1001237a:	f043 0310 	orr.w	r3, r3, #16
1001237e:	6003      	str	r3, [r0, #0]
        MXC_SETFIELD(uart->ctrl, MXC_F_UART_REVB_CTRL_PAR_EO, 1 << MXC_F_UART_REVB_CTRL_PAR_EO_POS);
10012380:	6803      	ldr	r3, [r0, #0]
10012382:	f043 0320 	orr.w	r3, r3, #32
10012386:	6003      	str	r3, [r0, #0]
        MXC_SETFIELD(uart->ctrl, MXC_F_UART_REVB_CTRL_PAR_MD, 1 << MXC_F_UART_REVB_CTRL_PAR_MD_POS);
10012388:	6803      	ldr	r3, [r0, #0]
1001238a:	f043 0340 	orr.w	r3, r3, #64	@ 0x40
1001238e:	6003      	str	r3, [r0, #0]
    default:
        return E_BAD_PARAM;
        break;
    }

    return E_NO_ERROR;
10012390:	2000      	movs	r0, #0
10012392:	4770      	bx	lr
        MXC_SETFIELD(uart->ctrl, MXC_F_UART_REVB_CTRL_PAR_EN, 0 << MXC_F_UART_REVB_CTRL_PAR_EN_POS);
10012394:	6803      	ldr	r3, [r0, #0]
10012396:	f023 0310 	bic.w	r3, r3, #16
1001239a:	6003      	str	r3, [r0, #0]
    return E_NO_ERROR;
1001239c:	2000      	movs	r0, #0
1001239e:	4770      	bx	lr
        MXC_SETFIELD(uart->ctrl, MXC_F_UART_REVB_CTRL_PAR_EN, 1 << MXC_F_UART_REVB_CTRL_PAR_EN_POS);
100123a0:	6803      	ldr	r3, [r0, #0]
100123a2:	f043 0310 	orr.w	r3, r3, #16
100123a6:	6003      	str	r3, [r0, #0]
        MXC_SETFIELD(uart->ctrl, MXC_F_UART_REVB_CTRL_PAR_EO, 0 << MXC_F_UART_REVB_CTRL_PAR_EO_POS);
100123a8:	6803      	ldr	r3, [r0, #0]
100123aa:	f023 0320 	bic.w	r3, r3, #32
100123ae:	6003      	str	r3, [r0, #0]
        MXC_SETFIELD(uart->ctrl, MXC_F_UART_REVB_CTRL_PAR_MD, 0 << MXC_F_UART_REVB_CTRL_PAR_MD_POS);
100123b0:	6803      	ldr	r3, [r0, #0]
100123b2:	f023 0340 	bic.w	r3, r3, #64	@ 0x40
100123b6:	6003      	str	r3, [r0, #0]
        break;
100123b8:	e7ea      	b.n	10012390 <MXC_UART_RevB_SetParity+0x44>
        MXC_SETFIELD(uart->ctrl, MXC_F_UART_REVB_CTRL_PAR_EN, 1 << MXC_F_UART_REVB_CTRL_PAR_EN_POS);
100123ba:	6803      	ldr	r3, [r0, #0]
100123bc:	f043 0310 	orr.w	r3, r3, #16
100123c0:	6003      	str	r3, [r0, #0]
        MXC_SETFIELD(uart->ctrl, MXC_F_UART_REVB_CTRL_PAR_EO, 0 << MXC_F_UART_REVB_CTRL_PAR_EO_POS);
100123c2:	6803      	ldr	r3, [r0, #0]
100123c4:	f023 0320 	bic.w	r3, r3, #32
100123c8:	6003      	str	r3, [r0, #0]
        MXC_SETFIELD(uart->ctrl, MXC_F_UART_REVB_CTRL_PAR_MD, 1 << MXC_F_UART_REVB_CTRL_PAR_MD_POS);
100123ca:	6803      	ldr	r3, [r0, #0]
100123cc:	f043 0340 	orr.w	r3, r3, #64	@ 0x40
100123d0:	6003      	str	r3, [r0, #0]
        break;
100123d2:	e7dd      	b.n	10012390 <MXC_UART_RevB_SetParity+0x44>
        MXC_SETFIELD(uart->ctrl, MXC_F_UART_REVB_CTRL_PAR_EN, 1 << MXC_F_UART_REVB_CTRL_PAR_EN_POS);
100123d4:	6803      	ldr	r3, [r0, #0]
100123d6:	f043 0310 	orr.w	r3, r3, #16
100123da:	6003      	str	r3, [r0, #0]
        MXC_SETFIELD(uart->ctrl, MXC_F_UART_REVB_CTRL_PAR_EO, 1 << MXC_F_UART_REVB_CTRL_PAR_EO_POS);
100123dc:	6803      	ldr	r3, [r0, #0]
100123de:	f043 0320 	orr.w	r3, r3, #32
100123e2:	6003      	str	r3, [r0, #0]
        MXC_SETFIELD(uart->ctrl, MXC_F_UART_REVB_CTRL_PAR_MD, 0 << MXC_F_UART_REVB_CTRL_PAR_MD_POS);
100123e4:	6803      	ldr	r3, [r0, #0]
100123e6:	f023 0340 	bic.w	r3, r3, #64	@ 0x40
100123ea:	6003      	str	r3, [r0, #0]
        break;
100123ec:	e7d0      	b.n	10012390 <MXC_UART_RevB_SetParity+0x44>
    switch (parity) {
100123ee:	f06f 0002 	mvn.w	r0, #2
}
100123f2:	4770      	bx	lr
100123f4:	40042000 	.word	0x40042000

100123f8 <MXC_UART_RevB_ReadCharacterRaw>:
    return E_NO_ERROR;
}

int MXC_UART_RevB_ReadCharacterRaw(mxc_uart_revb_regs_t *uart)
{
    if (MXC_UART_GET_IDX((mxc_uart_regs_t *)uart) < 0) {
100123f8:	4b0c      	ldr	r3, [pc, #48]	@ (1001242c <MXC_UART_RevB_ReadCharacterRaw+0x34>)
100123fa:	4298      	cmp	r0, r3
100123fc:	d00b      	beq.n	10012416 <MXC_UART_RevB_ReadCharacterRaw+0x1e>
100123fe:	f503 5380 	add.w	r3, r3, #4096	@ 0x1000
10012402:	4298      	cmp	r0, r3
10012404:	d007      	beq.n	10012416 <MXC_UART_RevB_ReadCharacterRaw+0x1e>
10012406:	f503 5380 	add.w	r3, r3, #4096	@ 0x1000
1001240a:	4298      	cmp	r0, r3
1001240c:	d003      	beq.n	10012416 <MXC_UART_RevB_ReadCharacterRaw+0x1e>
1001240e:	f503 3375 	add.w	r3, r3, #250880	@ 0x3d400
10012412:	4298      	cmp	r0, r3
10012414:	d104      	bne.n	10012420 <MXC_UART_RevB_ReadCharacterRaw+0x28>
        return E_BAD_PARAM;
    }

    if (uart->status & MXC_F_UART_REVB_STATUS_RX_EM) {
10012416:	6843      	ldr	r3, [r0, #4]
10012418:	06db      	lsls	r3, r3, #27
1001241a:	d404      	bmi.n	10012426 <MXC_UART_RevB_ReadCharacterRaw+0x2e>
        return E_UNDERFLOW;
    }

    return uart->fifo;
1001241c:	6a00      	ldr	r0, [r0, #32]
1001241e:	4770      	bx	lr
        return E_BAD_PARAM;
10012420:	f06f 0002 	mvn.w	r0, #2
10012424:	4770      	bx	lr
        return E_UNDERFLOW;
10012426:	f06f 000c 	mvn.w	r0, #12
}
1001242a:	4770      	bx	lr
1001242c:	40042000 	.word	0x40042000

10012430 <MXC_UART_RevB_WriteCharacterRaw>:

int MXC_UART_RevB_WriteCharacterRaw(mxc_uart_revb_regs_t *uart, uint8_t character)
{
    if (MXC_UART_GET_IDX((mxc_uart_regs_t *)uart) < 0) {
10012430:	4a0d      	ldr	r2, [pc, #52]	@ (10012468 <MXC_UART_RevB_WriteCharacterRaw+0x38>)
10012432:	4290      	cmp	r0, r2
{
10012434:	4603      	mov	r3, r0
    if (MXC_UART_GET_IDX((mxc_uart_regs_t *)uart) < 0) {
10012436:	d00b      	beq.n	10012450 <MXC_UART_RevB_WriteCharacterRaw+0x20>
10012438:	f502 5280 	add.w	r2, r2, #4096	@ 0x1000
1001243c:	4290      	cmp	r0, r2
1001243e:	d007      	beq.n	10012450 <MXC_UART_RevB_WriteCharacterRaw+0x20>
10012440:	f502 5280 	add.w	r2, r2, #4096	@ 0x1000
10012444:	4290      	cmp	r0, r2
10012446:	d003      	beq.n	10012450 <MXC_UART_RevB_WriteCharacterRaw+0x20>
10012448:	f502 3275 	add.w	r2, r2, #250880	@ 0x3d400
1001244c:	4290      	cmp	r0, r2
1001244e:	d105      	bne.n	1001245c <MXC_UART_RevB_WriteCharacterRaw+0x2c>
        return E_BAD_PARAM;
    }

    // Require the TX FIFO to be empty, so that we write out the expected character
    // Return error if the FIFO is full
    if (uart->status & MXC_F_UART_REVB_STATUS_TX_FULL) {
10012450:	6858      	ldr	r0, [r3, #4]
10012452:	f010 0080 	ands.w	r0, r0, #128	@ 0x80
10012456:	d104      	bne.n	10012462 <MXC_UART_RevB_WriteCharacterRaw+0x32>
        return E_OVERFLOW;
    }

    uart->fifo = character;
10012458:	6219      	str	r1, [r3, #32]

    return E_NO_ERROR;
1001245a:	4770      	bx	lr
        return E_BAD_PARAM;
1001245c:	f06f 0002 	mvn.w	r0, #2
10012460:	4770      	bx	lr
        return E_OVERFLOW;
10012462:	f06f 000b 	mvn.w	r0, #11
}
10012466:	4770      	bx	lr
10012468:	40042000 	.word	0x40042000

1001246c <MXC_UART_RevB_GetRXFIFOAvailable>:
    return read;
}

unsigned int MXC_UART_RevB_GetRXFIFOAvailable(mxc_uart_revb_regs_t *uart)
{
    return (uart->status & MXC_F_UART_REVB_STATUS_RX_LVL) >> MXC_F_UART_REVB_STATUS_RX_LVL_POS;
1001246c:	6840      	ldr	r0, [r0, #4]
}
1001246e:	f3c0 2003 	ubfx	r0, r0, #8, #4
10012472:	4770      	bx	lr

10012474 <MXC_UART_RevB_GetTXFIFOAvailable>:
    return written;
}

unsigned int MXC_UART_RevB_GetTXFIFOAvailable(mxc_uart_revb_regs_t *uart)
{
    int txCnt = (uart->status & MXC_F_UART_REVB_STATUS_TX_LVL) >> MXC_F_UART_REVB_STATUS_TX_LVL_POS;
10012474:	6840      	ldr	r0, [r0, #4]
10012476:	f3c0 3003 	ubfx	r0, r0, #12, #4
    return MXC_UART_FIFO_DEPTH - txCnt;
}
1001247a:	f1c0 0008 	rsb	r0, r0, #8
1001247e:	4770      	bx	lr

10012480 <MXC_UART_RevB_SetRXThreshold>:
    return E_NO_ERROR;
}

int MXC_UART_RevB_SetRXThreshold(mxc_uart_revb_regs_t *uart, unsigned int numBytes)
{
    if (MXC_UART_GET_IDX((mxc_uart_regs_t *)uart) < 0) {
10012480:	4a0e      	ldr	r2, [pc, #56]	@ (100124bc <MXC_UART_RevB_SetRXThreshold+0x3c>)
10012482:	4290      	cmp	r0, r2
{
10012484:	4603      	mov	r3, r0
    if (MXC_UART_GET_IDX((mxc_uart_regs_t *)uart) < 0) {
10012486:	d00b      	beq.n	100124a0 <MXC_UART_RevB_SetRXThreshold+0x20>
10012488:	f502 5280 	add.w	r2, r2, #4096	@ 0x1000
1001248c:	4290      	cmp	r0, r2
1001248e:	d007      	beq.n	100124a0 <MXC_UART_RevB_SetRXThreshold+0x20>
10012490:	f502 5280 	add.w	r2, r2, #4096	@ 0x1000
10012494:	4290      	cmp	r0, r2
10012496:	d003      	beq.n	100124a0 <MXC_UART_RevB_SetRXThreshold+0x20>
10012498:	f502 3275 	add.w	r2, r2, #250880	@ 0x3d400
1001249c:	4290      	cmp	r0, r2
1001249e:	d109      	bne.n	100124b4 <MXC_UART_RevB_SetRXThreshold+0x34>
        return E_BAD_PARAM;
    }

    if (numBytes < 1 || numBytes > MXC_UART_FIFO_DEPTH) {
100124a0:	1e4a      	subs	r2, r1, #1
100124a2:	2a07      	cmp	r2, #7
100124a4:	d806      	bhi.n	100124b4 <MXC_UART_RevB_SetRXThreshold+0x34>
        return E_BAD_PARAM;
    }

    numBytes <<= MXC_F_UART_REVB_CTRL_RX_THD_VAL_POS;
    MXC_SETFIELD(uart->ctrl, MXC_F_UART_REVB_CTRL_RX_THD_VAL, numBytes);
100124a6:	681a      	ldr	r2, [r3, #0]
100124a8:	f022 020f 	bic.w	r2, r2, #15
100124ac:	4311      	orrs	r1, r2

    return E_NO_ERROR;
100124ae:	2000      	movs	r0, #0
    MXC_SETFIELD(uart->ctrl, MXC_F_UART_REVB_CTRL_RX_THD_VAL, numBytes);
100124b0:	6019      	str	r1, [r3, #0]
    return E_NO_ERROR;
100124b2:	4770      	bx	lr
        return E_BAD_PARAM;
100124b4:	f06f 0002 	mvn.w	r0, #2
}
100124b8:	4770      	bx	lr
100124ba:	bf00      	nop
100124bc:	40042000 	.word	0x40042000

100124c0 <MXC_GPIO_Common_Init>:
static void *cbparam[MXC_CFG_GPIO_INSTANCES][MXC_CFG_GPIO_PINS_PORT];
static uint8_t initialized = 0;

/* **** Functions **** */
int MXC_GPIO_Common_Init(uint32_t portmask)
{
100124c0:	b510      	push	{r4, lr}
    if (!initialized) {
100124c2:	4c06      	ldr	r4, [pc, #24]	@ (100124dc <MXC_GPIO_Common_Init+0x1c>)
100124c4:	7821      	ldrb	r1, [r4, #0]
100124c6:	b931      	cbnz	r1, 100124d6 <MXC_GPIO_Common_Init+0x16>
        int i, j;

        for (i = 0; i < MXC_CFG_GPIO_INSTANCES; i++) {
            // Initialize call back arrays
            for (j = 0; j < MXC_CFG_GPIO_PINS_PORT; j++) {
                callback[i][j] = NULL;
100124c8:	4805      	ldr	r0, [pc, #20]	@ (100124e0 <MXC_GPIO_Common_Init+0x20>)
100124ca:	f44f 7200 	mov.w	r2, #512	@ 0x200
100124ce:	f002 fa0f 	bl	100148f0 <memset>
            }
        }

        initialized = 1;
100124d2:	2301      	movs	r3, #1
100124d4:	7023      	strb	r3, [r4, #0]
    }

    return E_NO_ERROR;
}
100124d6:	2000      	movs	r0, #0
100124d8:	bd10      	pop	{r4, pc}
100124da:	bf00      	nop
100124dc:	20001238 	.word	0x20001238
100124e0:	2000143c 	.word	0x2000143c

100124e4 <MXC_GPIO_Common_Handler>:
void MXC_GPIO_Common_Handler(unsigned int port)
{
    uint32_t stat;
    unsigned int pin;

    MXC_ASSERT(port < MXC_CFG_GPIO_INSTANCES);
100124e4:	2803      	cmp	r0, #3
{
100124e6:	b5f8      	push	{r3, r4, r5, r6, r7, lr}
100124e8:	4607      	mov	r7, r0
    MXC_ASSERT(port < MXC_CFG_GPIO_INSTANCES);
100124ea:	d81d      	bhi.n	10012528 <MXC_GPIO_Common_Handler+0x44>

    mxc_gpio_regs_t *gpio = MXC_GPIO_GET_GPIO(port);
100124ec:	bb18      	cbnz	r0, 10012536 <MXC_GPIO_Common_Handler+0x52>
100124ee:	4d14      	ldr	r5, [pc, #80]	@ (10012540 <MXC_GPIO_Common_Handler+0x5c>)

    stat = MXC_GPIO_GetFlags(gpio);
100124f0:	4628      	mov	r0, r5
100124f2:	f7ff f949 	bl	10011788 <MXC_GPIO_GetFlags>
100124f6:	4604      	mov	r4, r0
    MXC_GPIO_ClearFlags(gpio, stat);
100124f8:	4601      	mov	r1, r0
100124fa:	4628      	mov	r0, r5
100124fc:	f7ff f938 	bl	10011770 <MXC_GPIO_ClearFlags>

    pin = 0;

    while (stat) {
10012500:	b18c      	cbz	r4, 10012526 <MXC_GPIO_Common_Handler+0x42>
10012502:	4e10      	ldr	r6, [pc, #64]	@ (10012544 <MXC_GPIO_Common_Handler+0x60>)
10012504:	4d10      	ldr	r5, [pc, #64]	@ (10012548 <MXC_GPIO_Common_Handler+0x64>)
10012506:	eb06 16c7 	add.w	r6, r6, r7, lsl #7
1001250a:	eb05 15c7 	add.w	r5, r5, r7, lsl #7
        if (stat & 1) {
1001250e:	07e3      	lsls	r3, r4, #31
10012510:	d503      	bpl.n	1001251a <MXC_GPIO_Common_Handler+0x36>
            if (callback[port][pin]) {
10012512:	682b      	ldr	r3, [r5, #0]
10012514:	b10b      	cbz	r3, 1001251a <MXC_GPIO_Common_Handler+0x36>
                callback[port][pin](cbparam[port][pin]);
10012516:	6830      	ldr	r0, [r6, #0]
10012518:	4798      	blx	r3
    while (stat) {
1001251a:	0864      	lsrs	r4, r4, #1
1001251c:	f106 0604 	add.w	r6, r6, #4
10012520:	f105 0504 	add.w	r5, r5, #4
10012524:	d1f3      	bne.n	1001250e <MXC_GPIO_Common_Handler+0x2a>
        }

        pin++;
        stat >>= 1;
    }
}
10012526:	bdf8      	pop	{r3, r4, r5, r6, r7, pc}
    MXC_ASSERT(port < MXC_CFG_GPIO_INSTANCES);
10012528:	4908      	ldr	r1, [pc, #32]	@ (1001254c <MXC_GPIO_Common_Handler+0x68>)
1001252a:	4809      	ldr	r0, [pc, #36]	@ (10012550 <MXC_GPIO_Common_Handler+0x6c>)
1001252c:	225a      	movs	r2, #90	@ 0x5a
1001252e:	f7fe fb99 	bl	10010c64 <mxc_assert>
10012532:	2500      	movs	r5, #0
10012534:	e7dc      	b.n	100124f0 <MXC_GPIO_Common_Handler+0xc>
10012536:	4b07      	ldr	r3, [pc, #28]	@ (10012554 <MXC_GPIO_Common_Handler+0x70>)
10012538:	1e42      	subs	r2, r0, #1
1001253a:	f853 5022 	ldr.w	r5, [r3, r2, lsl #2]
1001253e:	e7d7      	b.n	100124f0 <MXC_GPIO_Common_Handler+0xc>
10012540:	40008000 	.word	0x40008000
10012544:	2000123c 	.word	0x2000123c
10012548:	2000143c 	.word	0x2000143c
1001254c:	1001d8a0 	.word	0x1001d8a0
10012550:	1001d8f0 	.word	0x1001d8f0
10012554:	1001d910 	.word	0x1001d910

10012558 <strncpy>:
10012558:	ea40 0301 	orr.w	r3, r0, r1
1001255c:	079b      	lsls	r3, r3, #30
1001255e:	b510      	push	{r4, lr}
10012560:	d101      	bne.n	10012566 <strncpy+0xe>
10012562:	2a03      	cmp	r2, #3
10012564:	d817      	bhi.n	10012596 <strncpy+0x3e>
10012566:	4684      	mov	ip, r0
10012568:	f101 3eff 	add.w	lr, r1, #4294967295	@ 0xffffffff
1001256c:	e007      	b.n	1001257e <strncpy+0x26>
1001256e:	f81e 1f01 	ldrb.w	r1, [lr, #1]!
10012572:	f803 1b01 	strb.w	r1, [r3], #1
10012576:	1e54      	subs	r4, r2, #1
10012578:	b129      	cbz	r1, 10012586 <strncpy+0x2e>
1001257a:	469c      	mov	ip, r3
1001257c:	4622      	mov	r2, r4
1001257e:	4663      	mov	r3, ip
10012580:	2a00      	cmp	r2, #0
10012582:	d1f4      	bne.n	1001256e <strncpy+0x16>
10012584:	bd10      	pop	{r4, pc}
10012586:	4494      	add	ip, r2
10012588:	2c00      	cmp	r4, #0
1001258a:	d0fb      	beq.n	10012584 <strncpy+0x2c>
1001258c:	f803 1b01 	strb.w	r1, [r3], #1
10012590:	4563      	cmp	r3, ip
10012592:	d1fb      	bne.n	1001258c <strncpy+0x34>
10012594:	bd10      	pop	{r4, pc}
10012596:	468e      	mov	lr, r1
10012598:	4684      	mov	ip, r0
1001259a:	f8de 4000 	ldr.w	r4, [lr]
1001259e:	f1a4 3301 	sub.w	r3, r4, #16843009	@ 0x1010101
100125a2:	ea23 0304 	bic.w	r3, r3, r4
100125a6:	f013 3f80 	tst.w	r3, #2155905152	@ 0x80808080
100125aa:	4671      	mov	r1, lr
100125ac:	f10e 0e04 	add.w	lr, lr, #4
100125b0:	d1da      	bne.n	10012568 <strncpy+0x10>
100125b2:	3a04      	subs	r2, #4
100125b4:	2a03      	cmp	r2, #3
100125b6:	f84c 4b04 	str.w	r4, [ip], #4
100125ba:	d8ee      	bhi.n	1001259a <strncpy+0x42>
100125bc:	4671      	mov	r1, lr
100125be:	e7d3      	b.n	10012568 <strncpy+0x10>

100125c0 <sprintf>:
100125c0:	b40e      	push	{r1, r2, r3}
100125c2:	b510      	push	{r4, lr}
100125c4:	b09d      	sub	sp, #116	@ 0x74
100125c6:	f06f 4100 	mvn.w	r1, #2147483648	@ 0x80000000
100125ca:	ab1f      	add	r3, sp, #124	@ 0x7c
100125cc:	9104      	str	r1, [sp, #16]
100125ce:	9107      	str	r1, [sp, #28]
100125d0:	4909      	ldr	r1, [pc, #36]	@ (100125f8 <sprintf+0x38>)
100125d2:	f853 2b04 	ldr.w	r2, [r3], #4
100125d6:	9002      	str	r0, [sp, #8]
100125d8:	9006      	str	r0, [sp, #24]
100125da:	4c08      	ldr	r4, [pc, #32]	@ (100125fc <sprintf+0x3c>)
100125dc:	6808      	ldr	r0, [r1, #0]
100125de:	9301      	str	r3, [sp, #4]
100125e0:	a902      	add	r1, sp, #8
100125e2:	9405      	str	r4, [sp, #20]
100125e4:	f000 f870 	bl	100126c8 <_svfprintf_r>
100125e8:	9b02      	ldr	r3, [sp, #8]
100125ea:	2200      	movs	r2, #0
100125ec:	701a      	strb	r2, [r3, #0]
100125ee:	b01d      	add	sp, #116	@ 0x74
100125f0:	e8bd 4010 	ldmia.w	sp!, {r4, lr}
100125f4:	b003      	add	sp, #12
100125f6:	4770      	bx	lr
100125f8:	200005c8 	.word	0x200005c8
100125fc:	ffff0208 	.word	0xffff0208

10012600 <__sread>:
10012600:	b510      	push	{r4, lr}
10012602:	460c      	mov	r4, r1
10012604:	f9b1 100e 	ldrsh.w	r1, [r1, #14]
10012608:	f004 f946 	bl	10016898 <_read_r>
1001260c:	2800      	cmp	r0, #0
1001260e:	db03      	blt.n	10012618 <__sread+0x18>
10012610:	6d23      	ldr	r3, [r4, #80]	@ 0x50
10012612:	4403      	add	r3, r0
10012614:	6523      	str	r3, [r4, #80]	@ 0x50
10012616:	bd10      	pop	{r4, pc}
10012618:	89a3      	ldrh	r3, [r4, #12]
1001261a:	f423 5380 	bic.w	r3, r3, #4096	@ 0x1000
1001261e:	81a3      	strh	r3, [r4, #12]
10012620:	bd10      	pop	{r4, pc}
10012622:	bf00      	nop

10012624 <__swrite>:
10012624:	e92d 41f0 	stmdb	sp!, {r4, r5, r6, r7, r8, lr}
10012628:	460c      	mov	r4, r1
1001262a:	f9b1 100c 	ldrsh.w	r1, [r1, #12]
1001262e:	461f      	mov	r7, r3
10012630:	05cb      	lsls	r3, r1, #23
10012632:	4605      	mov	r5, r0
10012634:	4616      	mov	r6, r2
10012636:	d40b      	bmi.n	10012650 <__swrite+0x2c>
10012638:	f421 5180 	bic.w	r1, r1, #4096	@ 0x1000
1001263c:	81a1      	strh	r1, [r4, #12]
1001263e:	463b      	mov	r3, r7
10012640:	f9b4 100e 	ldrsh.w	r1, [r4, #14]
10012644:	4632      	mov	r2, r6
10012646:	4628      	mov	r0, r5
10012648:	e8bd 41f0 	ldmia.w	sp!, {r4, r5, r6, r7, r8, lr}
1001264c:	f000 b820 	b.w	10012690 <_write_r>
10012650:	f9b4 100e 	ldrsh.w	r1, [r4, #14]
10012654:	2302      	movs	r3, #2
10012656:	2200      	movs	r2, #0
10012658:	f004 f908 	bl	1001686c <_lseek_r>
1001265c:	f9b4 100c 	ldrsh.w	r1, [r4, #12]
10012660:	e7ea      	b.n	10012638 <__swrite+0x14>
10012662:	bf00      	nop

10012664 <__sseek>:
10012664:	b510      	push	{r4, lr}
10012666:	460c      	mov	r4, r1
10012668:	f9b1 100e 	ldrsh.w	r1, [r1, #14]
1001266c:	f004 f8fe 	bl	1001686c <_lseek_r>
10012670:	f9b4 300c 	ldrsh.w	r3, [r4, #12]
10012674:	1c42      	adds	r2, r0, #1
10012676:	bf0e      	itee	eq
10012678:	f423 5380 	biceq.w	r3, r3, #4096	@ 0x1000
1001267c:	f443 5380 	orrne.w	r3, r3, #4096	@ 0x1000
10012680:	6520      	strne	r0, [r4, #80]	@ 0x50
10012682:	81a3      	strh	r3, [r4, #12]
10012684:	bd10      	pop	{r4, pc}
10012686:	bf00      	nop

10012688 <__sclose>:
10012688:	f9b1 100e 	ldrsh.w	r1, [r1, #14]
1001268c:	f003 baa2 	b.w	10015bd4 <_close_r>

10012690 <_write_r>:
10012690:	b538      	push	{r3, r4, r5, lr}
10012692:	460c      	mov	r4, r1
10012694:	4d08      	ldr	r5, [pc, #32]	@ (100126b8 <_write_r+0x28>)
10012696:	4684      	mov	ip, r0
10012698:	4611      	mov	r1, r2
1001269a:	4620      	mov	r0, r4
1001269c:	461a      	mov	r2, r3
1001269e:	2300      	movs	r3, #0
100126a0:	602b      	str	r3, [r5, #0]
100126a2:	4664      	mov	r4, ip
100126a4:	f7fe fb5e 	bl	10010d64 <_write>
100126a8:	1c43      	adds	r3, r0, #1
100126aa:	d000      	beq.n	100126ae <_write_r+0x1e>
100126ac:	bd38      	pop	{r3, r4, r5, pc}
100126ae:	682b      	ldr	r3, [r5, #0]
100126b0:	2b00      	cmp	r3, #0
100126b2:	d0fb      	beq.n	100126ac <_write_r+0x1c>
100126b4:	6023      	str	r3, [r4, #0]
100126b6:	bd38      	pop	{r3, r4, r5, pc}
100126b8:	20001680 	.word	0x20001680

100126bc <__errno>:
100126bc:	4b01      	ldr	r3, [pc, #4]	@ (100126c4 <__errno+0x8>)
100126be:	6818      	ldr	r0, [r3, #0]
100126c0:	4770      	bx	lr
100126c2:	bf00      	nop
100126c4:	200005c8 	.word	0x200005c8

100126c8 <_svfprintf_r>:
100126c8:	e92d 4ff0 	stmdb	sp!, {r4, r5, r6, r7, r8, r9, sl, fp, lr}
100126cc:	b0df      	sub	sp, #380	@ 0x17c
100126ce:	460c      	mov	r4, r1
100126d0:	9109      	str	r1, [sp, #36]	@ 0x24
100126d2:	4691      	mov	r9, r2
100126d4:	930d      	str	r3, [sp, #52]	@ 0x34
100126d6:	4683      	mov	fp, r0
100126d8:	f002 f9cc 	bl	10014a74 <_localeconv_r>
100126dc:	6803      	ldr	r3, [r0, #0]
100126de:	931a      	str	r3, [sp, #104]	@ 0x68
100126e0:	4618      	mov	r0, r3
100126e2:	f003 fd0d 	bl	10016100 <strlen>
100126e6:	2208      	movs	r2, #8
100126e8:	9018      	str	r0, [sp, #96]	@ 0x60
100126ea:	2100      	movs	r1, #0
100126ec:	a82e      	add	r0, sp, #184	@ 0xb8
100126ee:	f002 f8ff 	bl	100148f0 <memset>
100126f2:	89a3      	ldrh	r3, [r4, #12]
100126f4:	061a      	lsls	r2, r3, #24
100126f6:	d503      	bpl.n	10012700 <_svfprintf_r+0x38>
100126f8:	6923      	ldr	r3, [r4, #16]
100126fa:	2b00      	cmp	r3, #0
100126fc:	f000 8790 	beq.w	10013620 <_svfprintf_r+0xf58>
10012700:	ed9f 7b7f 	vldr	d7, [pc, #508]	@ 10012900 <_svfprintf_r+0x238>
10012704:	2300      	movs	r3, #0
10012706:	e9cd 3333 	strd	r3, r3, [sp, #204]	@ 0xcc
1001270a:	e9cd 331b 	strd	r3, r3, [sp, #108]	@ 0x6c
1001270e:	e9cd 331d 	strd	r3, r3, [sp, #116]	@ 0x74
10012712:	ed8d 7b16 	vstr	d7, [sp, #88]	@ 0x58
10012716:	aa35      	add	r2, sp, #212	@ 0xd4
10012718:	9313      	str	r3, [sp, #76]	@ 0x4c
1001271a:	9232      	str	r2, [sp, #200]	@ 0xc8
1001271c:	4690      	mov	r8, r2
1001271e:	9319      	str	r3, [sp, #100]	@ 0x64
10012720:	930a      	str	r3, [sp, #40]	@ 0x28
10012722:	f8cd b01c 	str.w	fp, [sp, #28]
10012726:	464d      	mov	r5, r9
10012728:	9f07      	ldr	r7, [sp, #28]
1001272a:	462e      	mov	r6, r5
1001272c:	4b76      	ldr	r3, [pc, #472]	@ (10012908 <_svfprintf_r+0x240>)
1001272e:	f8d3 40e4 	ldr.w	r4, [r3, #228]	@ 0xe4
10012732:	f002 f999 	bl	10014a68 <__locale_mb_cur_max>
10012736:	4603      	mov	r3, r0
10012738:	a82e      	add	r0, sp, #184	@ 0xb8
1001273a:	9000      	str	r0, [sp, #0]
1001273c:	4632      	mov	r2, r6
1001273e:	a92a      	add	r1, sp, #168	@ 0xa8
10012740:	4638      	mov	r0, r7
10012742:	47a0      	blx	r4
10012744:	2800      	cmp	r0, #0
10012746:	f000 80a9 	beq.w	1001289c <_svfprintf_r+0x1d4>
1001274a:	f2c0 809f 	blt.w	1001288c <_svfprintf_r+0x1c4>
1001274e:	9a2a      	ldr	r2, [sp, #168]	@ 0xa8
10012750:	2a25      	cmp	r2, #37	@ 0x25
10012752:	4603      	mov	r3, r0
10012754:	d001      	beq.n	1001275a <_svfprintf_r+0x92>
10012756:	441e      	add	r6, r3
10012758:	e7e8      	b.n	1001272c <_svfprintf_r+0x64>
1001275a:	1b77      	subs	r7, r6, r5
1001275c:	4604      	mov	r4, r0
1001275e:	f040 80a0 	bne.w	100128a2 <_svfprintf_r+0x1da>
10012762:	2300      	movs	r3, #0
10012764:	f88d 309f 	strb.w	r3, [sp, #159]	@ 0x9f
10012768:	4699      	mov	r9, r3
1001276a:	930b      	str	r3, [sp, #44]	@ 0x2c
1001276c:	f04f 32ff 	mov.w	r2, #4294967295	@ 0xffffffff
10012770:	7873      	ldrb	r3, [r6, #1]
10012772:	9208      	str	r2, [sp, #32]
10012774:	1c74      	adds	r4, r6, #1
10012776:	3401      	adds	r4, #1
10012778:	f1a3 0220 	sub.w	r2, r3, #32
1001277c:	2a5a      	cmp	r2, #90	@ 0x5a
1001277e:	f200 80c5 	bhi.w	1001290c <_svfprintf_r+0x244>
10012782:	e8df f012 	tbh	[pc, r2, lsl #1]
10012786:	02ee      	.short	0x02ee
10012788:	00c300c3 	.word	0x00c300c3
1001278c:	00c302ea 	.word	0x00c302ea
10012790:	00c300c3 	.word	0x00c300c3
10012794:	00c3006a 	.word	0x00c3006a
10012798:	025100c3 	.word	0x025100c3
1001279c:	00c30260 	.word	0x00c30260
100127a0:	02fc025c 	.word	0x02fc025c
100127a4:	02f800c3 	.word	0x02f800c3
100127a8:	005b005b 	.word	0x005b005b
100127ac:	005b005b 	.word	0x005b005b
100127b0:	005b005b 	.word	0x005b005b
100127b4:	005b005b 	.word	0x005b005b
100127b8:	00c3005b 	.word	0x00c3005b
100127bc:	00c300c3 	.word	0x00c300c3
100127c0:	00c300c3 	.word	0x00c300c3
100127c4:	00c300c3 	.word	0x00c300c3
100127c8:	00c30144 	.word	0x00c30144
100127cc:	031601d0 	.word	0x031601d0
100127d0:	01440144 	.word	0x01440144
100127d4:	00c30144 	.word	0x00c30144
100127d8:	00c300c3 	.word	0x00c300c3
100127dc:	02e600c3 	.word	0x02e600c3
100127e0:	00c300c3 	.word	0x00c300c3
100127e4:	00c30265 	.word	0x00c30265
100127e8:	00c300c3 	.word	0x00c300c3
100127ec:	00c301fa 	.word	0x00c301fa
100127f0:	00c302d3 	.word	0x00c302d3
100127f4:	070e00c3 	.word	0x070e00c3
100127f8:	00c300c3 	.word	0x00c300c3
100127fc:	00c300c3 	.word	0x00c300c3
10012800:	00c300c3 	.word	0x00c300c3
10012804:	00c300c3 	.word	0x00c300c3
10012808:	00c30144 	.word	0x00c30144
1001280c:	022c01d0 	.word	0x022c01d0
10012810:	01440144 	.word	0x01440144
10012814:	02960144 	.word	0x02960144
10012818:	007f022c 	.word	0x007f022c
1001281c:	02af00c3 	.word	0x02af00c3
10012820:	02a000c3 	.word	0x02a000c3
10012824:	02c10703 	.word	0x02c10703
10012828:	00c3007f 	.word	0x00c3007f
1001282c:	007d01fa 	.word	0x007d01fa
10012830:	00c30709 	.word	0x00c30709
10012834:	073200c3 	.word	0x073200c3
10012838:	007d00c3 	.word	0x007d00c3
1001283c:	f1a3 0230 	sub.w	r2, r3, #48	@ 0x30
10012840:	2100      	movs	r1, #0
10012842:	f814 3b01 	ldrb.w	r3, [r4], #1
10012846:	eb01 0181 	add.w	r1, r1, r1, lsl #2
1001284a:	eb02 0141 	add.w	r1, r2, r1, lsl #1
1001284e:	f1a3 0230 	sub.w	r2, r3, #48	@ 0x30
10012852:	2a09      	cmp	r2, #9
10012854:	d9f5      	bls.n	10012842 <_svfprintf_r+0x17a>
10012856:	910b      	str	r1, [sp, #44]	@ 0x2c
10012858:	e78e      	b.n	10012778 <_svfprintf_r+0xb0>
1001285a:	9f07      	ldr	r7, [sp, #28]
1001285c:	4638      	mov	r0, r7
1001285e:	f002 f909 	bl	10014a74 <_localeconv_r>
10012862:	6843      	ldr	r3, [r0, #4]
10012864:	931d      	str	r3, [sp, #116]	@ 0x74
10012866:	4618      	mov	r0, r3
10012868:	f003 fc4a 	bl	10016100 <strlen>
1001286c:	901e      	str	r0, [sp, #120]	@ 0x78
1001286e:	4606      	mov	r6, r0
10012870:	4638      	mov	r0, r7
10012872:	f002 f8ff 	bl	10014a74 <_localeconv_r>
10012876:	6883      	ldr	r3, [r0, #8]
10012878:	931b      	str	r3, [sp, #108]	@ 0x6c
1001287a:	2e00      	cmp	r6, #0
1001287c:	f040 861e 	bne.w	100134bc <_svfprintf_r+0xdf4>
10012880:	7823      	ldrb	r3, [r4, #0]
10012882:	e778      	b.n	10012776 <_svfprintf_r+0xae>
10012884:	7823      	ldrb	r3, [r4, #0]
10012886:	f049 0920 	orr.w	r9, r9, #32
1001288a:	e774      	b.n	10012776 <_svfprintf_r+0xae>
1001288c:	2208      	movs	r2, #8
1001288e:	2100      	movs	r1, #0
10012890:	a82e      	add	r0, sp, #184	@ 0xb8
10012892:	f002 f82d 	bl	100148f0 <memset>
10012896:	2301      	movs	r3, #1
10012898:	441e      	add	r6, r3
1001289a:	e747      	b.n	1001272c <_svfprintf_r+0x64>
1001289c:	1b77      	subs	r7, r6, r5
1001289e:	4604      	mov	r4, r0
100128a0:	d011      	beq.n	100128c6 <_svfprintf_r+0x1fe>
100128a2:	9b34      	ldr	r3, [sp, #208]	@ 0xd0
100128a4:	443b      	add	r3, r7
100128a6:	9334      	str	r3, [sp, #208]	@ 0xd0
100128a8:	9b33      	ldr	r3, [sp, #204]	@ 0xcc
100128aa:	3301      	adds	r3, #1
100128ac:	2b07      	cmp	r3, #7
100128ae:	e9c8 5700 	strd	r5, r7, [r8]
100128b2:	9333      	str	r3, [sp, #204]	@ 0xcc
100128b4:	dc18      	bgt.n	100128e8 <_svfprintf_r+0x220>
100128b6:	f108 0808 	add.w	r8, r8, #8
100128ba:	9b0a      	ldr	r3, [sp, #40]	@ 0x28
100128bc:	443b      	add	r3, r7
100128be:	930a      	str	r3, [sp, #40]	@ 0x28
100128c0:	2c00      	cmp	r4, #0
100128c2:	f47f af4e 	bne.w	10012762 <_svfprintf_r+0x9a>
100128c6:	9b34      	ldr	r3, [sp, #208]	@ 0xd0
100128c8:	f8dd b01c 	ldr.w	fp, [sp, #28]
100128cc:	2b00      	cmp	r3, #0
100128ce:	f041 81f3 	bne.w	10013cb8 <_svfprintf_r+0x15f0>
100128d2:	9b09      	ldr	r3, [sp, #36]	@ 0x24
100128d4:	899b      	ldrh	r3, [r3, #12]
100128d6:	f003 0340 	and.w	r3, r3, #64	@ 0x40
100128da:	2b00      	cmp	r3, #0
100128dc:	f041 83c3 	bne.w	10014066 <_svfprintf_r+0x199e>
100128e0:	980a      	ldr	r0, [sp, #40]	@ 0x28
100128e2:	b05f      	add	sp, #380	@ 0x17c
100128e4:	e8bd 8ff0 	ldmia.w	sp!, {r4, r5, r6, r7, r8, r9, sl, fp, pc}
100128e8:	9909      	ldr	r1, [sp, #36]	@ 0x24
100128ea:	9807      	ldr	r0, [sp, #28]
100128ec:	aa32      	add	r2, sp, #200	@ 0xc8
100128ee:	f004 f9ad 	bl	10016c4c <__ssprint_r>
100128f2:	2800      	cmp	r0, #0
100128f4:	d1ed      	bne.n	100128d2 <_svfprintf_r+0x20a>
100128f6:	f10d 08d4 	add.w	r8, sp, #212	@ 0xd4
100128fa:	e7de      	b.n	100128ba <_svfprintf_r+0x1f2>
100128fc:	f3af 8000 	nop.w
	...
10012908:	2000045c 	.word	0x2000045c
1001290c:	e9cd 340e 	strd	r3, r4, [sp, #56]	@ 0x38
10012910:	2b00      	cmp	r3, #0
10012912:	d0d8      	beq.n	100128c6 <_svfprintf_r+0x1fe>
10012914:	2200      	movs	r2, #0
10012916:	f88d 3114 	strb.w	r3, [sp, #276]	@ 0x114
1001291a:	2301      	movs	r3, #1
1001291c:	f88d 209f 	strb.w	r2, [sp, #159]	@ 0x9f
10012920:	9306      	str	r3, [sp, #24]
10012922:	920c      	str	r2, [sp, #48]	@ 0x30
10012924:	469b      	mov	fp, r3
10012926:	9208      	str	r2, [sp, #32]
10012928:	9214      	str	r2, [sp, #80]	@ 0x50
1001292a:	9210      	str	r2, [sp, #64]	@ 0x40
1001292c:	9212      	str	r2, [sp, #72]	@ 0x48
1001292e:	ad45      	add	r5, sp, #276	@ 0x114
10012930:	f019 0302 	ands.w	r3, r9, #2
10012934:	d002      	beq.n	1001293c <_svfprintf_r+0x274>
10012936:	9906      	ldr	r1, [sp, #24]
10012938:	3102      	adds	r1, #2
1001293a:	9106      	str	r1, [sp, #24]
1001293c:	f019 0784 	ands.w	r7, r9, #132	@ 0x84
10012940:	9c34      	ldr	r4, [sp, #208]	@ 0xd0
10012942:	d105      	bne.n	10012950 <_svfprintf_r+0x288>
10012944:	990b      	ldr	r1, [sp, #44]	@ 0x2c
10012946:	9806      	ldr	r0, [sp, #24]
10012948:	1a0e      	subs	r6, r1, r0
1001294a:	2e00      	cmp	r6, #0
1001294c:	f300 80aa 	bgt.w	10012aa4 <_svfprintf_r+0x3dc>
10012950:	b182      	cbz	r2, 10012974 <_svfprintf_r+0x2ac>
10012952:	2201      	movs	r2, #1
10012954:	f8c8 2004 	str.w	r2, [r8, #4]
10012958:	9a33      	ldr	r2, [sp, #204]	@ 0xcc
1001295a:	3201      	adds	r2, #1
1001295c:	3401      	adds	r4, #1
1001295e:	f10d 019f 	add.w	r1, sp, #159	@ 0x9f
10012962:	2a07      	cmp	r2, #7
10012964:	9434      	str	r4, [sp, #208]	@ 0xd0
10012966:	9233      	str	r2, [sp, #204]	@ 0xcc
10012968:	f8c8 1000 	str.w	r1, [r8]
1001296c:	f300 8405 	bgt.w	1001317a <_svfprintf_r+0xab2>
10012970:	f108 0808 	add.w	r8, r8, #8
10012974:	b183      	cbz	r3, 10012998 <_svfprintf_r+0x2d0>
10012976:	9b33      	ldr	r3, [sp, #204]	@ 0xcc
10012978:	aa28      	add	r2, sp, #160	@ 0xa0
1001297a:	3301      	adds	r3, #1
1001297c:	3402      	adds	r4, #2
1001297e:	f8c8 2000 	str.w	r2, [r8]
10012982:	2b07      	cmp	r3, #7
10012984:	f04f 0202 	mov.w	r2, #2
10012988:	9434      	str	r4, [sp, #208]	@ 0xd0
1001298a:	9333      	str	r3, [sp, #204]	@ 0xcc
1001298c:	f8c8 2004 	str.w	r2, [r8, #4]
10012990:	f300 83e7 	bgt.w	10013162 <_svfprintf_r+0xa9a>
10012994:	f108 0808 	add.w	r8, r8, #8
10012998:	2f80      	cmp	r7, #128	@ 0x80
1001299a:	f000 82c0 	beq.w	10012f1e <_svfprintf_r+0x856>
1001299e:	9b08      	ldr	r3, [sp, #32]
100129a0:	eba3 060b 	sub.w	r6, r3, fp
100129a4:	2e00      	cmp	r6, #0
100129a6:	f300 82ff 	bgt.w	10012fa8 <_svfprintf_r+0x8e0>
100129aa:	f419 7f80 	tst.w	r9, #256	@ 0x100
100129ae:	f040 8219 	bne.w	10012de4 <_svfprintf_r+0x71c>
100129b2:	9b33      	ldr	r3, [sp, #204]	@ 0xcc
100129b4:	f8c8 5000 	str.w	r5, [r8]
100129b8:	3301      	adds	r3, #1
100129ba:	445c      	add	r4, fp
100129bc:	2b07      	cmp	r3, #7
100129be:	f8c8 b004 	str.w	fp, [r8, #4]
100129c2:	9434      	str	r4, [sp, #208]	@ 0xd0
100129c4:	9333      	str	r3, [sp, #204]	@ 0xcc
100129c6:	f300 836c 	bgt.w	100130a2 <_svfprintf_r+0x9da>
100129ca:	f108 0808 	add.w	r8, r8, #8
100129ce:	f019 0f04 	tst.w	r9, #4
100129d2:	d005      	beq.n	100129e0 <_svfprintf_r+0x318>
100129d4:	9b0b      	ldr	r3, [sp, #44]	@ 0x2c
100129d6:	9a06      	ldr	r2, [sp, #24]
100129d8:	1a9d      	subs	r5, r3, r2
100129da:	2d00      	cmp	r5, #0
100129dc:	f300 83dc 	bgt.w	10013198 <_svfprintf_r+0xad0>
100129e0:	e9dd 320a 	ldrd	r3, r2, [sp, #40]	@ 0x28
100129e4:	9906      	ldr	r1, [sp, #24]
100129e6:	428a      	cmp	r2, r1
100129e8:	bfac      	ite	ge
100129ea:	189b      	addge	r3, r3, r2
100129ec:	185b      	addlt	r3, r3, r1
100129ee:	930a      	str	r3, [sp, #40]	@ 0x28
100129f0:	2c00      	cmp	r4, #0
100129f2:	f040 8318 	bne.w	10013026 <_svfprintf_r+0x95e>
100129f6:	2300      	movs	r3, #0
100129f8:	9333      	str	r3, [sp, #204]	@ 0xcc
100129fa:	9b0c      	ldr	r3, [sp, #48]	@ 0x30
100129fc:	b11b      	cbz	r3, 10012a06 <_svfprintf_r+0x33e>
100129fe:	990c      	ldr	r1, [sp, #48]	@ 0x30
10012a00:	9807      	ldr	r0, [sp, #28]
10012a02:	f003 fe1f 	bl	10016644 <_free_r>
10012a06:	f10d 08d4 	add.w	r8, sp, #212	@ 0xd4
10012a0a:	9d0f      	ldr	r5, [sp, #60]	@ 0x3c
10012a0c:	e68c      	b.n	10012728 <_svfprintf_r+0x60>
10012a0e:	e9cd 340e 	strd	r3, r4, [sp, #56]	@ 0x38
10012a12:	9b0d      	ldr	r3, [sp, #52]	@ 0x34
10012a14:	3307      	adds	r3, #7
10012a16:	f023 0307 	bic.w	r3, r3, #7
10012a1a:	ecb3 7b02 	vldmia	r3!, {d7}
10012a1e:	ec57 6b17 	vmov	r6, r7, d7
10012a22:	930d      	str	r3, [sp, #52]	@ 0x34
10012a24:	f027 4300 	bic.w	r3, r7, #2147483648	@ 0x80000000
10012a28:	9323      	str	r3, [sp, #140]	@ 0x8c
10012a2a:	ed8d 7a22 	vstr	s14, [sp, #136]	@ 0x88
10012a2e:	e9dd ab22 	ldrd	sl, fp, [sp, #136]	@ 0x88
10012a32:	4bb1      	ldr	r3, [pc, #708]	@ (10012cf8 <_svfprintf_r+0x630>)
10012a34:	f04f 32ff 	mov.w	r2, #4294967295	@ 0xffffffff
10012a38:	4650      	mov	r0, sl
10012a3a:	4659      	mov	r1, fp
10012a3c:	ed8d 7b16 	vstr	d7, [sp, #88]	@ 0x58
10012a40:	f008 fbb0 	bl	1001b1a4 <__aeabi_dcmpun>
10012a44:	2800      	cmp	r0, #0
10012a46:	f040 8546 	bne.w	100134d6 <_svfprintf_r+0xe0e>
10012a4a:	4bab      	ldr	r3, [pc, #684]	@ (10012cf8 <_svfprintf_r+0x630>)
10012a4c:	f04f 32ff 	mov.w	r2, #4294967295	@ 0xffffffff
10012a50:	4650      	mov	r0, sl
10012a52:	4659      	mov	r1, fp
10012a54:	f008 fb88 	bl	1001b168 <__aeabi_dcmple>
10012a58:	2800      	cmp	r0, #0
10012a5a:	f040 853c 	bne.w	100134d6 <_svfprintf_r+0xe0e>
10012a5e:	2200      	movs	r2, #0
10012a60:	2300      	movs	r3, #0
10012a62:	4630      	mov	r0, r6
10012a64:	4639      	mov	r1, r7
10012a66:	f008 fb75 	bl	1001b154 <__aeabi_dcmplt>
10012a6a:	2800      	cmp	r0, #0
10012a6c:	f041 8051 	bne.w	10013b12 <_svfprintf_r+0x144a>
10012a70:	f89d 209f 	ldrb.w	r2, [sp, #159]	@ 0x9f
10012a74:	4da1      	ldr	r5, [pc, #644]	@ (10012cfc <_svfprintf_r+0x634>)
10012a76:	4ba2      	ldr	r3, [pc, #648]	@ (10012d00 <_svfprintf_r+0x638>)
10012a78:	f029 0980 	bic.w	r9, r9, #128	@ 0x80
10012a7c:	990e      	ldr	r1, [sp, #56]	@ 0x38
10012a7e:	2947      	cmp	r1, #71	@ 0x47
10012a80:	bfc8      	it	gt
10012a82:	461d      	movgt	r5, r3
10012a84:	2300      	movs	r3, #0
10012a86:	2103      	movs	r1, #3
10012a88:	930c      	str	r3, [sp, #48]	@ 0x30
10012a8a:	9106      	str	r1, [sp, #24]
10012a8c:	468b      	mov	fp, r1
10012a8e:	9308      	str	r3, [sp, #32]
10012a90:	9314      	str	r3, [sp, #80]	@ 0x50
10012a92:	9310      	str	r3, [sp, #64]	@ 0x40
10012a94:	9312      	str	r3, [sp, #72]	@ 0x48
10012a96:	2a00      	cmp	r2, #0
10012a98:	f43f af4a 	beq.w	10012930 <_svfprintf_r+0x268>
10012a9c:	9b06      	ldr	r3, [sp, #24]
10012a9e:	3301      	adds	r3, #1
10012aa0:	9306      	str	r3, [sp, #24]
10012aa2:	e745      	b.n	10012930 <_svfprintf_r+0x268>
10012aa4:	2e10      	cmp	r6, #16
10012aa6:	9a33      	ldr	r2, [sp, #204]	@ 0xcc
10012aa8:	f341 8276 	ble.w	10013f98 <_svfprintf_r+0x18d0>
10012aac:	4895      	ldr	r0, [pc, #596]	@ (10012d04 <_svfprintf_r+0x63c>)
10012aae:	9521      	str	r5, [sp, #132]	@ 0x84
10012ab0:	e9cd 371f 	strd	r3, r7, [sp, #124]	@ 0x7c
10012ab4:	4621      	mov	r1, r4
10012ab6:	9d09      	ldr	r5, [sp, #36]	@ 0x24
10012ab8:	9c07      	ldr	r4, [sp, #28]
10012aba:	9015      	str	r0, [sp, #84]	@ 0x54
10012abc:	f04f 0a10 	mov.w	sl, #16
10012ac0:	4607      	mov	r7, r0
10012ac2:	e004      	b.n	10012ace <_svfprintf_r+0x406>
10012ac4:	3e10      	subs	r6, #16
10012ac6:	2e10      	cmp	r6, #16
10012ac8:	f108 0808 	add.w	r8, r8, #8
10012acc:	dd16      	ble.n	10012afc <_svfprintf_r+0x434>
10012ace:	3201      	adds	r2, #1
10012ad0:	3110      	adds	r1, #16
10012ad2:	2a07      	cmp	r2, #7
10012ad4:	e9c8 7a00 	strd	r7, sl, [r8]
10012ad8:	e9cd 2133 	strd	r2, r1, [sp, #204]	@ 0xcc
10012adc:	ddf2      	ble.n	10012ac4 <_svfprintf_r+0x3fc>
10012ade:	aa32      	add	r2, sp, #200	@ 0xc8
10012ae0:	4629      	mov	r1, r5
10012ae2:	4620      	mov	r0, r4
10012ae4:	f10d 08d4 	add.w	r8, sp, #212	@ 0xd4
10012ae8:	f004 f8b0 	bl	10016c4c <__ssprint_r>
10012aec:	2800      	cmp	r0, #0
10012aee:	f040 86f0 	bne.w	100138d2 <_svfprintf_r+0x120a>
10012af2:	3e10      	subs	r6, #16
10012af4:	2e10      	cmp	r6, #16
10012af6:	e9dd 2133 	ldrd	r2, r1, [sp, #204]	@ 0xcc
10012afa:	dce8      	bgt.n	10012ace <_svfprintf_r+0x406>
10012afc:	e9dd 371f 	ldrd	r3, r7, [sp, #124]	@ 0x7c
10012b00:	9d21      	ldr	r5, [sp, #132]	@ 0x84
10012b02:	460c      	mov	r4, r1
10012b04:	3201      	adds	r2, #1
10012b06:	9915      	ldr	r1, [sp, #84]	@ 0x54
10012b08:	f8c8 1000 	str.w	r1, [r8]
10012b0c:	4434      	add	r4, r6
10012b0e:	2a07      	cmp	r2, #7
10012b10:	e9cd 2433 	strd	r2, r4, [sp, #204]	@ 0xcc
10012b14:	f8c8 6004 	str.w	r6, [r8, #4]
10012b18:	f300 86ca 	bgt.w	100138b0 <_svfprintf_r+0x11e8>
10012b1c:	f89d 209f 	ldrb.w	r2, [sp, #159]	@ 0x9f
10012b20:	f108 0808 	add.w	r8, r8, #8
10012b24:	e714      	b.n	10012950 <_svfprintf_r+0x288>
10012b26:	9a0d      	ldr	r2, [sp, #52]	@ 0x34
10012b28:	2b43      	cmp	r3, #67	@ 0x43
10012b2a:	e9cd 340e 	strd	r3, r4, [sp, #56]	@ 0x38
10012b2e:	f102 0404 	add.w	r4, r2, #4
10012b32:	d003      	beq.n	10012b3c <_svfprintf_r+0x474>
10012b34:	f019 0f10 	tst.w	r9, #16
10012b38:	f000 855c 	beq.w	100135f4 <_svfprintf_r+0xf2c>
10012b3c:	2208      	movs	r2, #8
10012b3e:	2100      	movs	r1, #0
10012b40:	a830      	add	r0, sp, #192	@ 0xc0
10012b42:	f001 fed5 	bl	100148f0 <memset>
10012b46:	9b0d      	ldr	r3, [sp, #52]	@ 0x34
10012b48:	9807      	ldr	r0, [sp, #28]
10012b4a:	681a      	ldr	r2, [r3, #0]
10012b4c:	ad45      	add	r5, sp, #276	@ 0x114
10012b4e:	ab30      	add	r3, sp, #192	@ 0xc0
10012b50:	4629      	mov	r1, r5
10012b52:	f001 ff1f 	bl	10014994 <_wcrtomb_r>
10012b56:	f1b0 3fff 	cmp.w	r0, #4294967295	@ 0xffffffff
10012b5a:	4683      	mov	fp, r0
10012b5c:	f001 827e 	beq.w	1001405c <_svfprintf_r+0x1994>
10012b60:	ea20 73e0 	bic.w	r3, r0, r0, asr #31
10012b64:	9306      	str	r3, [sp, #24]
10012b66:	2200      	movs	r2, #0
10012b68:	940d      	str	r4, [sp, #52]	@ 0x34
10012b6a:	f88d 209f 	strb.w	r2, [sp, #159]	@ 0x9f
10012b6e:	920c      	str	r2, [sp, #48]	@ 0x30
10012b70:	9208      	str	r2, [sp, #32]
10012b72:	9214      	str	r2, [sp, #80]	@ 0x50
10012b74:	9210      	str	r2, [sp, #64]	@ 0x40
10012b76:	9212      	str	r2, [sp, #72]	@ 0x48
10012b78:	e6da      	b.n	10012930 <_svfprintf_r+0x268>
10012b7a:	9e0d      	ldr	r6, [sp, #52]	@ 0x34
10012b7c:	f856 5b04 	ldr.w	r5, [r6], #4
10012b80:	e9cd 340e 	strd	r3, r4, [sp, #56]	@ 0x38
10012b84:	2300      	movs	r3, #0
10012b86:	f88d 309f 	strb.w	r3, [sp, #159]	@ 0x9f
10012b8a:	2d00      	cmp	r5, #0
10012b8c:	f000 8557 	beq.w	1001363e <_svfprintf_r+0xf76>
10012b90:	9b0e      	ldr	r3, [sp, #56]	@ 0x38
10012b92:	2b53      	cmp	r3, #83	@ 0x53
10012b94:	f000 86b9 	beq.w	1001390a <_svfprintf_r+0x1242>
10012b98:	f019 0310 	ands.w	r3, r9, #16
10012b9c:	9312      	str	r3, [sp, #72]	@ 0x48
10012b9e:	f040 86b4 	bne.w	1001390a <_svfprintf_r+0x1242>
10012ba2:	9b08      	ldr	r3, [sp, #32]
10012ba4:	1c5a      	adds	r2, r3, #1
10012ba6:	f001 8092 	beq.w	10013cce <_svfprintf_r+0x1606>
10012baa:	9912      	ldr	r1, [sp, #72]	@ 0x48
10012bac:	461a      	mov	r2, r3
10012bae:	4628      	mov	r0, r5
10012bb0:	f003 f9b6 	bl	10015f20 <memchr>
10012bb4:	900c      	str	r0, [sp, #48]	@ 0x30
10012bb6:	2800      	cmp	r0, #0
10012bb8:	f001 82ed 	beq.w	10014196 <_svfprintf_r+0x1ace>
10012bbc:	9b0c      	ldr	r3, [sp, #48]	@ 0x30
10012bbe:	960d      	str	r6, [sp, #52]	@ 0x34
10012bc0:	eba3 0b05 	sub.w	fp, r3, r5
10012bc4:	9b12      	ldr	r3, [sp, #72]	@ 0x48
10012bc6:	9308      	str	r3, [sp, #32]
10012bc8:	ea2b 71eb 	bic.w	r1, fp, fp, asr #31
10012bcc:	9314      	str	r3, [sp, #80]	@ 0x50
10012bce:	9310      	str	r3, [sp, #64]	@ 0x40
10012bd0:	930c      	str	r3, [sp, #48]	@ 0x30
10012bd2:	2373      	movs	r3, #115	@ 0x73
10012bd4:	f89d 209f 	ldrb.w	r2, [sp, #159]	@ 0x9f
10012bd8:	9106      	str	r1, [sp, #24]
10012bda:	930e      	str	r3, [sp, #56]	@ 0x38
10012bdc:	e75b      	b.n	10012a96 <_svfprintf_r+0x3ce>
10012bde:	f019 0f20 	tst.w	r9, #32
10012be2:	e9cd 340e 	strd	r3, r4, [sp, #56]	@ 0x38
10012be6:	f000 80ec 	beq.w	10012dc2 <_svfprintf_r+0x6fa>
10012bea:	9b0d      	ldr	r3, [sp, #52]	@ 0x34
10012bec:	3307      	adds	r3, #7
10012bee:	f023 0307 	bic.w	r3, r3, #7
10012bf2:	461a      	mov	r2, r3
10012bf4:	6859      	ldr	r1, [r3, #4]
10012bf6:	f852 3b08 	ldr.w	r3, [r2], #8
10012bfa:	920d      	str	r2, [sp, #52]	@ 0x34
10012bfc:	460a      	mov	r2, r1
10012bfe:	2900      	cmp	r1, #0
10012c00:	f2c0 8419 	blt.w	10013436 <_svfprintf_r+0xd6e>
10012c04:	9908      	ldr	r1, [sp, #32]
10012c06:	3101      	adds	r1, #1
10012c08:	f000 829c 	beq.w	10013144 <_svfprintf_r+0xa7c>
10012c0c:	ea53 0102 	orrs.w	r1, r3, r2
10012c10:	f029 0480 	bic.w	r4, r9, #128	@ 0x80
10012c14:	f040 8297 	bne.w	10013146 <_svfprintf_r+0xa7e>
10012c18:	9a08      	ldr	r2, [sp, #32]
10012c1a:	2a00      	cmp	r2, #0
10012c1c:	f040 8298 	bne.w	10013150 <_svfprintf_r+0xa88>
10012c20:	46a1      	mov	r9, r4
10012c22:	4693      	mov	fp, r2
10012c24:	ad5e      	add	r5, sp, #376	@ 0x178
10012c26:	e151      	b.n	10012ecc <_svfprintf_r+0x804>
10012c28:	9b0d      	ldr	r3, [sp, #52]	@ 0x34
10012c2a:	f853 2b04 	ldr.w	r2, [r3], #4
10012c2e:	920b      	str	r2, [sp, #44]	@ 0x2c
10012c30:	2a00      	cmp	r2, #0
10012c32:	f280 8424 	bge.w	1001347e <_svfprintf_r+0xdb6>
10012c36:	9a0b      	ldr	r2, [sp, #44]	@ 0x2c
10012c38:	930d      	str	r3, [sp, #52]	@ 0x34
10012c3a:	4252      	negs	r2, r2
10012c3c:	920b      	str	r2, [sp, #44]	@ 0x2c
10012c3e:	7823      	ldrb	r3, [r4, #0]
10012c40:	f049 0904 	orr.w	r9, r9, #4
10012c44:	e597      	b.n	10012776 <_svfprintf_r+0xae>
10012c46:	232b      	movs	r3, #43	@ 0x2b
10012c48:	f88d 309f 	strb.w	r3, [sp, #159]	@ 0x9f
10012c4c:	7823      	ldrb	r3, [r4, #0]
10012c4e:	e592      	b.n	10012776 <_svfprintf_r+0xae>
10012c50:	e9cd 340e 	strd	r3, r4, [sp, #56]	@ 0x38
10012c54:	f049 0910 	orr.w	r9, r9, #16
10012c58:	f019 0220 	ands.w	r2, r9, #32
10012c5c:	f000 83b4 	beq.w	100133c8 <_svfprintf_r+0xd00>
10012c60:	9b0d      	ldr	r3, [sp, #52]	@ 0x34
10012c62:	3307      	adds	r3, #7
10012c64:	f023 0307 	bic.w	r3, r3, #7
10012c68:	4619      	mov	r1, r3
10012c6a:	685a      	ldr	r2, [r3, #4]
10012c6c:	f851 3b08 	ldr.w	r3, [r1], #8
10012c70:	910d      	str	r1, [sp, #52]	@ 0x34
10012c72:	f429 6480 	bic.w	r4, r9, #1024	@ 0x400
10012c76:	2100      	movs	r1, #0
10012c78:	2000      	movs	r0, #0
10012c7a:	9d08      	ldr	r5, [sp, #32]
10012c7c:	f88d 009f 	strb.w	r0, [sp, #159]	@ 0x9f
10012c80:	1c6f      	adds	r7, r5, #1
10012c82:	f000 810c 	beq.w	10012e9e <_svfprintf_r+0x7d6>
10012c86:	ea53 0002 	orrs.w	r0, r3, r2
10012c8a:	f024 0980 	bic.w	r9, r4, #128	@ 0x80
10012c8e:	f040 8105 	bne.w	10012e9c <_svfprintf_r+0x7d4>
10012c92:	2d00      	cmp	r5, #0
10012c94:	f040 8627 	bne.w	100138e6 <_svfprintf_r+0x121e>
10012c98:	2900      	cmp	r1, #0
10012c9a:	f040 83c8 	bne.w	1001342e <_svfprintf_r+0xd66>
10012c9e:	f014 0b01 	ands.w	fp, r4, #1
10012ca2:	f000 83f0 	beq.w	10013486 <_svfprintf_r+0xdbe>
10012ca6:	2330      	movs	r3, #48	@ 0x30
10012ca8:	f88d 3177 	strb.w	r3, [sp, #375]	@ 0x177
10012cac:	f20d 1577 	addw	r5, sp, #375	@ 0x177
10012cb0:	e10c      	b.n	10012ecc <_svfprintf_r+0x804>
10012cb2:	7823      	ldrb	r3, [r4, #0]
10012cb4:	2b68      	cmp	r3, #104	@ 0x68
10012cb6:	bf03      	ittte	eq
10012cb8:	7863      	ldrbeq	r3, [r4, #1]
10012cba:	f449 7900 	orreq.w	r9, r9, #512	@ 0x200
10012cbe:	3401      	addeq	r4, #1
10012cc0:	f049 0940 	orrne.w	r9, r9, #64	@ 0x40
10012cc4:	e557      	b.n	10012776 <_svfprintf_r+0xae>
10012cc6:	f019 0f20 	tst.w	r9, #32
10012cca:	940f      	str	r4, [sp, #60]	@ 0x3c
10012ccc:	f000 83e5 	beq.w	1001349a <_svfprintf_r+0xdd2>
10012cd0:	9b0d      	ldr	r3, [sp, #52]	@ 0x34
10012cd2:	9a0a      	ldr	r2, [sp, #40]	@ 0x28
10012cd4:	681b      	ldr	r3, [r3, #0]
10012cd6:	601a      	str	r2, [r3, #0]
10012cd8:	17d2      	asrs	r2, r2, #31
10012cda:	605a      	str	r2, [r3, #4]
10012cdc:	9b0d      	ldr	r3, [sp, #52]	@ 0x34
10012cde:	3304      	adds	r3, #4
10012ce0:	930d      	str	r3, [sp, #52]	@ 0x34
10012ce2:	e692      	b.n	10012a0a <_svfprintf_r+0x342>
10012ce4:	7823      	ldrb	r3, [r4, #0]
10012ce6:	2b6c      	cmp	r3, #108	@ 0x6c
10012ce8:	bf03      	ittte	eq
10012cea:	7863      	ldrbeq	r3, [r4, #1]
10012cec:	f049 0920 	orreq.w	r9, r9, #32
10012cf0:	3401      	addeq	r4, #1
10012cf2:	f049 0910 	orrne.w	r9, r9, #16
10012cf6:	e53e      	b.n	10012776 <_svfprintf_r+0xae>
10012cf8:	7fefffff 	.word	0x7fefffff
10012cfc:	1001d91c 	.word	0x1001d91c
10012d00:	1001d920 	.word	0x1001d920
10012d04:	1001d970 	.word	0x1001d970
10012d08:	9a0d      	ldr	r2, [sp, #52]	@ 0x34
10012d0a:	940f      	str	r4, [sp, #60]	@ 0x3c
10012d0c:	f852 3b04 	ldr.w	r3, [r2], #4
10012d10:	920d      	str	r2, [sp, #52]	@ 0x34
10012d12:	f647 0230 	movw	r2, #30768	@ 0x7830
10012d16:	f8ad 20a0 	strh.w	r2, [sp, #160]	@ 0xa0
10012d1a:	2078      	movs	r0, #120	@ 0x78
10012d1c:	4aa8      	ldr	r2, [pc, #672]	@ (10012fc0 <_svfprintf_r+0x8f8>)
10012d1e:	9219      	str	r2, [sp, #100]	@ 0x64
10012d20:	f049 0402 	orr.w	r4, r9, #2
10012d24:	2200      	movs	r2, #0
10012d26:	2102      	movs	r1, #2
10012d28:	900e      	str	r0, [sp, #56]	@ 0x38
10012d2a:	e7a5      	b.n	10012c78 <_svfprintf_r+0x5b0>
10012d2c:	e9cd 340e 	strd	r3, r4, [sp, #56]	@ 0x38
10012d30:	f049 0410 	orr.w	r4, r9, #16
10012d34:	f014 0220 	ands.w	r2, r4, #32
10012d38:	f000 8355 	beq.w	100133e6 <_svfprintf_r+0xd1e>
10012d3c:	9b0d      	ldr	r3, [sp, #52]	@ 0x34
10012d3e:	3307      	adds	r3, #7
10012d40:	f023 0307 	bic.w	r3, r3, #7
10012d44:	4619      	mov	r1, r3
10012d46:	685a      	ldr	r2, [r3, #4]
10012d48:	f851 3b08 	ldr.w	r3, [r1], #8
10012d4c:	910d      	str	r1, [sp, #52]	@ 0x34
10012d4e:	2101      	movs	r1, #1
10012d50:	e792      	b.n	10012c78 <_svfprintf_r+0x5b0>
10012d52:	7823      	ldrb	r3, [r4, #0]
10012d54:	f049 0908 	orr.w	r9, r9, #8
10012d58:	e50d      	b.n	10012776 <_svfprintf_r+0xae>
10012d5a:	7823      	ldrb	r3, [r4, #0]
10012d5c:	f049 0901 	orr.w	r9, r9, #1
10012d60:	e509      	b.n	10012776 <_svfprintf_r+0xae>
10012d62:	f89d 209f 	ldrb.w	r2, [sp, #159]	@ 0x9f
10012d66:	7823      	ldrb	r3, [r4, #0]
10012d68:	2a00      	cmp	r2, #0
10012d6a:	f47f ad04 	bne.w	10012776 <_svfprintf_r+0xae>
10012d6e:	2220      	movs	r2, #32
10012d70:	f88d 209f 	strb.w	r2, [sp, #159]	@ 0x9f
10012d74:	e4ff      	b.n	10012776 <_svfprintf_r+0xae>
10012d76:	7823      	ldrb	r3, [r4, #0]
10012d78:	f049 0980 	orr.w	r9, r9, #128	@ 0x80
10012d7c:	e4fb      	b.n	10012776 <_svfprintf_r+0xae>
10012d7e:	4621      	mov	r1, r4
10012d80:	f811 3b01 	ldrb.w	r3, [r1], #1
10012d84:	2b2a      	cmp	r3, #42	@ 0x2a
10012d86:	f001 8229 	beq.w	100141dc <_svfprintf_r+0x1b14>
10012d8a:	f1a3 0230 	sub.w	r2, r3, #48	@ 0x30
10012d8e:	2a09      	cmp	r2, #9
10012d90:	460c      	mov	r4, r1
10012d92:	bf98      	it	ls
10012d94:	2100      	movls	r1, #0
10012d96:	f201 8130 	bhi.w	10013ffa <_svfprintf_r+0x1932>
10012d9a:	f814 3b01 	ldrb.w	r3, [r4], #1
10012d9e:	eb01 0181 	add.w	r1, r1, r1, lsl #2
10012da2:	eb02 0141 	add.w	r1, r2, r1, lsl #1
10012da6:	f1a3 0230 	sub.w	r2, r3, #48	@ 0x30
10012daa:	2a09      	cmp	r2, #9
10012dac:	d9f5      	bls.n	10012d9a <_svfprintf_r+0x6d2>
10012dae:	9108      	str	r1, [sp, #32]
10012db0:	e4e2      	b.n	10012778 <_svfprintf_r+0xb0>
10012db2:	f049 0910 	orr.w	r9, r9, #16
10012db6:	f019 0f20 	tst.w	r9, #32
10012dba:	e9cd 340e 	strd	r3, r4, [sp, #56]	@ 0x38
10012dbe:	f47f af14 	bne.w	10012bea <_svfprintf_r+0x522>
10012dc2:	9a0d      	ldr	r2, [sp, #52]	@ 0x34
10012dc4:	f019 0f10 	tst.w	r9, #16
10012dc8:	f852 3b04 	ldr.w	r3, [r2], #4
10012dcc:	920d      	str	r2, [sp, #52]	@ 0x34
10012dce:	f040 8360 	bne.w	10013492 <_svfprintf_r+0xdca>
10012dd2:	f019 0f40 	tst.w	r9, #64	@ 0x40
10012dd6:	f000 8358 	beq.w	1001348a <_svfprintf_r+0xdc2>
10012dda:	f343 32c0 	sbfx	r2, r3, #15, #1
10012dde:	4611      	mov	r1, r2
10012de0:	b21b      	sxth	r3, r3
10012de2:	e70c      	b.n	10012bfe <_svfprintf_r+0x536>
10012de4:	9b0e      	ldr	r3, [sp, #56]	@ 0x38
10012de6:	2b65      	cmp	r3, #101	@ 0x65
10012de8:	f340 8166 	ble.w	100130b8 <_svfprintf_r+0x9f0>
10012dec:	e9dd 0116 	ldrd	r0, r1, [sp, #88]	@ 0x58
10012df0:	2200      	movs	r2, #0
10012df2:	2300      	movs	r3, #0
10012df4:	f008 f9a4 	bl	1001b140 <__aeabi_dcmpeq>
10012df8:	2800      	cmp	r0, #0
10012dfa:	f000 8211 	beq.w	10013220 <_svfprintf_r+0xb58>
10012dfe:	9b33      	ldr	r3, [sp, #204]	@ 0xcc
10012e00:	4a70      	ldr	r2, [pc, #448]	@ (10012fc4 <_svfprintf_r+0x8fc>)
10012e02:	f8c8 2000 	str.w	r2, [r8]
10012e06:	3301      	adds	r3, #1
10012e08:	3401      	adds	r4, #1
10012e0a:	2201      	movs	r2, #1
10012e0c:	2b07      	cmp	r3, #7
10012e0e:	9434      	str	r4, [sp, #208]	@ 0xd0
10012e10:	9333      	str	r3, [sp, #204]	@ 0xcc
10012e12:	f8c8 2004 	str.w	r2, [r8, #4]
10012e16:	f300 856b 	bgt.w	100138f0 <_svfprintf_r+0x1228>
10012e1a:	f108 0808 	add.w	r8, r8, #8
10012e1e:	9b29      	ldr	r3, [sp, #164]	@ 0xa4
10012e20:	9a13      	ldr	r2, [sp, #76]	@ 0x4c
10012e22:	4293      	cmp	r3, r2
10012e24:	f280 8326 	bge.w	10013474 <_svfprintf_r+0xdac>
10012e28:	9b18      	ldr	r3, [sp, #96]	@ 0x60
10012e2a:	9a1a      	ldr	r2, [sp, #104]	@ 0x68
10012e2c:	441c      	add	r4, r3
10012e2e:	e9c8 2300 	strd	r2, r3, [r8]
10012e32:	9b33      	ldr	r3, [sp, #204]	@ 0xcc
10012e34:	9434      	str	r4, [sp, #208]	@ 0xd0
10012e36:	3301      	adds	r3, #1
10012e38:	2b07      	cmp	r3, #7
10012e3a:	9333      	str	r3, [sp, #204]	@ 0xcc
10012e3c:	f300 83e4 	bgt.w	10013608 <_svfprintf_r+0xf40>
10012e40:	f108 0808 	add.w	r8, r8, #8
10012e44:	9b13      	ldr	r3, [sp, #76]	@ 0x4c
10012e46:	1e5d      	subs	r5, r3, #1
10012e48:	2d00      	cmp	r5, #0
10012e4a:	f77f adc0 	ble.w	100129ce <_svfprintf_r+0x306>
10012e4e:	2d10      	cmp	r5, #16
10012e50:	9b33      	ldr	r3, [sp, #204]	@ 0xcc
10012e52:	f340 85ad 	ble.w	100139b0 <_svfprintf_r+0x12e8>
10012e56:	4f5c      	ldr	r7, [pc, #368]	@ (10012fc8 <_svfprintf_r+0x900>)
10012e58:	f8dd b01c 	ldr.w	fp, [sp, #28]
10012e5c:	f8dd a024 	ldr.w	sl, [sp, #36]	@ 0x24
10012e60:	9715      	str	r7, [sp, #84]	@ 0x54
10012e62:	2610      	movs	r6, #16
10012e64:	e005      	b.n	10012e72 <_svfprintf_r+0x7aa>
10012e66:	f108 0808 	add.w	r8, r8, #8
10012e6a:	3d10      	subs	r5, #16
10012e6c:	2d10      	cmp	r5, #16
10012e6e:	f340 85a1 	ble.w	100139b4 <_svfprintf_r+0x12ec>
10012e72:	3301      	adds	r3, #1
10012e74:	3410      	adds	r4, #16
10012e76:	2b07      	cmp	r3, #7
10012e78:	e9c8 7600 	strd	r7, r6, [r8]
10012e7c:	e9cd 3433 	strd	r3, r4, [sp, #204]	@ 0xcc
10012e80:	ddf1      	ble.n	10012e66 <_svfprintf_r+0x79e>
10012e82:	aa32      	add	r2, sp, #200	@ 0xc8
10012e84:	4651      	mov	r1, sl
10012e86:	4658      	mov	r0, fp
10012e88:	f003 fee0 	bl	10016c4c <__ssprint_r>
10012e8c:	2800      	cmp	r0, #0
10012e8e:	f040 82c0 	bne.w	10013412 <_svfprintf_r+0xd4a>
10012e92:	e9dd 3433 	ldrd	r3, r4, [sp, #204]	@ 0xcc
10012e96:	f10d 08d4 	add.w	r8, sp, #212	@ 0xd4
10012e9a:	e7e6      	b.n	10012e6a <_svfprintf_r+0x7a2>
10012e9c:	464c      	mov	r4, r9
10012e9e:	2901      	cmp	r1, #1
10012ea0:	f000 8151 	beq.w	10013146 <_svfprintf_r+0xa7e>
10012ea4:	2902      	cmp	r1, #2
10012ea6:	ad5e      	add	r5, sp, #376	@ 0x178
10012ea8:	d11e      	bne.n	10012ee8 <_svfprintf_r+0x820>
10012eaa:	9819      	ldr	r0, [sp, #100]	@ 0x64
10012eac:	f003 010f 	and.w	r1, r3, #15
10012eb0:	091b      	lsrs	r3, r3, #4
10012eb2:	5c41      	ldrb	r1, [r0, r1]
10012eb4:	f805 1d01 	strb.w	r1, [r5, #-1]!
10012eb8:	ea43 7302 	orr.w	r3, r3, r2, lsl #28
10012ebc:	0912      	lsrs	r2, r2, #4
10012ebe:	ea53 0102 	orrs.w	r1, r3, r2
10012ec2:	d1f3      	bne.n	10012eac <_svfprintf_r+0x7e4>
10012ec4:	ab5e      	add	r3, sp, #376	@ 0x178
10012ec6:	46a1      	mov	r9, r4
10012ec8:	eba3 0b05 	sub.w	fp, r3, r5
10012ecc:	9908      	ldr	r1, [sp, #32]
10012ece:	f89d 209f 	ldrb.w	r2, [sp, #159]	@ 0x9f
10012ed2:	4559      	cmp	r1, fp
10012ed4:	f04f 0300 	mov.w	r3, #0
10012ed8:	bfb8      	it	lt
10012eda:	4659      	movlt	r1, fp
10012edc:	930c      	str	r3, [sp, #48]	@ 0x30
10012ede:	9106      	str	r1, [sp, #24]
10012ee0:	9314      	str	r3, [sp, #80]	@ 0x50
10012ee2:	9310      	str	r3, [sp, #64]	@ 0x40
10012ee4:	9312      	str	r3, [sp, #72]	@ 0x48
10012ee6:	e5d6      	b.n	10012a96 <_svfprintf_r+0x3ce>
10012ee8:	f003 0107 	and.w	r1, r3, #7
10012eec:	08db      	lsrs	r3, r3, #3
10012eee:	ea43 7342 	orr.w	r3, r3, r2, lsl #29
10012ef2:	08d2      	lsrs	r2, r2, #3
10012ef4:	3130      	adds	r1, #48	@ 0x30
10012ef6:	ea53 0602 	orrs.w	r6, r3, r2
10012efa:	4628      	mov	r0, r5
10012efc:	f805 1d01 	strb.w	r1, [r5, #-1]!
10012f00:	d1f2      	bne.n	10012ee8 <_svfprintf_r+0x820>
10012f02:	07e6      	lsls	r6, r4, #31
10012f04:	d5de      	bpl.n	10012ec4 <_svfprintf_r+0x7fc>
10012f06:	2930      	cmp	r1, #48	@ 0x30
10012f08:	d0dc      	beq.n	10012ec4 <_svfprintf_r+0x7fc>
10012f0a:	2330      	movs	r3, #48	@ 0x30
10012f0c:	3802      	subs	r0, #2
10012f0e:	f805 3c01 	strb.w	r3, [r5, #-1]
10012f12:	ab5e      	add	r3, sp, #376	@ 0x178
10012f14:	46a1      	mov	r9, r4
10012f16:	eba3 0b00 	sub.w	fp, r3, r0
10012f1a:	4605      	mov	r5, r0
10012f1c:	e7d6      	b.n	10012ecc <_svfprintf_r+0x804>
10012f1e:	9b0b      	ldr	r3, [sp, #44]	@ 0x2c
10012f20:	9a06      	ldr	r2, [sp, #24]
10012f22:	1a9e      	subs	r6, r3, r2
10012f24:	2e00      	cmp	r6, #0
10012f26:	f77f ad3a 	ble.w	1001299e <_svfprintf_r+0x2d6>
10012f2a:	2e10      	cmp	r6, #16
10012f2c:	9b33      	ldr	r3, [sp, #204]	@ 0xcc
10012f2e:	f341 809f 	ble.w	10014070 <_svfprintf_r+0x19a8>
10012f32:	4825      	ldr	r0, [pc, #148]	@ (10012fc8 <_svfprintf_r+0x900>)
10012f34:	f8dd a01c 	ldr.w	sl, [sp, #28]
10012f38:	9015      	str	r0, [sp, #84]	@ 0x54
10012f3a:	4621      	mov	r1, r4
10012f3c:	2710      	movs	r7, #16
10012f3e:	461a      	mov	r2, r3
10012f40:	4604      	mov	r4, r0
10012f42:	e004      	b.n	10012f4e <_svfprintf_r+0x886>
10012f44:	3e10      	subs	r6, #16
10012f46:	2e10      	cmp	r6, #16
10012f48:	f108 0808 	add.w	r8, r8, #8
10012f4c:	dd16      	ble.n	10012f7c <_svfprintf_r+0x8b4>
10012f4e:	3201      	adds	r2, #1
10012f50:	3110      	adds	r1, #16
10012f52:	2a07      	cmp	r2, #7
10012f54:	e9c8 4700 	strd	r4, r7, [r8]
10012f58:	e9cd 2133 	strd	r2, r1, [sp, #204]	@ 0xcc
10012f5c:	ddf2      	ble.n	10012f44 <_svfprintf_r+0x87c>
10012f5e:	9909      	ldr	r1, [sp, #36]	@ 0x24
10012f60:	aa32      	add	r2, sp, #200	@ 0xc8
10012f62:	4650      	mov	r0, sl
10012f64:	f10d 08d4 	add.w	r8, sp, #212	@ 0xd4
10012f68:	f003 fe70 	bl	10016c4c <__ssprint_r>
10012f6c:	2800      	cmp	r0, #0
10012f6e:	f040 84b2 	bne.w	100138d6 <_svfprintf_r+0x120e>
10012f72:	3e10      	subs	r6, #16
10012f74:	2e10      	cmp	r6, #16
10012f76:	e9dd 2133 	ldrd	r2, r1, [sp, #204]	@ 0xcc
10012f7a:	dce8      	bgt.n	10012f4e <_svfprintf_r+0x886>
10012f7c:	460c      	mov	r4, r1
10012f7e:	4613      	mov	r3, r2
10012f80:	3301      	adds	r3, #1
10012f82:	9a15      	ldr	r2, [sp, #84]	@ 0x54
10012f84:	f8c8 2000 	str.w	r2, [r8]
10012f88:	4434      	add	r4, r6
10012f8a:	2b07      	cmp	r3, #7
10012f8c:	e9cd 3433 	strd	r3, r4, [sp, #204]	@ 0xcc
10012f90:	f8c8 6004 	str.w	r6, [r8, #4]
10012f94:	f300 851c 	bgt.w	100139d0 <_svfprintf_r+0x1308>
10012f98:	9b08      	ldr	r3, [sp, #32]
10012f9a:	eba3 060b 	sub.w	r6, r3, fp
10012f9e:	2e00      	cmp	r6, #0
10012fa0:	f108 0808 	add.w	r8, r8, #8
10012fa4:	f77f ad01 	ble.w	100129aa <_svfprintf_r+0x2e2>
10012fa8:	4a07      	ldr	r2, [pc, #28]	@ (10012fc8 <_svfprintf_r+0x900>)
10012faa:	9b33      	ldr	r3, [sp, #204]	@ 0xcc
10012fac:	9215      	str	r2, [sp, #84]	@ 0x54
10012fae:	2e10      	cmp	r6, #16
10012fb0:	dd2a      	ble.n	10013008 <_svfprintf_r+0x940>
10012fb2:	4622      	mov	r2, r4
10012fb4:	9f07      	ldr	r7, [sp, #28]
10012fb6:	9c09      	ldr	r4, [sp, #36]	@ 0x24
10012fb8:	f04f 0a10 	mov.w	sl, #16
10012fbc:	e00b      	b.n	10012fd6 <_svfprintf_r+0x90e>
10012fbe:	bf00      	nop
10012fc0:	1001d92c 	.word	0x1001d92c
10012fc4:	1001d95c 	.word	0x1001d95c
10012fc8:	1001d960 	.word	0x1001d960
10012fcc:	3e10      	subs	r6, #16
10012fce:	2e10      	cmp	r6, #16
10012fd0:	f108 0808 	add.w	r8, r8, #8
10012fd4:	dd17      	ble.n	10013006 <_svfprintf_r+0x93e>
10012fd6:	3301      	adds	r3, #1
10012fd8:	498e      	ldr	r1, [pc, #568]	@ (10013214 <_svfprintf_r+0xb4c>)
10012fda:	3210      	adds	r2, #16
10012fdc:	2b07      	cmp	r3, #7
10012fde:	e9c8 1a00 	strd	r1, sl, [r8]
10012fe2:	e9cd 3233 	strd	r3, r2, [sp, #204]	@ 0xcc
10012fe6:	ddf1      	ble.n	10012fcc <_svfprintf_r+0x904>
10012fe8:	aa32      	add	r2, sp, #200	@ 0xc8
10012fea:	4621      	mov	r1, r4
10012fec:	4638      	mov	r0, r7
10012fee:	f003 fe2d 	bl	10016c4c <__ssprint_r>
10012ff2:	2800      	cmp	r0, #0
10012ff4:	f040 820c 	bne.w	10013410 <_svfprintf_r+0xd48>
10012ff8:	3e10      	subs	r6, #16
10012ffa:	2e10      	cmp	r6, #16
10012ffc:	e9dd 3233 	ldrd	r3, r2, [sp, #204]	@ 0xcc
10013000:	f10d 08d4 	add.w	r8, sp, #212	@ 0xd4
10013004:	dce7      	bgt.n	10012fd6 <_svfprintf_r+0x90e>
10013006:	4614      	mov	r4, r2
10013008:	3301      	adds	r3, #1
1001300a:	9a15      	ldr	r2, [sp, #84]	@ 0x54
1001300c:	f8c8 2000 	str.w	r2, [r8]
10013010:	4434      	add	r4, r6
10013012:	2b07      	cmp	r3, #7
10013014:	e9cd 3433 	strd	r3, r4, [sp, #204]	@ 0xcc
10013018:	f8c8 6004 	str.w	r6, [r8, #4]
1001301c:	f300 81c7 	bgt.w	100133ae <_svfprintf_r+0xce6>
10013020:	f108 0808 	add.w	r8, r8, #8
10013024:	e4c1      	b.n	100129aa <_svfprintf_r+0x2e2>
10013026:	9909      	ldr	r1, [sp, #36]	@ 0x24
10013028:	9807      	ldr	r0, [sp, #28]
1001302a:	aa32      	add	r2, sp, #200	@ 0xc8
1001302c:	f003 fe0e 	bl	10016c4c <__ssprint_r>
10013030:	2800      	cmp	r0, #0
10013032:	f43f ace0 	beq.w	100129f6 <_svfprintf_r+0x32e>
10013036:	f8dd b01c 	ldr.w	fp, [sp, #28]
1001303a:	e1ea      	b.n	10013412 <_svfprintf_r+0xd4a>
1001303c:	9b33      	ldr	r3, [sp, #204]	@ 0xcc
1001303e:	4976      	ldr	r1, [pc, #472]	@ (10013218 <_svfprintf_r+0xb50>)
10013040:	f8c8 1000 	str.w	r1, [r8]
10013044:	3301      	adds	r3, #1
10013046:	3401      	adds	r4, #1
10013048:	2101      	movs	r1, #1
1001304a:	2b07      	cmp	r3, #7
1001304c:	9434      	str	r4, [sp, #208]	@ 0xd0
1001304e:	9333      	str	r3, [sp, #204]	@ 0xcc
10013050:	f8c8 1004 	str.w	r1, [r8, #4]
10013054:	f300 8573 	bgt.w	10013b3e <_svfprintf_r+0x1476>
10013058:	f108 0808 	add.w	r8, r8, #8
1001305c:	2a00      	cmp	r2, #0
1001305e:	f040 84e5 	bne.w	10013a2c <_svfprintf_r+0x1364>
10013062:	9a13      	ldr	r2, [sp, #76]	@ 0x4c
10013064:	f009 0301 	and.w	r3, r9, #1
10013068:	4313      	orrs	r3, r2
1001306a:	f43f acb0 	beq.w	100129ce <_svfprintf_r+0x306>
1001306e:	9b18      	ldr	r3, [sp, #96]	@ 0x60
10013070:	9a1a      	ldr	r2, [sp, #104]	@ 0x68
10013072:	441c      	add	r4, r3
10013074:	e9c8 2300 	strd	r2, r3, [r8]
10013078:	9b33      	ldr	r3, [sp, #204]	@ 0xcc
1001307a:	9434      	str	r4, [sp, #208]	@ 0xd0
1001307c:	3301      	adds	r3, #1
1001307e:	2b07      	cmp	r3, #7
10013080:	9333      	str	r3, [sp, #204]	@ 0xcc
10013082:	f300 8643 	bgt.w	10013d0c <_svfprintf_r+0x1644>
10013086:	f108 0808 	add.w	r8, r8, #8
1001308a:	9a13      	ldr	r2, [sp, #76]	@ 0x4c
1001308c:	f8c8 5000 	str.w	r5, [r8]
10013090:	3301      	adds	r3, #1
10013092:	4414      	add	r4, r2
10013094:	2b07      	cmp	r3, #7
10013096:	e9cd 3433 	strd	r3, r4, [sp, #204]	@ 0xcc
1001309a:	f8c8 2004 	str.w	r2, [r8, #4]
1001309e:	f77f ac94 	ble.w	100129ca <_svfprintf_r+0x302>
100130a2:	9909      	ldr	r1, [sp, #36]	@ 0x24
100130a4:	9807      	ldr	r0, [sp, #28]
100130a6:	aa32      	add	r2, sp, #200	@ 0xc8
100130a8:	f003 fdd0 	bl	10016c4c <__ssprint_r>
100130ac:	2800      	cmp	r0, #0
100130ae:	d1c2      	bne.n	10013036 <_svfprintf_r+0x96e>
100130b0:	9c34      	ldr	r4, [sp, #208]	@ 0xd0
100130b2:	f10d 08d4 	add.w	r8, sp, #212	@ 0xd4
100130b6:	e48a      	b.n	100129ce <_svfprintf_r+0x306>
100130b8:	9b13      	ldr	r3, [sp, #76]	@ 0x4c
100130ba:	9e33      	ldr	r6, [sp, #204]	@ 0xcc
100130bc:	2b01      	cmp	r3, #1
100130be:	f104 0401 	add.w	r4, r4, #1
100130c2:	f106 0601 	add.w	r6, r6, #1
100130c6:	f108 0708 	add.w	r7, r8, #8
100130ca:	f340 8129 	ble.w	10013320 <_svfprintf_r+0xc58>
100130ce:	2301      	movs	r3, #1
100130d0:	2e07      	cmp	r6, #7
100130d2:	e9cd 6433 	strd	r6, r4, [sp, #204]	@ 0xcc
100130d6:	f8c8 5000 	str.w	r5, [r8]
100130da:	f8c8 3004 	str.w	r3, [r8, #4]
100130de:	f300 81b1 	bgt.w	10013444 <_svfprintf_r+0xd7c>
100130e2:	9b18      	ldr	r3, [sp, #96]	@ 0x60
100130e4:	9a1a      	ldr	r2, [sp, #104]	@ 0x68
100130e6:	3601      	adds	r6, #1
100130e8:	441c      	add	r4, r3
100130ea:	2e07      	cmp	r6, #7
100130ec:	e9c7 2300 	strd	r2, r3, [r7]
100130f0:	e9cd 6433 	strd	r6, r4, [sp, #204]	@ 0xcc
100130f4:	f300 81b2 	bgt.w	1001345c <_svfprintf_r+0xd94>
100130f8:	3708      	adds	r7, #8
100130fa:	9b13      	ldr	r3, [sp, #76]	@ 0x4c
100130fc:	e9dd 0116 	ldrd	r0, r1, [sp, #88]	@ 0x58
10013100:	f103 38ff 	add.w	r8, r3, #4294967295	@ 0xffffffff
10013104:	2200      	movs	r2, #0
10013106:	2300      	movs	r3, #0
10013108:	f008 f81a 	bl	1001b140 <__aeabi_dcmpeq>
1001310c:	2800      	cmp	r0, #0
1001310e:	f040 8121 	bne.w	10013354 <_svfprintf_r+0xc8c>
10013112:	3601      	adds	r6, #1
10013114:	3501      	adds	r5, #1
10013116:	4444      	add	r4, r8
10013118:	2e07      	cmp	r6, #7
1001311a:	e9cd 6433 	strd	r6, r4, [sp, #204]	@ 0xcc
1001311e:	603d      	str	r5, [r7, #0]
10013120:	f8c7 8004 	str.w	r8, [r7, #4]
10013124:	f300 810a 	bgt.w	1001333c <_svfprintf_r+0xc74>
10013128:	3708      	adds	r7, #8
1001312a:	9b1c      	ldr	r3, [sp, #112]	@ 0x70
1001312c:	607b      	str	r3, [r7, #4]
1001312e:	3601      	adds	r6, #1
10013130:	441c      	add	r4, r3
10013132:	2e07      	cmp	r6, #7
10013134:	ab2c      	add	r3, sp, #176	@ 0xb0
10013136:	e9cd 6433 	strd	r6, r4, [sp, #204]	@ 0xcc
1001313a:	603b      	str	r3, [r7, #0]
1001313c:	dcb1      	bgt.n	100130a2 <_svfprintf_r+0x9da>
1001313e:	f107 0808 	add.w	r8, r7, #8
10013142:	e444      	b.n	100129ce <_svfprintf_r+0x306>
10013144:	464c      	mov	r4, r9
10013146:	2b0a      	cmp	r3, #10
10013148:	f172 0100 	sbcs.w	r1, r2, #0
1001314c:	f080 8353 	bcs.w	100137f6 <_svfprintf_r+0x112e>
10013150:	3330      	adds	r3, #48	@ 0x30
10013152:	f88d 3177 	strb.w	r3, [sp, #375]	@ 0x177
10013156:	46a1      	mov	r9, r4
10013158:	f04f 0b01 	mov.w	fp, #1
1001315c:	f20d 1577 	addw	r5, sp, #375	@ 0x177
10013160:	e6b4      	b.n	10012ecc <_svfprintf_r+0x804>
10013162:	9909      	ldr	r1, [sp, #36]	@ 0x24
10013164:	9807      	ldr	r0, [sp, #28]
10013166:	aa32      	add	r2, sp, #200	@ 0xc8
10013168:	f003 fd70 	bl	10016c4c <__ssprint_r>
1001316c:	2800      	cmp	r0, #0
1001316e:	f47f af62 	bne.w	10013036 <_svfprintf_r+0x96e>
10013172:	9c34      	ldr	r4, [sp, #208]	@ 0xd0
10013174:	f10d 08d4 	add.w	r8, sp, #212	@ 0xd4
10013178:	e40e      	b.n	10012998 <_svfprintf_r+0x2d0>
1001317a:	9909      	ldr	r1, [sp, #36]	@ 0x24
1001317c:	9807      	ldr	r0, [sp, #28]
1001317e:	9315      	str	r3, [sp, #84]	@ 0x54
10013180:	aa32      	add	r2, sp, #200	@ 0xc8
10013182:	f003 fd63 	bl	10016c4c <__ssprint_r>
10013186:	2800      	cmp	r0, #0
10013188:	f47f af55 	bne.w	10013036 <_svfprintf_r+0x96e>
1001318c:	9c34      	ldr	r4, [sp, #208]	@ 0xd0
1001318e:	9b15      	ldr	r3, [sp, #84]	@ 0x54
10013190:	f10d 08d4 	add.w	r8, sp, #212	@ 0xd4
10013194:	f7ff bbee 	b.w	10012974 <_svfprintf_r+0x2ac>
10013198:	2d10      	cmp	r5, #16
1001319a:	9b33      	ldr	r3, [sp, #204]	@ 0xcc
1001319c:	f340 8731 	ble.w	10014002 <_svfprintf_r+0x193a>
100131a0:	4f1e      	ldr	r7, [pc, #120]	@ (1001321c <_svfprintf_r+0xb54>)
100131a2:	f8dd 901c 	ldr.w	r9, [sp, #28]
100131a6:	f8dd a024 	ldr.w	sl, [sp, #36]	@ 0x24
100131aa:	9715      	str	r7, [sp, #84]	@ 0x54
100131ac:	2610      	movs	r6, #16
100131ae:	e004      	b.n	100131ba <_svfprintf_r+0xaf2>
100131b0:	3d10      	subs	r5, #16
100131b2:	2d10      	cmp	r5, #16
100131b4:	f108 0808 	add.w	r8, r8, #8
100131b8:	dd16      	ble.n	100131e8 <_svfprintf_r+0xb20>
100131ba:	3301      	adds	r3, #1
100131bc:	3410      	adds	r4, #16
100131be:	2b07      	cmp	r3, #7
100131c0:	e9c8 7600 	strd	r7, r6, [r8]
100131c4:	e9cd 3433 	strd	r3, r4, [sp, #204]	@ 0xcc
100131c8:	ddf2      	ble.n	100131b0 <_svfprintf_r+0xae8>
100131ca:	aa32      	add	r2, sp, #200	@ 0xc8
100131cc:	4651      	mov	r1, sl
100131ce:	4648      	mov	r0, r9
100131d0:	f10d 08d4 	add.w	r8, sp, #212	@ 0xd4
100131d4:	f003 fd3a 	bl	10016c4c <__ssprint_r>
100131d8:	2800      	cmp	r0, #0
100131da:	f040 83e7 	bne.w	100139ac <_svfprintf_r+0x12e4>
100131de:	3d10      	subs	r5, #16
100131e0:	2d10      	cmp	r5, #16
100131e2:	e9dd 3433 	ldrd	r3, r4, [sp, #204]	@ 0xcc
100131e6:	dce8      	bgt.n	100131ba <_svfprintf_r+0xaf2>
100131e8:	3301      	adds	r3, #1
100131ea:	9a15      	ldr	r2, [sp, #84]	@ 0x54
100131ec:	442c      	add	r4, r5
100131ee:	2b07      	cmp	r3, #7
100131f0:	e9c8 2500 	strd	r2, r5, [r8]
100131f4:	e9cd 3433 	strd	r3, r4, [sp, #204]	@ 0xcc
100131f8:	f77f abf2 	ble.w	100129e0 <_svfprintf_r+0x318>
100131fc:	9909      	ldr	r1, [sp, #36]	@ 0x24
100131fe:	9807      	ldr	r0, [sp, #28]
10013200:	aa32      	add	r2, sp, #200	@ 0xc8
10013202:	f003 fd23 	bl	10016c4c <__ssprint_r>
10013206:	2800      	cmp	r0, #0
10013208:	f47f af15 	bne.w	10013036 <_svfprintf_r+0x96e>
1001320c:	9c34      	ldr	r4, [sp, #208]	@ 0xd0
1001320e:	f7ff bbe7 	b.w	100129e0 <_svfprintf_r+0x318>
10013212:	bf00      	nop
10013214:	1001d960 	.word	0x1001d960
10013218:	1001d95c 	.word	0x1001d95c
1001321c:	1001d970 	.word	0x1001d970
10013220:	9a29      	ldr	r2, [sp, #164]	@ 0xa4
10013222:	2a00      	cmp	r2, #0
10013224:	f77f af0a 	ble.w	1001303c <_svfprintf_r+0x974>
10013228:	e9dd 7312 	ldrd	r7, r3, [sp, #72]	@ 0x48
1001322c:	429f      	cmp	r7, r3
1001322e:	bfa8      	it	ge
10013230:	461f      	movge	r7, r3
10013232:	2f00      	cmp	r7, #0
10013234:	eb05 0b03 	add.w	fp, r5, r3
10013238:	dd0b      	ble.n	10013252 <_svfprintf_r+0xb8a>
1001323a:	9b33      	ldr	r3, [sp, #204]	@ 0xcc
1001323c:	3301      	adds	r3, #1
1001323e:	443c      	add	r4, r7
10013240:	2b07      	cmp	r3, #7
10013242:	e9c8 5700 	strd	r5, r7, [r8]
10013246:	9434      	str	r4, [sp, #208]	@ 0xd0
10013248:	9333      	str	r3, [sp, #204]	@ 0xcc
1001324a:	f300 8640 	bgt.w	10013ece <_svfprintf_r+0x1806>
1001324e:	f108 0808 	add.w	r8, r8, #8
10013252:	9e12      	ldr	r6, [sp, #72]	@ 0x48
10013254:	2f00      	cmp	r7, #0
10013256:	bfa8      	it	ge
10013258:	1bf6      	subge	r6, r6, r7
1001325a:	2e00      	cmp	r6, #0
1001325c:	f300 8200 	bgt.w	10013660 <_svfprintf_r+0xf98>
10013260:	9b12      	ldr	r3, [sp, #72]	@ 0x48
10013262:	f419 6f80 	tst.w	r9, #1024	@ 0x400
10013266:	442b      	add	r3, r5
10013268:	469a      	mov	sl, r3
1001326a:	f040 8221 	bne.w	100136b0 <_svfprintf_r+0xfe8>
1001326e:	9d29      	ldr	r5, [sp, #164]	@ 0xa4
10013270:	9b13      	ldr	r3, [sp, #76]	@ 0x4c
10013272:	429d      	cmp	r5, r3
10013274:	db03      	blt.n	1001327e <_svfprintf_r+0xbb6>
10013276:	f019 0f01 	tst.w	r9, #1
1001327a:	f000 846e 	beq.w	10013b5a <_svfprintf_r+0x1492>
1001327e:	9b18      	ldr	r3, [sp, #96]	@ 0x60
10013280:	9a1a      	ldr	r2, [sp, #104]	@ 0x68
10013282:	441c      	add	r4, r3
10013284:	e9c8 2300 	strd	r2, r3, [r8]
10013288:	9b33      	ldr	r3, [sp, #204]	@ 0xcc
1001328a:	9434      	str	r4, [sp, #208]	@ 0xd0
1001328c:	3301      	adds	r3, #1
1001328e:	2b07      	cmp	r3, #7
10013290:	9333      	str	r3, [sp, #204]	@ 0xcc
10013292:	f300 8673 	bgt.w	10013f7c <_svfprintf_r+0x18b4>
10013296:	f108 0808 	add.w	r8, r8, #8
1001329a:	9b13      	ldr	r3, [sp, #76]	@ 0x4c
1001329c:	ebab 060a 	sub.w	r6, fp, sl
100132a0:	1b5d      	subs	r5, r3, r5
100132a2:	42ae      	cmp	r6, r5
100132a4:	bfa8      	it	ge
100132a6:	462e      	movge	r6, r5
100132a8:	2e00      	cmp	r6, #0
100132aa:	dd0d      	ble.n	100132c8 <_svfprintf_r+0xc00>
100132ac:	9b33      	ldr	r3, [sp, #204]	@ 0xcc
100132ae:	f8c8 a000 	str.w	sl, [r8]
100132b2:	3301      	adds	r3, #1
100132b4:	4434      	add	r4, r6
100132b6:	2b07      	cmp	r3, #7
100132b8:	f8c8 6004 	str.w	r6, [r8, #4]
100132bc:	9434      	str	r4, [sp, #208]	@ 0xd0
100132be:	9333      	str	r3, [sp, #204]	@ 0xcc
100132c0:	f300 866e 	bgt.w	10013fa0 <_svfprintf_r+0x18d8>
100132c4:	f108 0808 	add.w	r8, r8, #8
100132c8:	2e00      	cmp	r6, #0
100132ca:	bfa8      	it	ge
100132cc:	1bad      	subge	r5, r5, r6
100132ce:	2d00      	cmp	r5, #0
100132d0:	f77f ab7d 	ble.w	100129ce <_svfprintf_r+0x306>
100132d4:	2d10      	cmp	r5, #16
100132d6:	9b33      	ldr	r3, [sp, #204]	@ 0xcc
100132d8:	f340 836a 	ble.w	100139b0 <_svfprintf_r+0x12e8>
100132dc:	4fad      	ldr	r7, [pc, #692]	@ (10013594 <_svfprintf_r+0xecc>)
100132de:	f8dd b01c 	ldr.w	fp, [sp, #28]
100132e2:	f8dd a024 	ldr.w	sl, [sp, #36]	@ 0x24
100132e6:	9715      	str	r7, [sp, #84]	@ 0x54
100132e8:	2610      	movs	r6, #16
100132ea:	e005      	b.n	100132f8 <_svfprintf_r+0xc30>
100132ec:	f108 0808 	add.w	r8, r8, #8
100132f0:	3d10      	subs	r5, #16
100132f2:	2d10      	cmp	r5, #16
100132f4:	f340 835e 	ble.w	100139b4 <_svfprintf_r+0x12ec>
100132f8:	3301      	adds	r3, #1
100132fa:	3410      	adds	r4, #16
100132fc:	2b07      	cmp	r3, #7
100132fe:	e9c8 7600 	strd	r7, r6, [r8]
10013302:	e9cd 3433 	strd	r3, r4, [sp, #204]	@ 0xcc
10013306:	ddf1      	ble.n	100132ec <_svfprintf_r+0xc24>
10013308:	aa32      	add	r2, sp, #200	@ 0xc8
1001330a:	4651      	mov	r1, sl
1001330c:	4658      	mov	r0, fp
1001330e:	f003 fc9d 	bl	10016c4c <__ssprint_r>
10013312:	2800      	cmp	r0, #0
10013314:	d17d      	bne.n	10013412 <_svfprintf_r+0xd4a>
10013316:	e9dd 3433 	ldrd	r3, r4, [sp, #204]	@ 0xcc
1001331a:	f10d 08d4 	add.w	r8, sp, #212	@ 0xd4
1001331e:	e7e7      	b.n	100132f0 <_svfprintf_r+0xc28>
10013320:	f019 0f01 	tst.w	r9, #1
10013324:	f47f aed3 	bne.w	100130ce <_svfprintf_r+0xa06>
10013328:	2301      	movs	r3, #1
1001332a:	2e07      	cmp	r6, #7
1001332c:	e9cd 6433 	strd	r6, r4, [sp, #204]	@ 0xcc
10013330:	f8c8 5000 	str.w	r5, [r8]
10013334:	f8c8 3004 	str.w	r3, [r8, #4]
10013338:	f77f aef7 	ble.w	1001312a <_svfprintf_r+0xa62>
1001333c:	9909      	ldr	r1, [sp, #36]	@ 0x24
1001333e:	9807      	ldr	r0, [sp, #28]
10013340:	aa32      	add	r2, sp, #200	@ 0xc8
10013342:	f003 fc83 	bl	10016c4c <__ssprint_r>
10013346:	2800      	cmp	r0, #0
10013348:	f47f ae75 	bne.w	10013036 <_svfprintf_r+0x96e>
1001334c:	e9dd 6433 	ldrd	r6, r4, [sp, #204]	@ 0xcc
10013350:	af35      	add	r7, sp, #212	@ 0xd4
10013352:	e6ea      	b.n	1001312a <_svfprintf_r+0xa62>
10013354:	9b13      	ldr	r3, [sp, #76]	@ 0x4c
10013356:	2b01      	cmp	r3, #1
10013358:	f77f aee7 	ble.w	1001312a <_svfprintf_r+0xa62>
1001335c:	2b11      	cmp	r3, #17
1001335e:	4b8d      	ldr	r3, [pc, #564]	@ (10013594 <_svfprintf_r+0xecc>)
10013360:	9315      	str	r3, [sp, #84]	@ 0x54
10013362:	f340 8357 	ble.w	10013a14 <_svfprintf_r+0x134c>
10013366:	f8cd 9020 	str.w	r9, [sp, #32]
1001336a:	f8dd a01c 	ldr.w	sl, [sp, #28]
1001336e:	f8dd b024 	ldr.w	fp, [sp, #36]	@ 0x24
10013372:	2510      	movs	r5, #16
10013374:	4699      	mov	r9, r3
10013376:	e006      	b.n	10013386 <_svfprintf_r+0xcbe>
10013378:	3708      	adds	r7, #8
1001337a:	f1a8 0810 	sub.w	r8, r8, #16
1001337e:	f1b8 0f10 	cmp.w	r8, #16
10013382:	f340 8345 	ble.w	10013a10 <_svfprintf_r+0x1348>
10013386:	3601      	adds	r6, #1
10013388:	3410      	adds	r4, #16
1001338a:	2e07      	cmp	r6, #7
1001338c:	e9c7 9500 	strd	r9, r5, [r7]
10013390:	e9cd 6433 	strd	r6, r4, [sp, #204]	@ 0xcc
10013394:	ddf0      	ble.n	10013378 <_svfprintf_r+0xcb0>
10013396:	aa32      	add	r2, sp, #200	@ 0xc8
10013398:	4659      	mov	r1, fp
1001339a:	4650      	mov	r0, sl
1001339c:	f003 fc56 	bl	10016c4c <__ssprint_r>
100133a0:	2800      	cmp	r0, #0
100133a2:	f040 8298 	bne.w	100138d6 <_svfprintf_r+0x120e>
100133a6:	e9dd 6433 	ldrd	r6, r4, [sp, #204]	@ 0xcc
100133aa:	af35      	add	r7, sp, #212	@ 0xd4
100133ac:	e7e5      	b.n	1001337a <_svfprintf_r+0xcb2>
100133ae:	9909      	ldr	r1, [sp, #36]	@ 0x24
100133b0:	9807      	ldr	r0, [sp, #28]
100133b2:	aa32      	add	r2, sp, #200	@ 0xc8
100133b4:	f003 fc4a 	bl	10016c4c <__ssprint_r>
100133b8:	2800      	cmp	r0, #0
100133ba:	f47f ae3c 	bne.w	10013036 <_svfprintf_r+0x96e>
100133be:	9c34      	ldr	r4, [sp, #208]	@ 0xd0
100133c0:	f10d 08d4 	add.w	r8, sp, #212	@ 0xd4
100133c4:	f7ff baf1 	b.w	100129aa <_svfprintf_r+0x2e2>
100133c8:	990d      	ldr	r1, [sp, #52]	@ 0x34
100133ca:	f851 3b04 	ldr.w	r3, [r1], #4
100133ce:	910d      	str	r1, [sp, #52]	@ 0x34
100133d0:	f019 0110 	ands.w	r1, r9, #16
100133d4:	f47f ac4d 	bne.w	10012c72 <_svfprintf_r+0x5aa>
100133d8:	f019 0040 	ands.w	r0, r9, #64	@ 0x40
100133dc:	f000 8362 	beq.w	10013aa4 <_svfprintf_r+0x13dc>
100133e0:	b29b      	uxth	r3, r3
100133e2:	460a      	mov	r2, r1
100133e4:	e445      	b.n	10012c72 <_svfprintf_r+0x5aa>
100133e6:	990d      	ldr	r1, [sp, #52]	@ 0x34
100133e8:	f851 3b04 	ldr.w	r3, [r1], #4
100133ec:	910d      	str	r1, [sp, #52]	@ 0x34
100133ee:	f014 0110 	ands.w	r1, r4, #16
100133f2:	d10b      	bne.n	1001340c <_svfprintf_r+0xd44>
100133f4:	f014 0040 	ands.w	r0, r4, #64	@ 0x40
100133f8:	d003      	beq.n	10013402 <_svfprintf_r+0xd3a>
100133fa:	460a      	mov	r2, r1
100133fc:	b29b      	uxth	r3, r3
100133fe:	2101      	movs	r1, #1
10013400:	e43a      	b.n	10012c78 <_svfprintf_r+0x5b0>
10013402:	f414 7200 	ands.w	r2, r4, #512	@ 0x200
10013406:	bf1c      	itt	ne
10013408:	b2db      	uxtbne	r3, r3
1001340a:	4602      	movne	r2, r0
1001340c:	2101      	movs	r1, #1
1001340e:	e433      	b.n	10012c78 <_svfprintf_r+0x5b0>
10013410:	46bb      	mov	fp, r7
10013412:	9b0c      	ldr	r3, [sp, #48]	@ 0x30
10013414:	2b00      	cmp	r3, #0
10013416:	f43f aa5c 	beq.w	100128d2 <_svfprintf_r+0x20a>
1001341a:	990c      	ldr	r1, [sp, #48]	@ 0x30
1001341c:	4658      	mov	r0, fp
1001341e:	f003 f911 	bl	10016644 <_free_r>
10013422:	9b09      	ldr	r3, [sp, #36]	@ 0x24
10013424:	899b      	ldrh	r3, [r3, #12]
10013426:	f003 0340 	and.w	r3, r3, #64	@ 0x40
1001342a:	f7ff ba56 	b.w	100128da <_svfprintf_r+0x212>
1001342e:	f8dd b020 	ldr.w	fp, [sp, #32]
10013432:	ad5e      	add	r5, sp, #376	@ 0x178
10013434:	e54a      	b.n	10012ecc <_svfprintf_r+0x804>
10013436:	425b      	negs	r3, r3
10013438:	eb62 0242 	sbc.w	r2, r2, r2, lsl #1
1001343c:	464c      	mov	r4, r9
1001343e:	202d      	movs	r0, #45	@ 0x2d
10013440:	2101      	movs	r1, #1
10013442:	e41a      	b.n	10012c7a <_svfprintf_r+0x5b2>
10013444:	9909      	ldr	r1, [sp, #36]	@ 0x24
10013446:	9807      	ldr	r0, [sp, #28]
10013448:	aa32      	add	r2, sp, #200	@ 0xc8
1001344a:	f003 fbff 	bl	10016c4c <__ssprint_r>
1001344e:	2800      	cmp	r0, #0
10013450:	f47f adf1 	bne.w	10013036 <_svfprintf_r+0x96e>
10013454:	e9dd 6433 	ldrd	r6, r4, [sp, #204]	@ 0xcc
10013458:	af35      	add	r7, sp, #212	@ 0xd4
1001345a:	e642      	b.n	100130e2 <_svfprintf_r+0xa1a>
1001345c:	9909      	ldr	r1, [sp, #36]	@ 0x24
1001345e:	9807      	ldr	r0, [sp, #28]
10013460:	aa32      	add	r2, sp, #200	@ 0xc8
10013462:	f003 fbf3 	bl	10016c4c <__ssprint_r>
10013466:	2800      	cmp	r0, #0
10013468:	f47f ade5 	bne.w	10013036 <_svfprintf_r+0x96e>
1001346c:	e9dd 6433 	ldrd	r6, r4, [sp, #204]	@ 0xcc
10013470:	af35      	add	r7, sp, #212	@ 0xd4
10013472:	e642      	b.n	100130fa <_svfprintf_r+0xa32>
10013474:	f019 0f01 	tst.w	r9, #1
10013478:	f43f aaa9 	beq.w	100129ce <_svfprintf_r+0x306>
1001347c:	e4d4      	b.n	10012e28 <_svfprintf_r+0x760>
1001347e:	930d      	str	r3, [sp, #52]	@ 0x34
10013480:	7823      	ldrb	r3, [r4, #0]
10013482:	f7ff b978 	b.w	10012776 <_svfprintf_r+0xae>
10013486:	ad5e      	add	r5, sp, #376	@ 0x178
10013488:	e520      	b.n	10012ecc <_svfprintf_r+0x804>
1001348a:	f419 7f00 	tst.w	r9, #512	@ 0x200
1001348e:	f040 8373 	bne.w	10013b78 <_svfprintf_r+0x14b0>
10013492:	17da      	asrs	r2, r3, #31
10013494:	4611      	mov	r1, r2
10013496:	f7ff bbb2 	b.w	10012bfe <_svfprintf_r+0x536>
1001349a:	f019 0f10 	tst.w	r9, #16
1001349e:	f040 82b1 	bne.w	10013a04 <_svfprintf_r+0x133c>
100134a2:	f019 0f40 	tst.w	r9, #64	@ 0x40
100134a6:	f040 8361 	bne.w	10013b6c <_svfprintf_r+0x14a4>
100134aa:	f419 7f00 	tst.w	r9, #512	@ 0x200
100134ae:	f000 82a9 	beq.w	10013a04 <_svfprintf_r+0x133c>
100134b2:	9b0d      	ldr	r3, [sp, #52]	@ 0x34
100134b4:	9a0a      	ldr	r2, [sp, #40]	@ 0x28
100134b6:	681b      	ldr	r3, [r3, #0]
100134b8:	701a      	strb	r2, [r3, #0]
100134ba:	e40f      	b.n	10012cdc <_svfprintf_r+0x614>
100134bc:	9a1b      	ldr	r2, [sp, #108]	@ 0x6c
100134be:	7823      	ldrb	r3, [r4, #0]
100134c0:	2a00      	cmp	r2, #0
100134c2:	f43f a958 	beq.w	10012776 <_svfprintf_r+0xae>
100134c6:	7812      	ldrb	r2, [r2, #0]
100134c8:	2a00      	cmp	r2, #0
100134ca:	f43f a954 	beq.w	10012776 <_svfprintf_r+0xae>
100134ce:	f449 6980 	orr.w	r9, r9, #1024	@ 0x400
100134d2:	f7ff b950 	b.w	10012776 <_svfprintf_r+0xae>
100134d6:	e9dd 0116 	ldrd	r0, r1, [sp, #88]	@ 0x58
100134da:	4602      	mov	r2, r0
100134dc:	460b      	mov	r3, r1
100134de:	f007 fe61 	bl	1001b1a4 <__aeabi_dcmpun>
100134e2:	2800      	cmp	r0, #0
100134e4:	f040 860d 	bne.w	10014102 <_svfprintf_r+0x1a3a>
100134e8:	9b0e      	ldr	r3, [sp, #56]	@ 0x38
100134ea:	2b61      	cmp	r3, #97	@ 0x61
100134ec:	f000 8504 	beq.w	10013ef8 <_svfprintf_r+0x1830>
100134f0:	2b41      	cmp	r3, #65	@ 0x41
100134f2:	f000 8580 	beq.w	10013ff6 <_svfprintf_r+0x192e>
100134f6:	9b08      	ldr	r3, [sp, #32]
100134f8:	3301      	adds	r3, #1
100134fa:	f000 8415 	beq.w	10013d28 <_svfprintf_r+0x1660>
100134fe:	9b0e      	ldr	r3, [sp, #56]	@ 0x38
10013500:	f023 0320 	bic.w	r3, r3, #32
10013504:	2b47      	cmp	r3, #71	@ 0x47
10013506:	d104      	bne.n	10013512 <_svfprintf_r+0xe4a>
10013508:	9b08      	ldr	r3, [sp, #32]
1001350a:	2b00      	cmp	r3, #0
1001350c:	bf08      	it	eq
1001350e:	2301      	moveq	r3, #1
10013510:	9308      	str	r3, [sp, #32]
10013512:	e9dd 0116 	ldrd	r0, r1, [sp, #88]	@ 0x58
10013516:	f449 7280 	orr.w	r2, r9, #256	@ 0x100
1001351a:	2900      	cmp	r1, #0
1001351c:	9215      	str	r2, [sp, #84]	@ 0x54
1001351e:	f8cd 9018 	str.w	r9, [sp, #24]
10013522:	f04f 0300 	mov.w	r3, #0
10013526:	f2c0 851f 	blt.w	10013f68 <_svfprintf_r+0x18a0>
1001352a:	e9cd 0124 	strd	r0, r1, [sp, #144]	@ 0x90
1001352e:	931f      	str	r3, [sp, #124]	@ 0x7c
10013530:	930c      	str	r3, [sp, #48]	@ 0x30
10013532:	9b0e      	ldr	r3, [sp, #56]	@ 0x38
10013534:	3b41      	subs	r3, #65	@ 0x41
10013536:	2b25      	cmp	r3, #37	@ 0x25
10013538:	f200 8326 	bhi.w	10013b88 <_svfprintf_r+0x14c0>
1001353c:	e8df f013 	tbh	[pc, r3, lsl #1]
10013540:	032403ff 	.word	0x032403ff
10013544:	03240324 	.word	0x03240324
10013548:	03fc03f8 	.word	0x03fc03f8
1001354c:	03240324 	.word	0x03240324
10013550:	03240324 	.word	0x03240324
10013554:	03240324 	.word	0x03240324
10013558:	03240324 	.word	0x03240324
1001355c:	03240324 	.word	0x03240324
10013560:	03240324 	.word	0x03240324
10013564:	03240324 	.word	0x03240324
10013568:	03240324 	.word	0x03240324
1001356c:	03240324 	.word	0x03240324
10013570:	03240324 	.word	0x03240324
10013574:	03240324 	.word	0x03240324
10013578:	03240324 	.word	0x03240324
1001357c:	03240324 	.word	0x03240324
10013580:	03240324 	.word	0x03240324
10013584:	03240324 	.word	0x03240324
10013588:	03fc03f8 	.word	0x03fc03f8
1001358c:	e9cd 340e 	strd	r3, r4, [sp, #56]	@ 0x38
10013590:	f7ff bb62 	b.w	10012c58 <_svfprintf_r+0x590>
10013594:	1001d960 	.word	0x1001d960
10013598:	e9cd 340e 	strd	r3, r4, [sp, #56]	@ 0x38
1001359c:	464c      	mov	r4, r9
1001359e:	f7ff bbc9 	b.w	10012d34 <_svfprintf_r+0x66c>
100135a2:	e9cd 340e 	strd	r3, r4, [sp, #56]	@ 0x38
100135a6:	4bbd      	ldr	r3, [pc, #756]	@ (1001389c <_svfprintf_r+0x11d4>)
100135a8:	9319      	str	r3, [sp, #100]	@ 0x64
100135aa:	f019 0220 	ands.w	r2, r9, #32
100135ae:	f000 8108 	beq.w	100137c2 <_svfprintf_r+0x10fa>
100135b2:	9b0d      	ldr	r3, [sp, #52]	@ 0x34
100135b4:	3307      	adds	r3, #7
100135b6:	f023 0307 	bic.w	r3, r3, #7
100135ba:	4619      	mov	r1, r3
100135bc:	685a      	ldr	r2, [r3, #4]
100135be:	f851 3b08 	ldr.w	r3, [r1], #8
100135c2:	910d      	str	r1, [sp, #52]	@ 0x34
100135c4:	f019 0f01 	tst.w	r9, #1
100135c8:	d00a      	beq.n	100135e0 <_svfprintf_r+0xf18>
100135ca:	ea53 0102 	orrs.w	r1, r3, r2
100135ce:	d007      	beq.n	100135e0 <_svfprintf_r+0xf18>
100135d0:	990e      	ldr	r1, [sp, #56]	@ 0x38
100135d2:	f88d 10a1 	strb.w	r1, [sp, #161]	@ 0xa1
100135d6:	2130      	movs	r1, #48	@ 0x30
100135d8:	f049 0902 	orr.w	r9, r9, #2
100135dc:	f88d 10a0 	strb.w	r1, [sp, #160]	@ 0xa0
100135e0:	f429 6480 	bic.w	r4, r9, #1024	@ 0x400
100135e4:	2102      	movs	r1, #2
100135e6:	f7ff bb47 	b.w	10012c78 <_svfprintf_r+0x5b0>
100135ea:	e9cd 340e 	strd	r3, r4, [sp, #56]	@ 0x38
100135ee:	4bac      	ldr	r3, [pc, #688]	@ (100138a0 <_svfprintf_r+0x11d8>)
100135f0:	9319      	str	r3, [sp, #100]	@ 0x64
100135f2:	e7da      	b.n	100135aa <_svfprintf_r+0xee2>
100135f4:	9b0d      	ldr	r3, [sp, #52]	@ 0x34
100135f6:	681b      	ldr	r3, [r3, #0]
100135f8:	f88d 3114 	strb.w	r3, [sp, #276]	@ 0x114
100135fc:	2301      	movs	r3, #1
100135fe:	9306      	str	r3, [sp, #24]
10013600:	469b      	mov	fp, r3
10013602:	ad45      	add	r5, sp, #276	@ 0x114
10013604:	f7ff baaf 	b.w	10012b66 <_svfprintf_r+0x49e>
10013608:	9909      	ldr	r1, [sp, #36]	@ 0x24
1001360a:	9807      	ldr	r0, [sp, #28]
1001360c:	aa32      	add	r2, sp, #200	@ 0xc8
1001360e:	f003 fb1d 	bl	10016c4c <__ssprint_r>
10013612:	2800      	cmp	r0, #0
10013614:	f47f ad0f 	bne.w	10013036 <_svfprintf_r+0x96e>
10013618:	9c34      	ldr	r4, [sp, #208]	@ 0xd0
1001361a:	f10d 08d4 	add.w	r8, sp, #212	@ 0xd4
1001361e:	e411      	b.n	10012e44 <_svfprintf_r+0x77c>
10013620:	2140      	movs	r1, #64	@ 0x40
10013622:	4658      	mov	r0, fp
10013624:	f000 fe20 	bl	10014268 <_malloc_r>
10013628:	9b09      	ldr	r3, [sp, #36]	@ 0x24
1001362a:	6018      	str	r0, [r3, #0]
1001362c:	6118      	str	r0, [r3, #16]
1001362e:	2800      	cmp	r0, #0
10013630:	f000 8610 	beq.w	10014254 <_svfprintf_r+0x1b8c>
10013634:	9a09      	ldr	r2, [sp, #36]	@ 0x24
10013636:	2340      	movs	r3, #64	@ 0x40
10013638:	6153      	str	r3, [r2, #20]
1001363a:	f7ff b861 	b.w	10012700 <_svfprintf_r+0x38>
1001363e:	9b08      	ldr	r3, [sp, #32]
10013640:	950c      	str	r5, [sp, #48]	@ 0x30
10013642:	2b06      	cmp	r3, #6
10013644:	4629      	mov	r1, r5
10013646:	bf28      	it	cs
10013648:	2306      	movcs	r3, #6
1001364a:	9508      	str	r5, [sp, #32]
1001364c:	462a      	mov	r2, r5
1001364e:	9306      	str	r3, [sp, #24]
10013650:	4d94      	ldr	r5, [pc, #592]	@ (100138a4 <_svfprintf_r+0x11dc>)
10013652:	960d      	str	r6, [sp, #52]	@ 0x34
10013654:	469b      	mov	fp, r3
10013656:	9114      	str	r1, [sp, #80]	@ 0x50
10013658:	9110      	str	r1, [sp, #64]	@ 0x40
1001365a:	9112      	str	r1, [sp, #72]	@ 0x48
1001365c:	f7ff ba1b 	b.w	10012a96 <_svfprintf_r+0x3ce>
10013660:	2e10      	cmp	r6, #16
10013662:	9b33      	ldr	r3, [sp, #204]	@ 0xcc
10013664:	f340 85e7 	ble.w	10014236 <_svfprintf_r+0x1b6e>
10013668:	488f      	ldr	r0, [pc, #572]	@ (100138a8 <_svfprintf_r+0x11e0>)
1001366a:	f8dd a01c 	ldr.w	sl, [sp, #28]
1001366e:	9015      	str	r0, [sp, #84]	@ 0x54
10013670:	4642      	mov	r2, r8
10013672:	4621      	mov	r1, r4
10013674:	46a8      	mov	r8, r5
10013676:	9c09      	ldr	r4, [sp, #36]	@ 0x24
10013678:	2710      	movs	r7, #16
1001367a:	4605      	mov	r5, r0
1001367c:	e004      	b.n	10013688 <_svfprintf_r+0xfc0>
1001367e:	3208      	adds	r2, #8
10013680:	3e10      	subs	r6, #16
10013682:	2e10      	cmp	r6, #16
10013684:	f340 8223 	ble.w	10013ace <_svfprintf_r+0x1406>
10013688:	3301      	adds	r3, #1
1001368a:	3110      	adds	r1, #16
1001368c:	2b07      	cmp	r3, #7
1001368e:	e9c2 5700 	strd	r5, r7, [r2]
10013692:	e9cd 3133 	strd	r3, r1, [sp, #204]	@ 0xcc
10013696:	ddf2      	ble.n	1001367e <_svfprintf_r+0xfb6>
10013698:	aa32      	add	r2, sp, #200	@ 0xc8
1001369a:	4621      	mov	r1, r4
1001369c:	4650      	mov	r0, sl
1001369e:	f003 fad5 	bl	10016c4c <__ssprint_r>
100136a2:	2800      	cmp	r0, #0
100136a4:	f040 8117 	bne.w	100138d6 <_svfprintf_r+0x120e>
100136a8:	e9dd 3133 	ldrd	r3, r1, [sp, #204]	@ 0xcc
100136ac:	aa35      	add	r2, sp, #212	@ 0xd4
100136ae:	e7e7      	b.n	10013680 <_svfprintf_r+0xfb8>
100136b0:	4621      	mov	r1, r4
100136b2:	461c      	mov	r4, r3
100136b4:	9b10      	ldr	r3, [sp, #64]	@ 0x40
100136b6:	f8cd b020 	str.w	fp, [sp, #32]
100136ba:	f8cd 9038 	str.w	r9, [sp, #56]	@ 0x38
100136be:	4642      	mov	r2, r8
100136c0:	4f79      	ldr	r7, [pc, #484]	@ (100138a8 <_svfprintf_r+0x11e0>)
100136c2:	f8dd 9050 	ldr.w	r9, [sp, #80]	@ 0x50
100136c6:	f8dd 8078 	ldr.w	r8, [sp, #120]	@ 0x78
100136ca:	f8dd a06c 	ldr.w	sl, [sp, #108]	@ 0x6c
100136ce:	f8dd b01c 	ldr.w	fp, [sp, #28]
100136d2:	b383      	cbz	r3, 10013736 <_svfprintf_r+0x106e>
100136d4:	f1b9 0f00 	cmp.w	r9, #0
100136d8:	f000 80ff 	beq.w	100138da <_svfprintf_r+0x1212>
100136dc:	f109 39ff 	add.w	r9, r9, #4294967295	@ 0xffffffff
100136e0:	9833      	ldr	r0, [sp, #204]	@ 0xcc
100136e2:	9b1d      	ldr	r3, [sp, #116]	@ 0x74
100136e4:	3001      	adds	r0, #1
100136e6:	4441      	add	r1, r8
100136e8:	2807      	cmp	r0, #7
100136ea:	e9c2 3800 	strd	r3, r8, [r2]
100136ee:	9134      	str	r1, [sp, #208]	@ 0xd0
100136f0:	9033      	str	r0, [sp, #204]	@ 0xcc
100136f2:	dc75      	bgt.n	100137e0 <_svfprintf_r+0x1118>
100136f4:	3208      	adds	r2, #8
100136f6:	9b08      	ldr	r3, [sp, #32]
100136f8:	f89a 0000 	ldrb.w	r0, [sl]
100136fc:	1b1e      	subs	r6, r3, r4
100136fe:	4286      	cmp	r6, r0
10013700:	bfa8      	it	ge
10013702:	4606      	movge	r6, r0
10013704:	2e00      	cmp	r6, #0
10013706:	dd0c      	ble.n	10013722 <_svfprintf_r+0x105a>
10013708:	9833      	ldr	r0, [sp, #204]	@ 0xcc
1001370a:	3001      	adds	r0, #1
1001370c:	4431      	add	r1, r6
1001370e:	2807      	cmp	r0, #7
10013710:	e9c2 4600 	strd	r4, r6, [r2]
10013714:	9134      	str	r1, [sp, #208]	@ 0xd0
10013716:	9033      	str	r0, [sp, #204]	@ 0xcc
10013718:	f300 8167 	bgt.w	100139ea <_svfprintf_r+0x1322>
1001371c:	f89a 0000 	ldrb.w	r0, [sl]
10013720:	3208      	adds	r2, #8
10013722:	2e00      	cmp	r6, #0
10013724:	bfac      	ite	ge
10013726:	1b85      	subge	r5, r0, r6
10013728:	4605      	movlt	r5, r0
1001372a:	2d00      	cmp	r5, #0
1001372c:	dc13      	bgt.n	10013756 <_svfprintf_r+0x108e>
1001372e:	4404      	add	r4, r0
10013730:	9b10      	ldr	r3, [sp, #64]	@ 0x40
10013732:	2b00      	cmp	r3, #0
10013734:	d1ce      	bne.n	100136d4 <_svfprintf_r+0x100c>
10013736:	f1b9 0f00 	cmp.w	r9, #0
1001373a:	d1cf      	bne.n	100136dc <_svfprintf_r+0x1014>
1001373c:	f8dd b020 	ldr.w	fp, [sp, #32]
10013740:	f8cd a06c 	str.w	sl, [sp, #108]	@ 0x6c
10013744:	46a2      	mov	sl, r4
10013746:	45da      	cmp	sl, fp
10013748:	f8dd 9038 	ldr.w	r9, [sp, #56]	@ 0x38
1001374c:	4690      	mov	r8, r2
1001374e:	460c      	mov	r4, r1
10013750:	bf28      	it	cs
10013752:	46da      	movcs	sl, fp
10013754:	e58b      	b.n	1001326e <_svfprintf_r+0xba6>
10013756:	2d10      	cmp	r5, #16
10013758:	9833      	ldr	r0, [sp, #204]	@ 0xcc
1001375a:	f340 853c 	ble.w	100141d6 <_svfprintf_r+0x1b0e>
1001375e:	4623      	mov	r3, r4
10013760:	463e      	mov	r6, r7
10013762:	462c      	mov	r4, r5
10013764:	461d      	mov	r5, r3
10013766:	e004      	b.n	10013772 <_svfprintf_r+0x10aa>
10013768:	3c10      	subs	r4, #16
1001376a:	2c10      	cmp	r4, #16
1001376c:	f102 0208 	add.w	r2, r2, #8
10013770:	dd16      	ble.n	100137a0 <_svfprintf_r+0x10d8>
10013772:	3001      	adds	r0, #1
10013774:	3110      	adds	r1, #16
10013776:	2310      	movs	r3, #16
10013778:	2807      	cmp	r0, #7
1001377a:	e9cd 0133 	strd	r0, r1, [sp, #204]	@ 0xcc
1001377e:	6017      	str	r7, [r2, #0]
10013780:	6053      	str	r3, [r2, #4]
10013782:	ddf1      	ble.n	10013768 <_svfprintf_r+0x10a0>
10013784:	9909      	ldr	r1, [sp, #36]	@ 0x24
10013786:	aa32      	add	r2, sp, #200	@ 0xc8
10013788:	4658      	mov	r0, fp
1001378a:	f003 fa5f 	bl	10016c4c <__ssprint_r>
1001378e:	2800      	cmp	r0, #0
10013790:	f47f ae3f 	bne.w	10013412 <_svfprintf_r+0xd4a>
10013794:	3c10      	subs	r4, #16
10013796:	2c10      	cmp	r4, #16
10013798:	e9dd 0133 	ldrd	r0, r1, [sp, #204]	@ 0xcc
1001379c:	aa35      	add	r2, sp, #212	@ 0xd4
1001379e:	dce8      	bgt.n	10013772 <_svfprintf_r+0x10aa>
100137a0:	462b      	mov	r3, r5
100137a2:	4625      	mov	r5, r4
100137a4:	461c      	mov	r4, r3
100137a6:	3001      	adds	r0, #1
100137a8:	4429      	add	r1, r5
100137aa:	2807      	cmp	r0, #7
100137ac:	e9cd 0133 	strd	r0, r1, [sp, #204]	@ 0xcc
100137b0:	6016      	str	r6, [r2, #0]
100137b2:	6055      	str	r5, [r2, #4]
100137b4:	f300 837d 	bgt.w	10013eb2 <_svfprintf_r+0x17ea>
100137b8:	f89a 0000 	ldrb.w	r0, [sl]
100137bc:	3208      	adds	r2, #8
100137be:	4404      	add	r4, r0
100137c0:	e7b6      	b.n	10013730 <_svfprintf_r+0x1068>
100137c2:	990d      	ldr	r1, [sp, #52]	@ 0x34
100137c4:	f851 3b04 	ldr.w	r3, [r1], #4
100137c8:	910d      	str	r1, [sp, #52]	@ 0x34
100137ca:	f019 0110 	ands.w	r1, r9, #16
100137ce:	f47f aef9 	bne.w	100135c4 <_svfprintf_r+0xefc>
100137d2:	f019 0040 	ands.w	r0, r9, #64	@ 0x40
100137d6:	f000 815f 	beq.w	10013a98 <_svfprintf_r+0x13d0>
100137da:	b29b      	uxth	r3, r3
100137dc:	460a      	mov	r2, r1
100137de:	e6f1      	b.n	100135c4 <_svfprintf_r+0xefc>
100137e0:	9909      	ldr	r1, [sp, #36]	@ 0x24
100137e2:	aa32      	add	r2, sp, #200	@ 0xc8
100137e4:	4658      	mov	r0, fp
100137e6:	f003 fa31 	bl	10016c4c <__ssprint_r>
100137ea:	2800      	cmp	r0, #0
100137ec:	f47f ae11 	bne.w	10013412 <_svfprintf_r+0xd4a>
100137f0:	9934      	ldr	r1, [sp, #208]	@ 0xd0
100137f2:	aa35      	add	r2, sp, #212	@ 0xd4
100137f4:	e77f      	b.n	100136f6 <_svfprintf_r+0x102e>
100137f6:	f404 6b80 	and.w	fp, r4, #1024	@ 0x400
100137fa:	2100      	movs	r1, #0
100137fc:	f8cd 8030 	str.w	r8, [sp, #48]	@ 0x30
10013800:	f8df 90a8 	ldr.w	r9, [pc, #168]	@ 100138ac <_svfprintf_r+0x11e4>
10013804:	f8dd 806c 	ldr.w	r8, [sp, #108]	@ 0x6c
10013808:	9406      	str	r4, [sp, #24]
1001380a:	ad5e      	add	r5, sp, #376	@ 0x178
1001380c:	f04f 3acc 	mov.w	sl, #3435973836	@ 0xcccccccc
10013810:	2705      	movs	r7, #5
10013812:	468c      	mov	ip, r1
10013814:	465e      	mov	r6, fp
10013816:	e005      	b.n	10013824 <_svfprintf_r+0x115c>
10013818:	2b0a      	cmp	r3, #10
1001381a:	f172 0200 	sbcs.w	r2, r2, #0
1001381e:	d333      	bcc.n	10013888 <_svfprintf_r+0x11c0>
10013820:	465b      	mov	r3, fp
10013822:	4622      	mov	r2, r4
10013824:	1899      	adds	r1, r3, r2
10013826:	f141 0100 	adc.w	r1, r1, #0
1001382a:	fba9 0401 	umull	r0, r4, r9, r1
1001382e:	f024 0003 	bic.w	r0, r4, #3
10013832:	eb00 0094 	add.w	r0, r0, r4, lsr #2
10013836:	1a09      	subs	r1, r1, r0
10013838:	1a58      	subs	r0, r3, r1
1001383a:	f162 0e00 	sbc.w	lr, r2, #0
1001383e:	fb0a f400 	mul.w	r4, sl, r0
10013842:	fba0 b009 	umull	fp, r0, r0, r9
10013846:	fb09 440e 	mla	r4, r9, lr, r4
1001384a:	f00b 0e01 	and.w	lr, fp, #1
1001384e:	4404      	add	r4, r0
10013850:	fbae 0e07 	umull	r0, lr, lr, r7
10013854:	1840      	adds	r0, r0, r1
10013856:	ea4f 0b5b 	mov.w	fp, fp, lsr #1
1001385a:	3030      	adds	r0, #48	@ 0x30
1001385c:	f805 0c01 	strb.w	r0, [r5, #-1]
10013860:	ea4b 7bc4 	orr.w	fp, fp, r4, lsl #31
10013864:	f10c 0c01 	add.w	ip, ip, #1
10013868:	3d01      	subs	r5, #1
1001386a:	0864      	lsrs	r4, r4, #1
1001386c:	2e00      	cmp	r6, #0
1001386e:	d0d3      	beq.n	10013818 <_svfprintf_r+0x1150>
10013870:	f898 1000 	ldrb.w	r1, [r8]
10013874:	458c      	cmp	ip, r1
10013876:	d1cf      	bne.n	10013818 <_svfprintf_r+0x1150>
10013878:	f1bc 0fff 	cmp.w	ip, #255	@ 0xff
1001387c:	d0cc      	beq.n	10013818 <_svfprintf_r+0x1150>
1001387e:	2b0a      	cmp	r3, #10
10013880:	f172 0200 	sbcs.w	r2, r2, #0
10013884:	f080 8136 	bcs.w	10013af4 <_svfprintf_r+0x142c>
10013888:	f8cd 806c 	str.w	r8, [sp, #108]	@ 0x6c
1001388c:	9c06      	ldr	r4, [sp, #24]
1001388e:	f8dd 8030 	ldr.w	r8, [sp, #48]	@ 0x30
10013892:	f8cd c04c 	str.w	ip, [sp, #76]	@ 0x4c
10013896:	f7ff bb15 	b.w	10012ec4 <_svfprintf_r+0x7fc>
1001389a:	bf00      	nop
1001389c:	1001d940 	.word	0x1001d940
100138a0:	1001d92c 	.word	0x1001d92c
100138a4:	1001d954 	.word	0x1001d954
100138a8:	1001d960 	.word	0x1001d960
100138ac:	cccccccd 	.word	0xcccccccd
100138b0:	9909      	ldr	r1, [sp, #36]	@ 0x24
100138b2:	9807      	ldr	r0, [sp, #28]
100138b4:	9315      	str	r3, [sp, #84]	@ 0x54
100138b6:	aa32      	add	r2, sp, #200	@ 0xc8
100138b8:	f003 f9c8 	bl	10016c4c <__ssprint_r>
100138bc:	2800      	cmp	r0, #0
100138be:	f47f abba 	bne.w	10013036 <_svfprintf_r+0x96e>
100138c2:	f89d 209f 	ldrb.w	r2, [sp, #159]	@ 0x9f
100138c6:	9c34      	ldr	r4, [sp, #208]	@ 0xd0
100138c8:	9b15      	ldr	r3, [sp, #84]	@ 0x54
100138ca:	f10d 08d4 	add.w	r8, sp, #212	@ 0xd4
100138ce:	f7ff b83f 	b.w	10012950 <_svfprintf_r+0x288>
100138d2:	46a3      	mov	fp, r4
100138d4:	e59d      	b.n	10013412 <_svfprintf_r+0xd4a>
100138d6:	46d3      	mov	fp, sl
100138d8:	e59b      	b.n	10013412 <_svfprintf_r+0xd4a>
100138da:	9b10      	ldr	r3, [sp, #64]	@ 0x40
100138dc:	3b01      	subs	r3, #1
100138de:	f10a 3aff 	add.w	sl, sl, #4294967295	@ 0xffffffff
100138e2:	9310      	str	r3, [sp, #64]	@ 0x40
100138e4:	e6fc      	b.n	100136e0 <_svfprintf_r+0x1018>
100138e6:	2901      	cmp	r1, #1
100138e8:	464c      	mov	r4, r9
100138ea:	f47f aadb 	bne.w	10012ea4 <_svfprintf_r+0x7dc>
100138ee:	e42f      	b.n	10013150 <_svfprintf_r+0xa88>
100138f0:	9909      	ldr	r1, [sp, #36]	@ 0x24
100138f2:	9807      	ldr	r0, [sp, #28]
100138f4:	aa32      	add	r2, sp, #200	@ 0xc8
100138f6:	f003 f9a9 	bl	10016c4c <__ssprint_r>
100138fa:	2800      	cmp	r0, #0
100138fc:	f47f ab9b 	bne.w	10013036 <_svfprintf_r+0x96e>
10013900:	9c34      	ldr	r4, [sp, #208]	@ 0xd0
10013902:	f10d 08d4 	add.w	r8, sp, #212	@ 0xd4
10013906:	f7ff ba8a 	b.w	10012e1e <_svfprintf_r+0x756>
1001390a:	af30      	add	r7, sp, #192	@ 0xc0
1001390c:	2208      	movs	r2, #8
1001390e:	2100      	movs	r1, #0
10013910:	4638      	mov	r0, r7
10013912:	952b      	str	r5, [sp, #172]	@ 0xac
10013914:	f000 ffec 	bl	100148f0 <memset>
10013918:	9b08      	ldr	r3, [sp, #32]
1001391a:	1c58      	adds	r0, r3, #1
1001391c:	f000 80c9 	beq.w	10013ab2 <_svfprintf_r+0x13ea>
10013920:	2400      	movs	r4, #0
10013922:	f8cd 9018 	str.w	r9, [sp, #24]
10013926:	46a3      	mov	fp, r4
10013928:	f8dd 901c 	ldr.w	r9, [sp, #28]
1001392c:	469a      	mov	sl, r3
1001392e:	e00c      	b.n	1001394a <_svfprintf_r+0x1282>
10013930:	a945      	add	r1, sp, #276	@ 0x114
10013932:	4648      	mov	r0, r9
10013934:	f001 f82e 	bl	10014994 <_wcrtomb_r>
10013938:	1c41      	adds	r1, r0, #1
1001393a:	4458      	add	r0, fp
1001393c:	f000 838e 	beq.w	1001405c <_svfprintf_r+0x1994>
10013940:	4550      	cmp	r0, sl
10013942:	dc08      	bgt.n	10013956 <_svfprintf_r+0x128e>
10013944:	f000 8441 	beq.w	100141ca <_svfprintf_r+0x1b02>
10013948:	4683      	mov	fp, r0
1001394a:	9a2b      	ldr	r2, [sp, #172]	@ 0xac
1001394c:	5912      	ldr	r2, [r2, r4]
1001394e:	463b      	mov	r3, r7
10013950:	3404      	adds	r4, #4
10013952:	2a00      	cmp	r2, #0
10013954:	d1ec      	bne.n	10013930 <_svfprintf_r+0x1268>
10013956:	f8dd 9018 	ldr.w	r9, [sp, #24]
1001395a:	f1bb 0f00 	cmp.w	fp, #0
1001395e:	f000 80dd 	beq.w	10013b1c <_svfprintf_r+0x1454>
10013962:	f1bb 0f63 	cmp.w	fp, #99	@ 0x63
10013966:	f300 81b9 	bgt.w	10013cdc <_svfprintf_r+0x1614>
1001396a:	2300      	movs	r3, #0
1001396c:	930c      	str	r3, [sp, #48]	@ 0x30
1001396e:	ad45      	add	r5, sp, #276	@ 0x114
10013970:	2208      	movs	r2, #8
10013972:	2100      	movs	r1, #0
10013974:	4638      	mov	r0, r7
10013976:	f000 ffbb 	bl	100148f0 <memset>
1001397a:	9807      	ldr	r0, [sp, #28]
1001397c:	9700      	str	r7, [sp, #0]
1001397e:	465b      	mov	r3, fp
10013980:	aa2b      	add	r2, sp, #172	@ 0xac
10013982:	4629      	mov	r1, r5
10013984:	f001 f962 	bl	10014c4c <_wcsrtombs_r>
10013988:	4583      	cmp	fp, r0
1001398a:	f040 845a 	bne.w	10014242 <_svfprintf_r+0x1b7a>
1001398e:	2300      	movs	r3, #0
10013990:	f805 300b 	strb.w	r3, [r5, fp]
10013994:	ea2b 71eb 	bic.w	r1, fp, fp, asr #31
10013998:	f89d 209f 	ldrb.w	r2, [sp, #159]	@ 0x9f
1001399c:	960d      	str	r6, [sp, #52]	@ 0x34
1001399e:	9308      	str	r3, [sp, #32]
100139a0:	9106      	str	r1, [sp, #24]
100139a2:	9314      	str	r3, [sp, #80]	@ 0x50
100139a4:	9310      	str	r3, [sp, #64]	@ 0x40
100139a6:	9312      	str	r3, [sp, #72]	@ 0x48
100139a8:	f7ff b875 	b.w	10012a96 <_svfprintf_r+0x3ce>
100139ac:	46cb      	mov	fp, r9
100139ae:	e530      	b.n	10013412 <_svfprintf_r+0xd4a>
100139b0:	4a74      	ldr	r2, [pc, #464]	@ (10013b84 <_svfprintf_r+0x14bc>)
100139b2:	9215      	str	r2, [sp, #84]	@ 0x54
100139b4:	3301      	adds	r3, #1
100139b6:	9a15      	ldr	r2, [sp, #84]	@ 0x54
100139b8:	f8c8 2000 	str.w	r2, [r8]
100139bc:	442c      	add	r4, r5
100139be:	2b07      	cmp	r3, #7
100139c0:	f8c8 5004 	str.w	r5, [r8, #4]
100139c4:	e9cd 3433 	strd	r3, r4, [sp, #204]	@ 0xcc
100139c8:	f77e afff 	ble.w	100129ca <_svfprintf_r+0x302>
100139cc:	f7ff bb69 	b.w	100130a2 <_svfprintf_r+0x9da>
100139d0:	9909      	ldr	r1, [sp, #36]	@ 0x24
100139d2:	9807      	ldr	r0, [sp, #28]
100139d4:	aa32      	add	r2, sp, #200	@ 0xc8
100139d6:	f003 f939 	bl	10016c4c <__ssprint_r>
100139da:	2800      	cmp	r0, #0
100139dc:	f47f ab2b 	bne.w	10013036 <_svfprintf_r+0x96e>
100139e0:	9c34      	ldr	r4, [sp, #208]	@ 0xd0
100139e2:	f10d 08d4 	add.w	r8, sp, #212	@ 0xd4
100139e6:	f7fe bfda 	b.w	1001299e <_svfprintf_r+0x2d6>
100139ea:	9909      	ldr	r1, [sp, #36]	@ 0x24
100139ec:	aa32      	add	r2, sp, #200	@ 0xc8
100139ee:	4658      	mov	r0, fp
100139f0:	f003 f92c 	bl	10016c4c <__ssprint_r>
100139f4:	2800      	cmp	r0, #0
100139f6:	f47f ad0c 	bne.w	10013412 <_svfprintf_r+0xd4a>
100139fa:	f89a 0000 	ldrb.w	r0, [sl]
100139fe:	9934      	ldr	r1, [sp, #208]	@ 0xd0
10013a00:	aa35      	add	r2, sp, #212	@ 0xd4
10013a02:	e68e      	b.n	10013722 <_svfprintf_r+0x105a>
10013a04:	9b0d      	ldr	r3, [sp, #52]	@ 0x34
10013a06:	9a0a      	ldr	r2, [sp, #40]	@ 0x28
10013a08:	681b      	ldr	r3, [r3, #0]
10013a0a:	601a      	str	r2, [r3, #0]
10013a0c:	f7ff b966 	b.w	10012cdc <_svfprintf_r+0x614>
10013a10:	f8dd 9020 	ldr.w	r9, [sp, #32]
10013a14:	9b15      	ldr	r3, [sp, #84]	@ 0x54
10013a16:	603b      	str	r3, [r7, #0]
10013a18:	3601      	adds	r6, #1
10013a1a:	4444      	add	r4, r8
10013a1c:	2e07      	cmp	r6, #7
10013a1e:	e9cd 6433 	strd	r6, r4, [sp, #204]	@ 0xcc
10013a22:	f8c7 8004 	str.w	r8, [r7, #4]
10013a26:	f77f ab7f 	ble.w	10013128 <_svfprintf_r+0xa60>
10013a2a:	e487      	b.n	1001333c <_svfprintf_r+0xc74>
10013a2c:	9b18      	ldr	r3, [sp, #96]	@ 0x60
10013a2e:	991a      	ldr	r1, [sp, #104]	@ 0x68
10013a30:	441c      	add	r4, r3
10013a32:	e9c8 1300 	strd	r1, r3, [r8]
10013a36:	9b33      	ldr	r3, [sp, #204]	@ 0xcc
10013a38:	9434      	str	r4, [sp, #208]	@ 0xd0
10013a3a:	3301      	adds	r3, #1
10013a3c:	2b07      	cmp	r3, #7
10013a3e:	9333      	str	r3, [sp, #204]	@ 0xcc
10013a40:	f300 8164 	bgt.w	10013d0c <_svfprintf_r+0x1644>
10013a44:	f108 0808 	add.w	r8, r8, #8
10013a48:	2a00      	cmp	r2, #0
10013a4a:	f6bf ab1e 	bge.w	1001308a <_svfprintf_r+0x9c2>
10013a4e:	4256      	negs	r6, r2
10013a50:	3210      	adds	r2, #16
10013a52:	4a4c      	ldr	r2, [pc, #304]	@ (10013b84 <_svfprintf_r+0x14bc>)
10013a54:	9215      	str	r2, [sp, #84]	@ 0x54
10013a56:	f280 82e7 	bge.w	10014028 <_svfprintf_r+0x1960>
10013a5a:	46aa      	mov	sl, r5
10013a5c:	2710      	movs	r7, #16
10013a5e:	4615      	mov	r5, r2
10013a60:	e005      	b.n	10013a6e <_svfprintf_r+0x13a6>
10013a62:	f108 0808 	add.w	r8, r8, #8
10013a66:	3e10      	subs	r6, #16
10013a68:	2e10      	cmp	r6, #16
10013a6a:	f340 82dc 	ble.w	10014026 <_svfprintf_r+0x195e>
10013a6e:	3301      	adds	r3, #1
10013a70:	3410      	adds	r4, #16
10013a72:	2b07      	cmp	r3, #7
10013a74:	e9c8 5700 	strd	r5, r7, [r8]
10013a78:	e9cd 3433 	strd	r3, r4, [sp, #204]	@ 0xcc
10013a7c:	ddf1      	ble.n	10013a62 <_svfprintf_r+0x139a>
10013a7e:	9909      	ldr	r1, [sp, #36]	@ 0x24
10013a80:	9807      	ldr	r0, [sp, #28]
10013a82:	aa32      	add	r2, sp, #200	@ 0xc8
10013a84:	f003 f8e2 	bl	10016c4c <__ssprint_r>
10013a88:	2800      	cmp	r0, #0
10013a8a:	f47f aad4 	bne.w	10013036 <_svfprintf_r+0x96e>
10013a8e:	e9dd 3433 	ldrd	r3, r4, [sp, #204]	@ 0xcc
10013a92:	f10d 08d4 	add.w	r8, sp, #212	@ 0xd4
10013a96:	e7e6      	b.n	10013a66 <_svfprintf_r+0x139e>
10013a98:	f419 7200 	ands.w	r2, r9, #512	@ 0x200
10013a9c:	bf1c      	itt	ne
10013a9e:	b2db      	uxtbne	r3, r3
10013aa0:	4602      	movne	r2, r0
10013aa2:	e58f      	b.n	100135c4 <_svfprintf_r+0xefc>
10013aa4:	f419 7200 	ands.w	r2, r9, #512	@ 0x200
10013aa8:	bf1c      	itt	ne
10013aaa:	b2db      	uxtbne	r3, r3
10013aac:	4602      	movne	r2, r0
10013aae:	f7ff b8e0 	b.w	10012c72 <_svfprintf_r+0x5aa>
10013ab2:	2300      	movs	r3, #0
10013ab4:	9807      	ldr	r0, [sp, #28]
10013ab6:	9700      	str	r7, [sp, #0]
10013ab8:	aa2b      	add	r2, sp, #172	@ 0xac
10013aba:	4619      	mov	r1, r3
10013abc:	f001 f8c6 	bl	10014c4c <_wcsrtombs_r>
10013ac0:	f1b0 3fff 	cmp.w	r0, #4294967295	@ 0xffffffff
10013ac4:	4683      	mov	fp, r0
10013ac6:	f000 82c9 	beq.w	1001405c <_svfprintf_r+0x1994>
10013aca:	952b      	str	r5, [sp, #172]	@ 0xac
10013acc:	e745      	b.n	1001395a <_svfprintf_r+0x1292>
10013ace:	4645      	mov	r5, r8
10013ad0:	460c      	mov	r4, r1
10013ad2:	4690      	mov	r8, r2
10013ad4:	3301      	adds	r3, #1
10013ad6:	9a15      	ldr	r2, [sp, #84]	@ 0x54
10013ad8:	f8c8 2000 	str.w	r2, [r8]
10013adc:	4434      	add	r4, r6
10013ade:	2b07      	cmp	r3, #7
10013ae0:	e9cd 3433 	strd	r3, r4, [sp, #204]	@ 0xcc
10013ae4:	f8c8 6004 	str.w	r6, [r8, #4]
10013ae8:	f300 8103 	bgt.w	10013cf2 <_svfprintf_r+0x162a>
10013aec:	f108 0808 	add.w	r8, r8, #8
10013af0:	f7ff bbb6 	b.w	10013260 <_svfprintf_r+0xb98>
10013af4:	9b1e      	ldr	r3, [sp, #120]	@ 0x78
10013af6:	991d      	ldr	r1, [sp, #116]	@ 0x74
10013af8:	1aed      	subs	r5, r5, r3
10013afa:	461a      	mov	r2, r3
10013afc:	4628      	mov	r0, r5
10013afe:	f7fe fd2b 	bl	10012558 <strncpy>
10013b02:	f898 3001 	ldrb.w	r3, [r8, #1]
10013b06:	b10b      	cbz	r3, 10013b0c <_svfprintf_r+0x1444>
10013b08:	f108 0801 	add.w	r8, r8, #1
10013b0c:	f04f 0c00 	mov.w	ip, #0
10013b10:	e686      	b.n	10013820 <_svfprintf_r+0x1158>
10013b12:	222d      	movs	r2, #45	@ 0x2d
10013b14:	f88d 209f 	strb.w	r2, [sp, #159]	@ 0x9f
10013b18:	f7fe bfac 	b.w	10012a74 <_svfprintf_r+0x3ac>
10013b1c:	f89d 209f 	ldrb.w	r2, [sp, #159]	@ 0x9f
10013b20:	960d      	str	r6, [sp, #52]	@ 0x34
10013b22:	f8cd b018 	str.w	fp, [sp, #24]
10013b26:	f8cd b020 	str.w	fp, [sp, #32]
10013b2a:	f8cd b050 	str.w	fp, [sp, #80]	@ 0x50
10013b2e:	f8cd b040 	str.w	fp, [sp, #64]	@ 0x40
10013b32:	f8cd b048 	str.w	fp, [sp, #72]	@ 0x48
10013b36:	f8cd b030 	str.w	fp, [sp, #48]	@ 0x30
10013b3a:	f7fe bfac 	b.w	10012a96 <_svfprintf_r+0x3ce>
10013b3e:	9909      	ldr	r1, [sp, #36]	@ 0x24
10013b40:	9807      	ldr	r0, [sp, #28]
10013b42:	aa32      	add	r2, sp, #200	@ 0xc8
10013b44:	f003 f882 	bl	10016c4c <__ssprint_r>
10013b48:	2800      	cmp	r0, #0
10013b4a:	f47f aa74 	bne.w	10013036 <_svfprintf_r+0x96e>
10013b4e:	9a29      	ldr	r2, [sp, #164]	@ 0xa4
10013b50:	9c34      	ldr	r4, [sp, #208]	@ 0xd0
10013b52:	f10d 08d4 	add.w	r8, sp, #212	@ 0xd4
10013b56:	f7ff ba81 	b.w	1001305c <_svfprintf_r+0x994>
10013b5a:	9b13      	ldr	r3, [sp, #76]	@ 0x4c
10013b5c:	ebab 060a 	sub.w	r6, fp, sl
10013b60:	1b5d      	subs	r5, r3, r5
10013b62:	42ae      	cmp	r6, r5
10013b64:	bfa8      	it	ge
10013b66:	462e      	movge	r6, r5
10013b68:	f7ff bbae 	b.w	100132c8 <_svfprintf_r+0xc00>
10013b6c:	9b0d      	ldr	r3, [sp, #52]	@ 0x34
10013b6e:	9a0a      	ldr	r2, [sp, #40]	@ 0x28
10013b70:	681b      	ldr	r3, [r3, #0]
10013b72:	801a      	strh	r2, [r3, #0]
10013b74:	f7ff b8b2 	b.w	10012cdc <_svfprintf_r+0x614>
10013b78:	f343 12c0 	sbfx	r2, r3, #7, #1
10013b7c:	4611      	mov	r1, r2
10013b7e:	b25b      	sxtb	r3, r3
10013b80:	f7ff b83d 	b.w	10012bfe <_svfprintf_r+0x536>
10013b84:	1001d960 	.word	0x1001d960
10013b88:	9e08      	ldr	r6, [sp, #32]
10013b8a:	2302      	movs	r3, #2
10013b8c:	e9cd 3600 	strd	r3, r6, [sp]
10013b90:	ab30      	add	r3, sp, #192	@ 0xc0
10013b92:	9304      	str	r3, [sp, #16]
10013b94:	ab2b      	add	r3, sp, #172	@ 0xac
10013b96:	9303      	str	r3, [sp, #12]
10013b98:	ab29      	add	r3, sp, #164	@ 0xa4
10013b9a:	9302      	str	r3, [sp, #8]
10013b9c:	9807      	ldr	r0, [sp, #28]
10013b9e:	e9dd 2324 	ldrd	r2, r3, [sp, #144]	@ 0x90
10013ba2:	f001 f8f5 	bl	10014d90 <_dtoa_r>
10013ba6:	9b0e      	ldr	r3, [sp, #56]	@ 0x38
10013ba8:	2b67      	cmp	r3, #103	@ 0x67
10013baa:	4605      	mov	r5, r0
10013bac:	f000 813b 	beq.w	10013e26 <_svfprintf_r+0x175e>
10013bb0:	9b0e      	ldr	r3, [sp, #56]	@ 0x38
10013bb2:	2b47      	cmp	r3, #71	@ 0x47
10013bb4:	f000 8137 	beq.w	10013e26 <_svfprintf_r+0x175e>
10013bb8:	9b0e      	ldr	r3, [sp, #56]	@ 0x38
10013bba:	f023 0720 	bic.w	r7, r3, #32
10013bbe:	2f46      	cmp	r7, #70	@ 0x46
10013bc0:	eb00 0406 	add.w	r4, r0, r6
10013bc4:	d105      	bne.n	10013bd2 <_svfprintf_r+0x150a>
10013bc6:	7803      	ldrb	r3, [r0, #0]
10013bc8:	2b30      	cmp	r3, #48	@ 0x30
10013bca:	f000 82f1 	beq.w	100141b0 <_svfprintf_r+0x1ae8>
10013bce:	9e29      	ldr	r6, [sp, #164]	@ 0xa4
10013bd0:	4434      	add	r4, r6
10013bd2:	e9dd 0124 	ldrd	r0, r1, [sp, #144]	@ 0x90
10013bd6:	2200      	movs	r2, #0
10013bd8:	2300      	movs	r3, #0
10013bda:	f007 fab1 	bl	1001b140 <__aeabi_dcmpeq>
10013bde:	2800      	cmp	r0, #0
10013be0:	f000 813f 	beq.w	10013e62 <_svfprintf_r+0x179a>
10013be4:	4623      	mov	r3, r4
10013be6:	1b5b      	subs	r3, r3, r5
10013be8:	9313      	str	r3, [sp, #76]	@ 0x4c
10013bea:	9a29      	ldr	r2, [sp, #164]	@ 0xa4
10013bec:	9212      	str	r2, [sp, #72]	@ 0x48
10013bee:	2f47      	cmp	r7, #71	@ 0x47
10013bf0:	f000 8121 	beq.w	10013e36 <_svfprintf_r+0x176e>
10013bf4:	2f46      	cmp	r7, #70	@ 0x46
10013bf6:	f000 81e3 	beq.w	10013fc0 <_svfprintf_r+0x18f8>
10013bfa:	990e      	ldr	r1, [sp, #56]	@ 0x38
10013bfc:	1e53      	subs	r3, r2, #1
10013bfe:	2961      	cmp	r1, #97	@ 0x61
10013c00:	9329      	str	r3, [sp, #164]	@ 0xa4
10013c02:	f000 8316 	beq.w	10014232 <_svfprintf_r+0x1b6a>
10013c06:	2941      	cmp	r1, #65	@ 0x41
10013c08:	f040 8120 	bne.w	10013e4c <_svfprintf_r+0x1784>
10013c0c:	2150      	movs	r1, #80	@ 0x50
10013c0e:	2001      	movs	r0, #1
10013c10:	2b00      	cmp	r3, #0
10013c12:	bfb6      	itet	lt
10013c14:	f1c2 0301 	rsblt	r3, r2, #1
10013c18:	222b      	movge	r2, #43	@ 0x2b
10013c1a:	222d      	movlt	r2, #45	@ 0x2d
10013c1c:	2b09      	cmp	r3, #9
10013c1e:	f88d 10b0 	strb.w	r1, [sp, #176]	@ 0xb0
10013c22:	f88d 20b1 	strb.w	r2, [sp, #177]	@ 0xb1
10013c26:	f340 8227 	ble.w	10014078 <_svfprintf_r+0x19b0>
10013c2a:	f10d 04c7 	add.w	r4, sp, #199	@ 0xc7
10013c2e:	4eae      	ldr	r6, [pc, #696]	@ (10013ee8 <_svfprintf_r+0x1820>)
10013c30:	4622      	mov	r2, r4
10013c32:	4610      	mov	r0, r2
10013c34:	fba6 1203 	umull	r1, r2, r6, r3
10013c38:	08d2      	lsrs	r2, r2, #3
10013c3a:	eb02 0182 	add.w	r1, r2, r2, lsl #2
10013c3e:	eba3 0141 	sub.w	r1, r3, r1, lsl #1
10013c42:	3130      	adds	r1, #48	@ 0x30
10013c44:	f800 1c01 	strb.w	r1, [r0, #-1]
10013c48:	4619      	mov	r1, r3
10013c4a:	2963      	cmp	r1, #99	@ 0x63
10013c4c:	4613      	mov	r3, r2
10013c4e:	f100 32ff 	add.w	r2, r0, #4294967295	@ 0xffffffff
10013c52:	dcee      	bgt.n	10013c32 <_svfprintf_r+0x156a>
10013c54:	3330      	adds	r3, #48	@ 0x30
10013c56:	f802 3c01 	strb.w	r3, [r2, #-1]
10013c5a:	1e83      	subs	r3, r0, #2
10013c5c:	42a3      	cmp	r3, r4
10013c5e:	f080 82ed 	bcs.w	1001423c <_svfprintf_r+0x1b74>
10013c62:	f10d 02b1 	add.w	r2, sp, #177	@ 0xb1
10013c66:	f813 1b01 	ldrb.w	r1, [r3], #1
10013c6a:	f802 1f01 	strb.w	r1, [r2, #1]!
10013c6e:	42a3      	cmp	r3, r4
10013c70:	d1f9      	bne.n	10013c66 <_svfprintf_r+0x159e>
10013c72:	ab5e      	add	r3, sp, #376	@ 0x178
10013c74:	1a18      	subs	r0, r3, r0
10013c76:	f1a0 03ad 	sub.w	r3, r0, #173	@ 0xad
10013c7a:	931c      	str	r3, [sp, #112]	@ 0x70
10013c7c:	9b13      	ldr	r3, [sp, #76]	@ 0x4c
10013c7e:	9a1c      	ldr	r2, [sp, #112]	@ 0x70
10013c80:	2b01      	cmp	r3, #1
10013c82:	eb03 0b02 	add.w	fp, r3, r2
10013c86:	f340 822a 	ble.w	100140de <_svfprintf_r+0x1a16>
10013c8a:	9b18      	ldr	r3, [sp, #96]	@ 0x60
10013c8c:	449b      	add	fp, r3
10013c8e:	9b06      	ldr	r3, [sp, #24]
10013c90:	f423 6380 	bic.w	r3, r3, #1024	@ 0x400
10013c94:	f443 7980 	orr.w	r9, r3, #256	@ 0x100
10013c98:	ea2b 72eb 	bic.w	r2, fp, fp, asr #31
10013c9c:	2300      	movs	r3, #0
10013c9e:	9314      	str	r3, [sp, #80]	@ 0x50
10013ca0:	9206      	str	r2, [sp, #24]
10013ca2:	9310      	str	r3, [sp, #64]	@ 0x40
10013ca4:	9312      	str	r3, [sp, #72]	@ 0x48
10013ca6:	9b1f      	ldr	r3, [sp, #124]	@ 0x7c
10013ca8:	2b00      	cmp	r3, #0
10013caa:	f040 80d3 	bne.w	10013e54 <_svfprintf_r+0x178c>
10013cae:	f89d 209f 	ldrb.w	r2, [sp, #159]	@ 0x9f
10013cb2:	9308      	str	r3, [sp, #32]
10013cb4:	f7fe beef 	b.w	10012a96 <_svfprintf_r+0x3ce>
10013cb8:	9c09      	ldr	r4, [sp, #36]	@ 0x24
10013cba:	aa32      	add	r2, sp, #200	@ 0xc8
10013cbc:	4621      	mov	r1, r4
10013cbe:	4658      	mov	r0, fp
10013cc0:	f002 ffc4 	bl	10016c4c <__ssprint_r>
10013cc4:	89a3      	ldrh	r3, [r4, #12]
10013cc6:	f003 0340 	and.w	r3, r3, #64	@ 0x40
10013cca:	f7fe be06 	b.w	100128da <_svfprintf_r+0x212>
10013cce:	4628      	mov	r0, r5
10013cd0:	960d      	str	r6, [sp, #52]	@ 0x34
10013cd2:	f002 fa15 	bl	10016100 <strlen>
10013cd6:	4683      	mov	fp, r0
10013cd8:	f7fe bf74 	b.w	10012bc4 <_svfprintf_r+0x4fc>
10013cdc:	9807      	ldr	r0, [sp, #28]
10013cde:	f10b 0101 	add.w	r1, fp, #1
10013ce2:	f000 fac1 	bl	10014268 <_malloc_r>
10013ce6:	4605      	mov	r5, r0
10013ce8:	2800      	cmp	r0, #0
10013cea:	f000 81b7 	beq.w	1001405c <_svfprintf_r+0x1994>
10013cee:	900c      	str	r0, [sp, #48]	@ 0x30
10013cf0:	e63e      	b.n	10013970 <_svfprintf_r+0x12a8>
10013cf2:	9909      	ldr	r1, [sp, #36]	@ 0x24
10013cf4:	9807      	ldr	r0, [sp, #28]
10013cf6:	aa32      	add	r2, sp, #200	@ 0xc8
10013cf8:	f002 ffa8 	bl	10016c4c <__ssprint_r>
10013cfc:	2800      	cmp	r0, #0
10013cfe:	f47f a99a 	bne.w	10013036 <_svfprintf_r+0x96e>
10013d02:	9c34      	ldr	r4, [sp, #208]	@ 0xd0
10013d04:	f10d 08d4 	add.w	r8, sp, #212	@ 0xd4
10013d08:	f7ff baaa 	b.w	10013260 <_svfprintf_r+0xb98>
10013d0c:	9909      	ldr	r1, [sp, #36]	@ 0x24
10013d0e:	9807      	ldr	r0, [sp, #28]
10013d10:	aa32      	add	r2, sp, #200	@ 0xc8
10013d12:	f002 ff9b 	bl	10016c4c <__ssprint_r>
10013d16:	2800      	cmp	r0, #0
10013d18:	f47f a98d 	bne.w	10013036 <_svfprintf_r+0x96e>
10013d1c:	e9dd 3433 	ldrd	r3, r4, [sp, #204]	@ 0xcc
10013d20:	9a29      	ldr	r2, [sp, #164]	@ 0xa4
10013d22:	f10d 08d4 	add.w	r8, sp, #212	@ 0xd4
10013d26:	e68f      	b.n	10013a48 <_svfprintf_r+0x1380>
10013d28:	2306      	movs	r3, #6
10013d2a:	9308      	str	r3, [sp, #32]
10013d2c:	f7ff bbf1 	b.w	10013512 <_svfprintf_r+0xe4a>
10013d30:	9b08      	ldr	r3, [sp, #32]
10013d32:	1c5e      	adds	r6, r3, #1
10013d34:	2302      	movs	r3, #2
10013d36:	e729      	b.n	10013b8c <_svfprintf_r+0x14c4>
10013d38:	9e08      	ldr	r6, [sp, #32]
10013d3a:	2303      	movs	r3, #3
10013d3c:	e726      	b.n	10013b8c <_svfprintf_r+0x14c4>
10013d3e:	aa29      	add	r2, sp, #164	@ 0xa4
10013d40:	e9dd 0124 	ldrd	r0, r1, [sp, #144]	@ 0x90
10013d44:	f002 fa48 	bl	100161d8 <frexp>
10013d48:	2200      	movs	r2, #0
10013d4a:	f04f 537f 	mov.w	r3, #1069547520	@ 0x3fc00000
10013d4e:	f006 ff8f 	bl	1001ac70 <__aeabi_dmul>
10013d52:	4602      	mov	r2, r0
10013d54:	460b      	mov	r3, r1
10013d56:	e9cd 2310 	strd	r2, r3, [sp, #64]	@ 0x40
10013d5a:	2200      	movs	r2, #0
10013d5c:	2300      	movs	r3, #0
10013d5e:	f007 f9ef 	bl	1001b140 <__aeabi_dcmpeq>
10013d62:	2800      	cmp	r0, #0
10013d64:	f040 81c0 	bne.w	100140e8 <_svfprintf_r+0x1a20>
10013d68:	4b60      	ldr	r3, [pc, #384]	@ (10013eec <_svfprintf_r+0x1824>)
10013d6a:	9312      	str	r3, [sp, #72]	@ 0x48
10013d6c:	9b08      	ldr	r3, [sp, #32]
10013d6e:	f8cd 804c 	str.w	r8, [sp, #76]	@ 0x4c
10013d72:	f103 39ff 	add.w	r9, r3, #4294967295	@ 0xffffffff
10013d76:	462e      	mov	r6, r5
10013d78:	9514      	str	r5, [sp, #80]	@ 0x50
10013d7a:	f8dd b048 	ldr.w	fp, [sp, #72]	@ 0x48
10013d7e:	464d      	mov	r5, r9
10013d80:	e9dd 8910 	ldrd	r8, r9, [sp, #64]	@ 0x40
10013d84:	e005      	b.n	10013d92 <_svfprintf_r+0x16ca>
10013d86:	2200      	movs	r2, #0
10013d88:	2300      	movs	r3, #0
10013d8a:	f007 f9d9 	bl	1001b140 <__aeabi_dcmpeq>
10013d8e:	b9f0      	cbnz	r0, 10013dce <_svfprintf_r+0x1706>
10013d90:	463d      	mov	r5, r7
10013d92:	4b57      	ldr	r3, [pc, #348]	@ (10013ef0 <_svfprintf_r+0x1828>)
10013d94:	2200      	movs	r2, #0
10013d96:	4640      	mov	r0, r8
10013d98:	4649      	mov	r1, r9
10013d9a:	f006 ff69 	bl	1001ac70 <__aeabi_dmul>
10013d9e:	4689      	mov	r9, r1
10013da0:	4680      	mov	r8, r0
10013da2:	f007 fa15 	bl	1001b1d0 <__aeabi_d2iz>
10013da6:	4604      	mov	r4, r0
10013da8:	f006 fef8 	bl	1001ab9c <__aeabi_i2d>
10013dac:	460b      	mov	r3, r1
10013dae:	4602      	mov	r2, r0
10013db0:	4649      	mov	r1, r9
10013db2:	4640      	mov	r0, r8
10013db4:	f006 fda4 	bl	1001a900 <__aeabi_dsub>
10013db8:	f81b 3004 	ldrb.w	r3, [fp, r4]
10013dbc:	46b2      	mov	sl, r6
10013dbe:	f806 3b01 	strb.w	r3, [r6], #1
10013dc2:	1c6b      	adds	r3, r5, #1
10013dc4:	f105 37ff 	add.w	r7, r5, #4294967295	@ 0xffffffff
10013dc8:	4680      	mov	r8, r0
10013dca:	4689      	mov	r9, r1
10013dcc:	d1db      	bne.n	10013d86 <_svfprintf_r+0x16be>
10013dce:	46cb      	mov	fp, r9
10013dd0:	4657      	mov	r7, sl
10013dd2:	46c2      	mov	sl, r8
10013dd4:	4b47      	ldr	r3, [pc, #284]	@ (10013ef4 <_svfprintf_r+0x182c>)
10013dd6:	f8dd 804c 	ldr.w	r8, [sp, #76]	@ 0x4c
10013dda:	2200      	movs	r2, #0
10013ddc:	4650      	mov	r0, sl
10013dde:	4659      	mov	r1, fp
10013de0:	46a9      	mov	r9, r5
10013de2:	9d14      	ldr	r5, [sp, #80]	@ 0x50
10013de4:	f007 f9d4 	bl	1001b190 <__aeabi_dcmpgt>
10013de8:	2800      	cmp	r0, #0
10013dea:	f040 8153 	bne.w	10014094 <_svfprintf_r+0x19cc>
10013dee:	4b41      	ldr	r3, [pc, #260]	@ (10013ef4 <_svfprintf_r+0x182c>)
10013df0:	4650      	mov	r0, sl
10013df2:	4659      	mov	r1, fp
10013df4:	2200      	movs	r2, #0
10013df6:	f007 f9a3 	bl	1001b140 <__aeabi_dcmpeq>
10013dfa:	b110      	cbz	r0, 10013e02 <_svfprintf_r+0x173a>
10013dfc:	07e2      	lsls	r2, r4, #31
10013dfe:	f100 8149 	bmi.w	10014094 <_svfprintf_r+0x19cc>
10013e02:	f1b9 0f00 	cmp.w	r9, #0
10013e06:	f2c0 815f 	blt.w	100140c8 <_svfprintf_r+0x1a00>
10013e0a:	f109 0301 	add.w	r3, r9, #1
10013e0e:	4433      	add	r3, r6
10013e10:	2230      	movs	r2, #48	@ 0x30
10013e12:	f806 2b01 	strb.w	r2, [r6], #1
10013e16:	42b3      	cmp	r3, r6
10013e18:	d1fb      	bne.n	10013e12 <_svfprintf_r+0x174a>
10013e1a:	1b5b      	subs	r3, r3, r5
10013e1c:	9313      	str	r3, [sp, #76]	@ 0x4c
10013e1e:	9b0e      	ldr	r3, [sp, #56]	@ 0x38
10013e20:	f023 0720 	bic.w	r7, r3, #32
10013e24:	e6e1      	b.n	10013bea <_svfprintf_r+0x1522>
10013e26:	9b06      	ldr	r3, [sp, #24]
10013e28:	07db      	lsls	r3, r3, #31
10013e2a:	f100 80f9 	bmi.w	10014020 <_svfprintf_r+0x1958>
10013e2e:	9b30      	ldr	r3, [sp, #192]	@ 0xc0
10013e30:	9a29      	ldr	r2, [sp, #164]	@ 0xa4
10013e32:	1b5b      	subs	r3, r3, r5
10013e34:	9313      	str	r3, [sp, #76]	@ 0x4c
10013e36:	1cd3      	adds	r3, r2, #3
10013e38:	9212      	str	r2, [sp, #72]	@ 0x48
10013e3a:	db02      	blt.n	10013e42 <_svfprintf_r+0x177a>
10013e3c:	9b08      	ldr	r3, [sp, #32]
10013e3e:	4293      	cmp	r3, r2
10013e40:	da1b      	bge.n	10013e7a <_svfprintf_r+0x17b2>
10013e42:	9b0e      	ldr	r3, [sp, #56]	@ 0x38
10013e44:	3b02      	subs	r3, #2
10013e46:	930e      	str	r3, [sp, #56]	@ 0x38
10013e48:	1e53      	subs	r3, r2, #1
10013e4a:	9329      	str	r3, [sp, #164]	@ 0xa4
10013e4c:	f89d 1038 	ldrb.w	r1, [sp, #56]	@ 0x38
10013e50:	2000      	movs	r0, #0
10013e52:	e6dd      	b.n	10013c10 <_svfprintf_r+0x1548>
10013e54:	222d      	movs	r2, #45	@ 0x2d
10013e56:	2300      	movs	r3, #0
10013e58:	f88d 209f 	strb.w	r2, [sp, #159]	@ 0x9f
10013e5c:	9308      	str	r3, [sp, #32]
10013e5e:	f7fe be1d 	b.w	10012a9c <_svfprintf_r+0x3d4>
10013e62:	9b30      	ldr	r3, [sp, #192]	@ 0xc0
10013e64:	42a3      	cmp	r3, r4
10013e66:	f4bf aebe 	bcs.w	10013be6 <_svfprintf_r+0x151e>
10013e6a:	2130      	movs	r1, #48	@ 0x30
10013e6c:	1c5a      	adds	r2, r3, #1
10013e6e:	9230      	str	r2, [sp, #192]	@ 0xc0
10013e70:	7019      	strb	r1, [r3, #0]
10013e72:	9b30      	ldr	r3, [sp, #192]	@ 0xc0
10013e74:	429c      	cmp	r4, r3
10013e76:	d8f9      	bhi.n	10013e6c <_svfprintf_r+0x17a4>
10013e78:	e6b5      	b.n	10013be6 <_svfprintf_r+0x151e>
10013e7a:	9913      	ldr	r1, [sp, #76]	@ 0x4c
10013e7c:	428a      	cmp	r2, r1
10013e7e:	f2c0 80c4 	blt.w	1001400a <_svfprintf_r+0x1942>
10013e82:	9b06      	ldr	r3, [sp, #24]
10013e84:	07de      	lsls	r6, r3, #31
10013e86:	f140 8184 	bpl.w	10014192 <_svfprintf_r+0x1aca>
10013e8a:	9b18      	ldr	r3, [sp, #96]	@ 0x60
10013e8c:	eb02 0b03 	add.w	fp, r2, r3
10013e90:	9b06      	ldr	r3, [sp, #24]
10013e92:	055c      	lsls	r4, r3, #21
10013e94:	d502      	bpl.n	10013e9c <_svfprintf_r+0x17d4>
10013e96:	2a00      	cmp	r2, #0
10013e98:	f300 814d 	bgt.w	10014136 <_svfprintf_r+0x1a6e>
10013e9c:	ea2b 73eb 	bic.w	r3, fp, fp, asr #31
10013ea0:	9306      	str	r3, [sp, #24]
10013ea2:	f8dd 9054 	ldr.w	r9, [sp, #84]	@ 0x54
10013ea6:	2367      	movs	r3, #103	@ 0x67
10013ea8:	930e      	str	r3, [sp, #56]	@ 0x38
10013eaa:	2300      	movs	r3, #0
10013eac:	9314      	str	r3, [sp, #80]	@ 0x50
10013eae:	9310      	str	r3, [sp, #64]	@ 0x40
10013eb0:	e6f9      	b.n	10013ca6 <_svfprintf_r+0x15de>
10013eb2:	9909      	ldr	r1, [sp, #36]	@ 0x24
10013eb4:	aa32      	add	r2, sp, #200	@ 0xc8
10013eb6:	4658      	mov	r0, fp
10013eb8:	f002 fec8 	bl	10016c4c <__ssprint_r>
10013ebc:	2800      	cmp	r0, #0
10013ebe:	f47f aaa8 	bne.w	10013412 <_svfprintf_r+0xd4a>
10013ec2:	f89a 0000 	ldrb.w	r0, [sl]
10013ec6:	9934      	ldr	r1, [sp, #208]	@ 0xd0
10013ec8:	aa35      	add	r2, sp, #212	@ 0xd4
10013eca:	4404      	add	r4, r0
10013ecc:	e430      	b.n	10013730 <_svfprintf_r+0x1068>
10013ece:	9909      	ldr	r1, [sp, #36]	@ 0x24
10013ed0:	9807      	ldr	r0, [sp, #28]
10013ed2:	aa32      	add	r2, sp, #200	@ 0xc8
10013ed4:	f002 feba 	bl	10016c4c <__ssprint_r>
10013ed8:	2800      	cmp	r0, #0
10013eda:	f47f a8ac 	bne.w	10013036 <_svfprintf_r+0x96e>
10013ede:	9c34      	ldr	r4, [sp, #208]	@ 0xd0
10013ee0:	f10d 08d4 	add.w	r8, sp, #212	@ 0xd4
10013ee4:	f7ff b9b5 	b.w	10013252 <_svfprintf_r+0xb8a>
10013ee8:	cccccccd 	.word	0xcccccccd
10013eec:	1001d940 	.word	0x1001d940
10013ef0:	40300000 	.word	0x40300000
10013ef4:	3fe00000 	.word	0x3fe00000
10013ef8:	2378      	movs	r3, #120	@ 0x78
10013efa:	f88d 30a1 	strb.w	r3, [sp, #161]	@ 0xa1
10013efe:	2330      	movs	r3, #48	@ 0x30
10013f00:	f88d 30a0 	strb.w	r3, [sp, #160]	@ 0xa0
10013f04:	f049 0302 	orr.w	r3, r9, #2
10013f08:	9306      	str	r3, [sp, #24]
10013f0a:	9b08      	ldr	r3, [sp, #32]
10013f0c:	2b63      	cmp	r3, #99	@ 0x63
10013f0e:	f300 80dd 	bgt.w	100140cc <_svfprintf_r+0x1a04>
10013f12:	2300      	movs	r3, #0
10013f14:	930c      	str	r3, [sp, #48]	@ 0x30
10013f16:	ad45      	add	r5, sp, #276	@ 0x114
10013f18:	f449 7381 	orr.w	r3, r9, #258	@ 0x102
10013f1c:	9315      	str	r3, [sp, #84]	@ 0x54
10013f1e:	9b17      	ldr	r3, [sp, #92]	@ 0x5c
10013f20:	2b00      	cmp	r3, #0
10013f22:	db22      	blt.n	10013f6a <_svfprintf_r+0x18a2>
10013f24:	ed9d 7b16 	vldr	d7, [sp, #88]	@ 0x58
10013f28:	ed8d 7b24 	vstr	d7, [sp, #144]	@ 0x90
10013f2c:	2300      	movs	r3, #0
10013f2e:	931f      	str	r3, [sp, #124]	@ 0x7c
10013f30:	9b0e      	ldr	r3, [sp, #56]	@ 0x38
10013f32:	2b61      	cmp	r3, #97	@ 0x61
10013f34:	f47f aafd 	bne.w	10013532 <_svfprintf_r+0xe6a>
10013f38:	aa29      	add	r2, sp, #164	@ 0xa4
10013f3a:	e9dd 0124 	ldrd	r0, r1, [sp, #144]	@ 0x90
10013f3e:	f002 f94b 	bl	100161d8 <frexp>
10013f42:	2200      	movs	r2, #0
10013f44:	f04f 537f 	mov.w	r3, #1069547520	@ 0x3fc00000
10013f48:	f006 fe92 	bl	1001ac70 <__aeabi_dmul>
10013f4c:	4602      	mov	r2, r0
10013f4e:	460b      	mov	r3, r1
10013f50:	e9cd 2310 	strd	r2, r3, [sp, #64]	@ 0x40
10013f54:	2200      	movs	r2, #0
10013f56:	2300      	movs	r3, #0
10013f58:	f007 f8f2 	bl	1001b140 <__aeabi_dcmpeq>
10013f5c:	2800      	cmp	r0, #0
10013f5e:	f040 80c3 	bne.w	100140e8 <_svfprintf_r+0x1a20>
10013f62:	4ba8      	ldr	r3, [pc, #672]	@ (10014204 <_svfprintf_r+0x1b3c>)
10013f64:	9312      	str	r3, [sp, #72]	@ 0x48
10013f66:	e701      	b.n	10013d6c <_svfprintf_r+0x16a4>
10013f68:	930c      	str	r3, [sp, #48]	@ 0x30
10013f6a:	e9dd 1216 	ldrd	r1, r2, [sp, #88]	@ 0x58
10013f6e:	f102 4300 	add.w	r3, r2, #2147483648	@ 0x80000000
10013f72:	9325      	str	r3, [sp, #148]	@ 0x94
10013f74:	232d      	movs	r3, #45	@ 0x2d
10013f76:	9124      	str	r1, [sp, #144]	@ 0x90
10013f78:	931f      	str	r3, [sp, #124]	@ 0x7c
10013f7a:	e7d9      	b.n	10013f30 <_svfprintf_r+0x1868>
10013f7c:	9909      	ldr	r1, [sp, #36]	@ 0x24
10013f7e:	9807      	ldr	r0, [sp, #28]
10013f80:	aa32      	add	r2, sp, #200	@ 0xc8
10013f82:	f002 fe63 	bl	10016c4c <__ssprint_r>
10013f86:	2800      	cmp	r0, #0
10013f88:	f47f a855 	bne.w	10013036 <_svfprintf_r+0x96e>
10013f8c:	9d29      	ldr	r5, [sp, #164]	@ 0xa4
10013f8e:	9c34      	ldr	r4, [sp, #208]	@ 0xd0
10013f90:	f10d 08d4 	add.w	r8, sp, #212	@ 0xd4
10013f94:	f7ff b981 	b.w	1001329a <_svfprintf_r+0xbd2>
10013f98:	499b      	ldr	r1, [pc, #620]	@ (10014208 <_svfprintf_r+0x1b40>)
10013f9a:	9115      	str	r1, [sp, #84]	@ 0x54
10013f9c:	f7fe bdb2 	b.w	10012b04 <_svfprintf_r+0x43c>
10013fa0:	9909      	ldr	r1, [sp, #36]	@ 0x24
10013fa2:	9807      	ldr	r0, [sp, #28]
10013fa4:	aa32      	add	r2, sp, #200	@ 0xc8
10013fa6:	f002 fe51 	bl	10016c4c <__ssprint_r>
10013faa:	2800      	cmp	r0, #0
10013fac:	f47f a843 	bne.w	10013036 <_svfprintf_r+0x96e>
10013fb0:	9d29      	ldr	r5, [sp, #164]	@ 0xa4
10013fb2:	9b13      	ldr	r3, [sp, #76]	@ 0x4c
10013fb4:	9c34      	ldr	r4, [sp, #208]	@ 0xd0
10013fb6:	1b5d      	subs	r5, r3, r5
10013fb8:	f10d 08d4 	add.w	r8, sp, #212	@ 0xd4
10013fbc:	f7ff b984 	b.w	100132c8 <_svfprintf_r+0xc00>
10013fc0:	9b06      	ldr	r3, [sp, #24]
10013fc2:	9912      	ldr	r1, [sp, #72]	@ 0x48
10013fc4:	9a08      	ldr	r2, [sp, #32]
10013fc6:	f003 0301 	and.w	r3, r3, #1
10013fca:	2900      	cmp	r1, #0
10013fcc:	ea43 0302 	orr.w	r3, r3, r2
10013fd0:	f340 810f 	ble.w	100141f2 <_svfprintf_r+0x1b2a>
10013fd4:	2b00      	cmp	r3, #0
10013fd6:	f040 80d5 	bne.w	10014184 <_svfprintf_r+0x1abc>
10013fda:	2366      	movs	r3, #102	@ 0x66
10013fdc:	f8dd b048 	ldr.w	fp, [sp, #72]	@ 0x48
10013fe0:	930e      	str	r3, [sp, #56]	@ 0x38
10013fe2:	9b06      	ldr	r3, [sp, #24]
10013fe4:	055a      	lsls	r2, r3, #21
10013fe6:	f100 80a8 	bmi.w	1001413a <_svfprintf_r+0x1a72>
10013fea:	ea2b 73eb 	bic.w	r3, fp, fp, asr #31
10013fee:	f8dd 9054 	ldr.w	r9, [sp, #84]	@ 0x54
10013ff2:	9306      	str	r3, [sp, #24]
10013ff4:	e759      	b.n	10013eaa <_svfprintf_r+0x17e2>
10013ff6:	2358      	movs	r3, #88	@ 0x58
10013ff8:	e77f      	b.n	10013efa <_svfprintf_r+0x1832>
10013ffa:	2200      	movs	r2, #0
10013ffc:	9208      	str	r2, [sp, #32]
10013ffe:	f7fe bbbb 	b.w	10012778 <_svfprintf_r+0xb0>
10014002:	4a81      	ldr	r2, [pc, #516]	@ (10014208 <_svfprintf_r+0x1b40>)
10014004:	9215      	str	r2, [sp, #84]	@ 0x54
10014006:	f7ff b8ef 	b.w	100131e8 <_svfprintf_r+0xb20>
1001400a:	9b13      	ldr	r3, [sp, #76]	@ 0x4c
1001400c:	9a18      	ldr	r2, [sp, #96]	@ 0x60
1001400e:	eb03 0b02 	add.w	fp, r3, r2
10014012:	9b12      	ldr	r3, [sp, #72]	@ 0x48
10014014:	2b00      	cmp	r3, #0
10014016:	f340 8083 	ble.w	10014120 <_svfprintf_r+0x1a58>
1001401a:	2367      	movs	r3, #103	@ 0x67
1001401c:	930e      	str	r3, [sp, #56]	@ 0x38
1001401e:	e7e0      	b.n	10013fe2 <_svfprintf_r+0x191a>
10014020:	19ac      	adds	r4, r5, r6
10014022:	2747      	movs	r7, #71	@ 0x47
10014024:	e5d5      	b.n	10013bd2 <_svfprintf_r+0x150a>
10014026:	4655      	mov	r5, sl
10014028:	3301      	adds	r3, #1
1001402a:	9a15      	ldr	r2, [sp, #84]	@ 0x54
1001402c:	f8c8 2000 	str.w	r2, [r8]
10014030:	4434      	add	r4, r6
10014032:	2b07      	cmp	r3, #7
10014034:	e9cd 3433 	strd	r3, r4, [sp, #204]	@ 0xcc
10014038:	f8c8 6004 	str.w	r6, [r8, #4]
1001403c:	f77f a823 	ble.w	10013086 <_svfprintf_r+0x9be>
10014040:	9909      	ldr	r1, [sp, #36]	@ 0x24
10014042:	9807      	ldr	r0, [sp, #28]
10014044:	aa32      	add	r2, sp, #200	@ 0xc8
10014046:	f002 fe01 	bl	10016c4c <__ssprint_r>
1001404a:	2800      	cmp	r0, #0
1001404c:	f47e aff3 	bne.w	10013036 <_svfprintf_r+0x96e>
10014050:	e9dd 3433 	ldrd	r3, r4, [sp, #204]	@ 0xcc
10014054:	f10d 08d4 	add.w	r8, sp, #212	@ 0xd4
10014058:	f7ff b817 	b.w	1001308a <_svfprintf_r+0x9c2>
1001405c:	9a09      	ldr	r2, [sp, #36]	@ 0x24
1001405e:	8993      	ldrh	r3, [r2, #12]
10014060:	f043 0340 	orr.w	r3, r3, #64	@ 0x40
10014064:	8193      	strh	r3, [r2, #12]
10014066:	f04f 33ff 	mov.w	r3, #4294967295	@ 0xffffffff
1001406a:	930a      	str	r3, [sp, #40]	@ 0x28
1001406c:	f7fe bc38 	b.w	100128e0 <_svfprintf_r+0x218>
10014070:	4a66      	ldr	r2, [pc, #408]	@ (1001420c <_svfprintf_r+0x1b44>)
10014072:	9215      	str	r2, [sp, #84]	@ 0x54
10014074:	f7fe bf84 	b.w	10012f80 <_svfprintf_r+0x8b8>
10014078:	2800      	cmp	r0, #0
1001407a:	d13f      	bne.n	100140fc <_svfprintf_r+0x1a34>
1001407c:	2230      	movs	r2, #48	@ 0x30
1001407e:	f88d 20b2 	strb.w	r2, [sp, #178]	@ 0xb2
10014082:	f10d 02b3 	add.w	r2, sp, #179	@ 0xb3
10014086:	3330      	adds	r3, #48	@ 0x30
10014088:	f802 3b01 	strb.w	r3, [r2], #1
1001408c:	ab2c      	add	r3, sp, #176	@ 0xb0
1001408e:	1ad3      	subs	r3, r2, r3
10014090:	931c      	str	r3, [sp, #112]	@ 0x70
10014092:	e5f3      	b.n	10013c7c <_svfprintf_r+0x15b4>
10014094:	9b12      	ldr	r3, [sp, #72]	@ 0x48
10014096:	9730      	str	r7, [sp, #192]	@ 0xc0
10014098:	7bd9      	ldrb	r1, [r3, #15]
1001409a:	f816 2c01 	ldrb.w	r2, [r6, #-1]
1001409e:	428a      	cmp	r2, r1
100140a0:	4633      	mov	r3, r6
100140a2:	d109      	bne.n	100140b8 <_svfprintf_r+0x19f0>
100140a4:	2030      	movs	r0, #48	@ 0x30
100140a6:	f803 0c01 	strb.w	r0, [r3, #-1]
100140aa:	9b30      	ldr	r3, [sp, #192]	@ 0xc0
100140ac:	1e5a      	subs	r2, r3, #1
100140ae:	9230      	str	r2, [sp, #192]	@ 0xc0
100140b0:	f813 2c01 	ldrb.w	r2, [r3, #-1]
100140b4:	4291      	cmp	r1, r2
100140b6:	d0f6      	beq.n	100140a6 <_svfprintf_r+0x19de>
100140b8:	2a39      	cmp	r2, #57	@ 0x39
100140ba:	bf0b      	itete	eq
100140bc:	9a12      	ldreq	r2, [sp, #72]	@ 0x48
100140be:	3201      	addne	r2, #1
100140c0:	7a92      	ldrbeq	r2, [r2, #10]
100140c2:	b2d2      	uxtbne	r2, r2
100140c4:	f803 2c01 	strb.w	r2, [r3, #-1]
100140c8:	4633      	mov	r3, r6
100140ca:	e6a6      	b.n	10013e1a <_svfprintf_r+0x1752>
100140cc:	9807      	ldr	r0, [sp, #28]
100140ce:	1c59      	adds	r1, r3, #1
100140d0:	f000 f8ca 	bl	10014268 <_malloc_r>
100140d4:	4605      	mov	r5, r0
100140d6:	2800      	cmp	r0, #0
100140d8:	d0c0      	beq.n	1001405c <_svfprintf_r+0x1994>
100140da:	900c      	str	r0, [sp, #48]	@ 0x30
100140dc:	e71c      	b.n	10013f18 <_svfprintf_r+0x1850>
100140de:	9b06      	ldr	r3, [sp, #24]
100140e0:	07df      	lsls	r7, r3, #31
100140e2:	f57f add4 	bpl.w	10013c8e <_svfprintf_r+0x15c6>
100140e6:	e5d0      	b.n	10013c8a <_svfprintf_r+0x15c2>
100140e8:	4b49      	ldr	r3, [pc, #292]	@ (10014210 <_svfprintf_r+0x1b48>)
100140ea:	4a46      	ldr	r2, [pc, #280]	@ (10014204 <_svfprintf_r+0x1b3c>)
100140ec:	990e      	ldr	r1, [sp, #56]	@ 0x38
100140ee:	2961      	cmp	r1, #97	@ 0x61
100140f0:	bf18      	it	ne
100140f2:	461a      	movne	r2, r3
100140f4:	2301      	movs	r3, #1
100140f6:	9212      	str	r2, [sp, #72]	@ 0x48
100140f8:	9329      	str	r3, [sp, #164]	@ 0xa4
100140fa:	e637      	b.n	10013d6c <_svfprintf_r+0x16a4>
100140fc:	f10d 02b2 	add.w	r2, sp, #178	@ 0xb2
10014100:	e7c1      	b.n	10014086 <_svfprintf_r+0x19be>
10014102:	9b17      	ldr	r3, [sp, #92]	@ 0x5c
10014104:	4d43      	ldr	r5, [pc, #268]	@ (10014214 <_svfprintf_r+0x1b4c>)
10014106:	2b00      	cmp	r3, #0
10014108:	bfb4      	ite	lt
1001410a:	222d      	movlt	r2, #45	@ 0x2d
1001410c:	f89d 209f 	ldrbge.w	r2, [sp, #159]	@ 0x9f
10014110:	4b41      	ldr	r3, [pc, #260]	@ (10014218 <_svfprintf_r+0x1b50>)
10014112:	bfb8      	it	lt
10014114:	f88d 209f 	strblt.w	r2, [sp, #159]	@ 0x9f
10014118:	f029 0980 	bic.w	r9, r9, #128	@ 0x80
1001411c:	f7fe bcae 	b.w	10012a7c <_svfprintf_r+0x3b4>
10014120:	f1c3 0301 	rsb	r3, r3, #1
10014124:	449b      	add	fp, r3
10014126:	ea2b 73eb 	bic.w	r3, fp, fp, asr #31
1001412a:	9306      	str	r3, [sp, #24]
1001412c:	2367      	movs	r3, #103	@ 0x67
1001412e:	f8dd 9054 	ldr.w	r9, [sp, #84]	@ 0x54
10014132:	930e      	str	r3, [sp, #56]	@ 0x38
10014134:	e6b9      	b.n	10013eaa <_svfprintf_r+0x17e2>
10014136:	2367      	movs	r3, #103	@ 0x67
10014138:	930e      	str	r3, [sp, #56]	@ 0x38
1001413a:	991b      	ldr	r1, [sp, #108]	@ 0x6c
1001413c:	780b      	ldrb	r3, [r1, #0]
1001413e:	2bff      	cmp	r3, #255	@ 0xff
10014140:	f000 808c 	beq.w	1001425c <_svfprintf_r+0x1b94>
10014144:	2400      	movs	r4, #0
10014146:	9a12      	ldr	r2, [sp, #72]	@ 0x48
10014148:	4620      	mov	r0, r4
1001414a:	e003      	b.n	10014154 <_svfprintf_r+0x1a8c>
1001414c:	3001      	adds	r0, #1
1001414e:	3101      	adds	r1, #1
10014150:	2bff      	cmp	r3, #255	@ 0xff
10014152:	d008      	beq.n	10014166 <_svfprintf_r+0x1a9e>
10014154:	4293      	cmp	r3, r2
10014156:	da06      	bge.n	10014166 <_svfprintf_r+0x1a9e>
10014158:	1ad2      	subs	r2, r2, r3
1001415a:	784b      	ldrb	r3, [r1, #1]
1001415c:	2b00      	cmp	r3, #0
1001415e:	d1f5      	bne.n	1001414c <_svfprintf_r+0x1a84>
10014160:	780b      	ldrb	r3, [r1, #0]
10014162:	3401      	adds	r4, #1
10014164:	e7f4      	b.n	10014150 <_svfprintf_r+0x1a88>
10014166:	911b      	str	r1, [sp, #108]	@ 0x6c
10014168:	9010      	str	r0, [sp, #64]	@ 0x40
1001416a:	9414      	str	r4, [sp, #80]	@ 0x50
1001416c:	9212      	str	r2, [sp, #72]	@ 0x48
1001416e:	e9dd 3914 	ldrd	r3, r9, [sp, #80]	@ 0x50
10014172:	9a10      	ldr	r2, [sp, #64]	@ 0x40
10014174:	4413      	add	r3, r2
10014176:	9a1e      	ldr	r2, [sp, #120]	@ 0x78
10014178:	fb02 bb03 	mla	fp, r2, r3, fp
1001417c:	ea2b 73eb 	bic.w	r3, fp, fp, asr #31
10014180:	9306      	str	r3, [sp, #24]
10014182:	e590      	b.n	10013ca6 <_svfprintf_r+0x15de>
10014184:	9b18      	ldr	r3, [sp, #96]	@ 0x60
10014186:	18cf      	adds	r7, r1, r3
10014188:	443a      	add	r2, r7
1001418a:	2366      	movs	r3, #102	@ 0x66
1001418c:	4693      	mov	fp, r2
1001418e:	930e      	str	r3, [sp, #56]	@ 0x38
10014190:	e727      	b.n	10013fe2 <_svfprintf_r+0x191a>
10014192:	4693      	mov	fp, r2
10014194:	e67c      	b.n	10013e90 <_svfprintf_r+0x17c8>
10014196:	9b08      	ldr	r3, [sp, #32]
10014198:	9306      	str	r3, [sp, #24]
1001419a:	469b      	mov	fp, r3
1001419c:	2373      	movs	r3, #115	@ 0x73
1001419e:	f89d 209f 	ldrb.w	r2, [sp, #159]	@ 0x9f
100141a2:	960d      	str	r6, [sp, #52]	@ 0x34
100141a4:	9008      	str	r0, [sp, #32]
100141a6:	9014      	str	r0, [sp, #80]	@ 0x50
100141a8:	9010      	str	r0, [sp, #64]	@ 0x40
100141aa:	930e      	str	r3, [sp, #56]	@ 0x38
100141ac:	f7fe bc73 	b.w	10012a96 <_svfprintf_r+0x3ce>
100141b0:	e9dd 0124 	ldrd	r0, r1, [sp, #144]	@ 0x90
100141b4:	2200      	movs	r2, #0
100141b6:	2300      	movs	r3, #0
100141b8:	f006 ffc2 	bl	1001b140 <__aeabi_dcmpeq>
100141bc:	2800      	cmp	r0, #0
100141be:	f47f ad06 	bne.w	10013bce <_svfprintf_r+0x1506>
100141c2:	f1c6 0601 	rsb	r6, r6, #1
100141c6:	9629      	str	r6, [sp, #164]	@ 0xa4
100141c8:	e502      	b.n	10013bd0 <_svfprintf_r+0x1508>
100141ca:	f8dd 9018 	ldr.w	r9, [sp, #24]
100141ce:	f8dd b020 	ldr.w	fp, [sp, #32]
100141d2:	f7ff bbc2 	b.w	1001395a <_svfprintf_r+0x1292>
100141d6:	4e0d      	ldr	r6, [pc, #52]	@ (1001420c <_svfprintf_r+0x1b44>)
100141d8:	f7ff bae5 	b.w	100137a6 <_svfprintf_r+0x10de>
100141dc:	9a0d      	ldr	r2, [sp, #52]	@ 0x34
100141de:	7863      	ldrb	r3, [r4, #1]
100141e0:	460c      	mov	r4, r1
100141e2:	f852 1b04 	ldr.w	r1, [r2], #4
100141e6:	920d      	str	r2, [sp, #52]	@ 0x34
100141e8:	ea41 71e1 	orr.w	r1, r1, r1, asr #31
100141ec:	9108      	str	r1, [sp, #32]
100141ee:	f7fe bac2 	b.w	10012776 <_svfprintf_r+0xae>
100141f2:	f8dd 9054 	ldr.w	r9, [sp, #84]	@ 0x54
100141f6:	b98b      	cbnz	r3, 1001421c <_svfprintf_r+0x1b54>
100141f8:	2301      	movs	r3, #1
100141fa:	2266      	movs	r2, #102	@ 0x66
100141fc:	9306      	str	r3, [sp, #24]
100141fe:	920e      	str	r2, [sp, #56]	@ 0x38
10014200:	469b      	mov	fp, r3
10014202:	e652      	b.n	10013eaa <_svfprintf_r+0x17e2>
10014204:	1001d92c 	.word	0x1001d92c
10014208:	1001d970 	.word	0x1001d970
1001420c:	1001d960 	.word	0x1001d960
10014210:	1001d940 	.word	0x1001d940
10014214:	1001d924 	.word	0x1001d924
10014218:	1001d928 	.word	0x1001d928
1001421c:	9b18      	ldr	r3, [sp, #96]	@ 0x60
1001421e:	1c5f      	adds	r7, r3, #1
10014220:	9b08      	ldr	r3, [sp, #32]
10014222:	443b      	add	r3, r7
10014224:	469b      	mov	fp, r3
10014226:	ea23 73e3 	bic.w	r3, r3, r3, asr #31
1001422a:	9306      	str	r3, [sp, #24]
1001422c:	2366      	movs	r3, #102	@ 0x66
1001422e:	930e      	str	r3, [sp, #56]	@ 0x38
10014230:	e63b      	b.n	10013eaa <_svfprintf_r+0x17e2>
10014232:	2170      	movs	r1, #112	@ 0x70
10014234:	e4eb      	b.n	10013c0e <_svfprintf_r+0x1546>
10014236:	4a0b      	ldr	r2, [pc, #44]	@ (10014264 <_svfprintf_r+0x1b9c>)
10014238:	9215      	str	r2, [sp, #84]	@ 0x54
1001423a:	e44b      	b.n	10013ad4 <_svfprintf_r+0x140c>
1001423c:	2302      	movs	r3, #2
1001423e:	931c      	str	r3, [sp, #112]	@ 0x70
10014240:	e51c      	b.n	10013c7c <_svfprintf_r+0x15b4>
10014242:	9a09      	ldr	r2, [sp, #36]	@ 0x24
10014244:	f8dd b01c 	ldr.w	fp, [sp, #28]
10014248:	8993      	ldrh	r3, [r2, #12]
1001424a:	f043 0340 	orr.w	r3, r3, #64	@ 0x40
1001424e:	8193      	strh	r3, [r2, #12]
10014250:	f7ff b8df 	b.w	10013412 <_svfprintf_r+0xd4a>
10014254:	230c      	movs	r3, #12
10014256:	f8cb 3000 	str.w	r3, [fp]
1001425a:	e704      	b.n	10014066 <_svfprintf_r+0x199e>
1001425c:	2300      	movs	r3, #0
1001425e:	9314      	str	r3, [sp, #80]	@ 0x50
10014260:	9310      	str	r3, [sp, #64]	@ 0x40
10014262:	e784      	b.n	1001416e <_svfprintf_r+0x1aa6>
10014264:	1001d960 	.word	0x1001d960

10014268 <_malloc_r>:
10014268:	e92d 4ff0 	stmdb	sp!, {r4, r5, r6, r7, r8, r9, sl, fp, lr}
1001426c:	f101 050b 	add.w	r5, r1, #11
10014270:	2d16      	cmp	r5, #22
10014272:	b085      	sub	sp, #20
10014274:	4606      	mov	r6, r0
10014276:	d824      	bhi.n	100142c2 <_malloc_r+0x5a>
10014278:	2910      	cmp	r1, #16
1001427a:	f200 80b1 	bhi.w	100143e0 <_malloc_r+0x178>
1001427e:	f000 fcd3 	bl	10014c28 <__malloc_lock>
10014282:	2510      	movs	r5, #16
10014284:	2318      	movs	r3, #24
10014286:	f04f 0c02 	mov.w	ip, #2
1001428a:	4fba      	ldr	r7, [pc, #744]	@ (10014574 <_malloc_r+0x30c>)
1001428c:	443b      	add	r3, r7
1001428e:	f1a3 0208 	sub.w	r2, r3, #8
10014292:	685c      	ldr	r4, [r3, #4]
10014294:	4294      	cmp	r4, r2
10014296:	f000 8122 	beq.w	100144de <_malloc_r+0x276>
1001429a:	6863      	ldr	r3, [r4, #4]
1001429c:	68e2      	ldr	r2, [r4, #12]
1001429e:	68a1      	ldr	r1, [r4, #8]
100142a0:	f023 0303 	bic.w	r3, r3, #3
100142a4:	60ca      	str	r2, [r1, #12]
100142a6:	4423      	add	r3, r4
100142a8:	4630      	mov	r0, r6
100142aa:	6091      	str	r1, [r2, #8]
100142ac:	685a      	ldr	r2, [r3, #4]
100142ae:	f042 0201 	orr.w	r2, r2, #1
100142b2:	605a      	str	r2, [r3, #4]
100142b4:	3408      	adds	r4, #8
100142b6:	f000 fcbd 	bl	10014c34 <__malloc_unlock>
100142ba:	4620      	mov	r0, r4
100142bc:	b005      	add	sp, #20
100142be:	e8bd 8ff0 	ldmia.w	sp!, {r4, r5, r6, r7, r8, r9, sl, fp, pc}
100142c2:	f035 0507 	bics.w	r5, r5, #7
100142c6:	f100 808b 	bmi.w	100143e0 <_malloc_r+0x178>
100142ca:	42a9      	cmp	r1, r5
100142cc:	f200 8088 	bhi.w	100143e0 <_malloc_r+0x178>
100142d0:	f000 fcaa 	bl	10014c28 <__malloc_lock>
100142d4:	f5b5 7ffc 	cmp.w	r5, #504	@ 0x1f8
100142d8:	f0c0 8173 	bcc.w	100145c2 <_malloc_r+0x35a>
100142dc:	0a6b      	lsrs	r3, r5, #9
100142de:	f000 8083 	beq.w	100143e8 <_malloc_r+0x180>
100142e2:	2b04      	cmp	r3, #4
100142e4:	f200 8122 	bhi.w	1001452c <_malloc_r+0x2c4>
100142e8:	09ab      	lsrs	r3, r5, #6
100142ea:	f103 0c39 	add.w	ip, r3, #57	@ 0x39
100142ee:	f103 0e38 	add.w	lr, r3, #56	@ 0x38
100142f2:	ea4f 03cc 	mov.w	r3, ip, lsl #3
100142f6:	4f9f      	ldr	r7, [pc, #636]	@ (10014574 <_malloc_r+0x30c>)
100142f8:	443b      	add	r3, r7
100142fa:	f1a3 0008 	sub.w	r0, r3, #8
100142fe:	685c      	ldr	r4, [r3, #4]
10014300:	42a0      	cmp	r0, r4
10014302:	d107      	bne.n	10014314 <_malloc_r+0xac>
10014304:	e00d      	b.n	10014322 <_malloc_r+0xba>
10014306:	2a00      	cmp	r2, #0
10014308:	68e1      	ldr	r1, [r4, #12]
1001430a:	f280 80e2 	bge.w	100144d2 <_malloc_r+0x26a>
1001430e:	4288      	cmp	r0, r1
10014310:	d007      	beq.n	10014322 <_malloc_r+0xba>
10014312:	460c      	mov	r4, r1
10014314:	6863      	ldr	r3, [r4, #4]
10014316:	f023 0303 	bic.w	r3, r3, #3
1001431a:	1b5a      	subs	r2, r3, r5
1001431c:	2a0f      	cmp	r2, #15
1001431e:	ddf2      	ble.n	10014306 <_malloc_r+0x9e>
10014320:	46f4      	mov	ip, lr
10014322:	f8df 8264 	ldr.w	r8, [pc, #612]	@ 10014588 <_malloc_r+0x320>
10014326:	693c      	ldr	r4, [r7, #16]
10014328:	4544      	cmp	r4, r8
1001432a:	f000 80bf 	beq.w	100144ac <_malloc_r+0x244>
1001432e:	6863      	ldr	r3, [r4, #4]
10014330:	f023 0903 	bic.w	r9, r3, #3
10014334:	eba9 0305 	sub.w	r3, r9, r5
10014338:	2b0f      	cmp	r3, #15
1001433a:	f300 8147 	bgt.w	100145cc <_malloc_r+0x364>
1001433e:	2b00      	cmp	r3, #0
10014340:	e9c7 8804 	strd	r8, r8, [r7, #16]
10014344:	f280 8131 	bge.w	100145aa <_malloc_r+0x342>
10014348:	f5b9 7f00 	cmp.w	r9, #512	@ 0x200
1001434c:	f8d7 e004 	ldr.w	lr, [r7, #4]
10014350:	f080 80cc 	bcs.w	100144ec <_malloc_r+0x284>
10014354:	ea4f 01d9 	mov.w	r1, r9, lsr #3
10014358:	3101      	adds	r1, #1
1001435a:	ea4f 1959 	mov.w	r9, r9, lsr #5
1001435e:	2301      	movs	r3, #1
10014360:	fa03 f309 	lsl.w	r3, r3, r9
10014364:	f857 2031 	ldr.w	r2, [r7, r1, lsl #3]
10014368:	60a2      	str	r2, [r4, #8]
1001436a:	ea4e 0e03 	orr.w	lr, lr, r3
1001436e:	eb07 03c1 	add.w	r3, r7, r1, lsl #3
10014372:	3b08      	subs	r3, #8
10014374:	60e3      	str	r3, [r4, #12]
10014376:	f8c7 e004 	str.w	lr, [r7, #4]
1001437a:	f847 4031 	str.w	r4, [r7, r1, lsl #3]
1001437e:	60d4      	str	r4, [r2, #12]
10014380:	ea4f 03ac 	mov.w	r3, ip, asr #2
10014384:	2001      	movs	r0, #1
10014386:	4098      	lsls	r0, r3
10014388:	4570      	cmp	r0, lr
1001438a:	d834      	bhi.n	100143f6 <_malloc_r+0x18e>
1001438c:	ea10 0f0e 	tst.w	r0, lr
10014390:	d107      	bne.n	100143a2 <_malloc_r+0x13a>
10014392:	f02c 0c03 	bic.w	ip, ip, #3
10014396:	0040      	lsls	r0, r0, #1
10014398:	ea10 0f0e 	tst.w	r0, lr
1001439c:	f10c 0c04 	add.w	ip, ip, #4
100143a0:	d0f9      	beq.n	10014396 <_malloc_r+0x12e>
100143a2:	eb07 0acc 	add.w	sl, r7, ip, lsl #3
100143a6:	4652      	mov	r2, sl
100143a8:	46e1      	mov	r9, ip
100143aa:	68d1      	ldr	r1, [r2, #12]
100143ac:	e00e      	b.n	100143cc <_malloc_r+0x164>
100143ae:	684b      	ldr	r3, [r1, #4]
100143b0:	f023 0303 	bic.w	r3, r3, #3
100143b4:	eba3 0e05 	sub.w	lr, r3, r5
100143b8:	f1be 0f0f 	cmp.w	lr, #15
100143bc:	460c      	mov	r4, r1
100143be:	68c9      	ldr	r1, [r1, #12]
100143c0:	f300 80c1 	bgt.w	10014546 <_malloc_r+0x2de>
100143c4:	f1be 0f00 	cmp.w	lr, #0
100143c8:	f280 80e2 	bge.w	10014590 <_malloc_r+0x328>
100143cc:	428a      	cmp	r2, r1
100143ce:	d1ee      	bne.n	100143ae <_malloc_r+0x146>
100143d0:	f109 0901 	add.w	r9, r9, #1
100143d4:	f019 0f03 	tst.w	r9, #3
100143d8:	f102 0208 	add.w	r2, r2, #8
100143dc:	d1e5      	bne.n	100143aa <_malloc_r+0x142>
100143de:	e121      	b.n	10014624 <_malloc_r+0x3bc>
100143e0:	230c      	movs	r3, #12
100143e2:	6033      	str	r3, [r6, #0]
100143e4:	2400      	movs	r4, #0
100143e6:	e768      	b.n	100142ba <_malloc_r+0x52>
100143e8:	f44f 7300 	mov.w	r3, #512	@ 0x200
100143ec:	f04f 0c40 	mov.w	ip, #64	@ 0x40
100143f0:	f04f 0e3f 	mov.w	lr, #63	@ 0x3f
100143f4:	e77f      	b.n	100142f6 <_malloc_r+0x8e>
100143f6:	68bc      	ldr	r4, [r7, #8]
100143f8:	6863      	ldr	r3, [r4, #4]
100143fa:	f023 0903 	bic.w	r9, r3, #3
100143fe:	45a9      	cmp	r9, r5
10014400:	d303      	bcc.n	1001440a <_malloc_r+0x1a2>
10014402:	eba9 0305 	sub.w	r3, r9, r5
10014406:	2b0f      	cmp	r3, #15
10014408:	dc53      	bgt.n	100144b2 <_malloc_r+0x24a>
1001440a:	4b5b      	ldr	r3, [pc, #364]	@ (10014578 <_malloc_r+0x310>)
1001440c:	f8df b17c 	ldr.w	fp, [pc, #380]	@ 1001458c <_malloc_r+0x324>
10014410:	681b      	ldr	r3, [r3, #0]
10014412:	2008      	movs	r0, #8
10014414:	f103 0810 	add.w	r8, r3, #16
10014418:	f000 fb90 	bl	10014b3c <sysconf>
1001441c:	f8db 3000 	ldr.w	r3, [fp]
10014420:	9001      	str	r0, [sp, #4]
10014422:	3301      	adds	r3, #1
10014424:	44a8      	add	r8, r5
10014426:	eb04 0209 	add.w	r2, r4, r9
1001442a:	d005      	beq.n	10014438 <_malloc_r+0x1d0>
1001442c:	f108 38ff 	add.w	r8, r8, #4294967295	@ 0xffffffff
10014430:	4480      	add	r8, r0
10014432:	4243      	negs	r3, r0
10014434:	ea03 0808 	and.w	r8, r3, r8
10014438:	4641      	mov	r1, r8
1001443a:	4630      	mov	r0, r6
1001443c:	9202      	str	r2, [sp, #8]
1001443e:	f002 fa4f 	bl	100168e0 <_sbrk_r>
10014442:	f1b0 3fff 	cmp.w	r0, #4294967295	@ 0xffffffff
10014446:	9a02      	ldr	r2, [sp, #8]
10014448:	4682      	mov	sl, r0
1001444a:	f000 80dc 	beq.w	10014606 <_malloc_r+0x39e>
1001444e:	4282      	cmp	r2, r0
10014450:	f200 80d7 	bhi.w	10014602 <_malloc_r+0x39a>
10014454:	4b49      	ldr	r3, [pc, #292]	@ (1001457c <_malloc_r+0x314>)
10014456:	9901      	ldr	r1, [sp, #4]
10014458:	6818      	ldr	r0, [r3, #0]
1001445a:	4440      	add	r0, r8
1001445c:	f101 31ff 	add.w	r1, r1, #4294967295	@ 0xffffffff
10014460:	6018      	str	r0, [r3, #0]
10014462:	4684      	mov	ip, r0
10014464:	f040 80fc 	bne.w	10014660 <_malloc_r+0x3f8>
10014468:	ea1a 0f01 	tst.w	sl, r1
1001446c:	f040 80f8 	bne.w	10014660 <_malloc_r+0x3f8>
10014470:	f8d7 a008 	ldr.w	sl, [r7, #8]
10014474:	44c8      	add	r8, r9
10014476:	f048 0201 	orr.w	r2, r8, #1
1001447a:	f8ca 2004 	str.w	r2, [sl, #4]
1001447e:	4b40      	ldr	r3, [pc, #256]	@ (10014580 <_malloc_r+0x318>)
10014480:	6819      	ldr	r1, [r3, #0]
10014482:	4281      	cmp	r1, r0
10014484:	bf38      	it	cc
10014486:	6018      	strcc	r0, [r3, #0]
10014488:	4b3e      	ldr	r3, [pc, #248]	@ (10014584 <_malloc_r+0x31c>)
1001448a:	6819      	ldr	r1, [r3, #0]
1001448c:	4281      	cmp	r1, r0
1001448e:	bf38      	it	cc
10014490:	6018      	strcc	r0, [r3, #0]
10014492:	4654      	mov	r4, sl
10014494:	f022 0803 	bic.w	r8, r2, #3
10014498:	45a8      	cmp	r8, r5
1001449a:	eba8 0305 	sub.w	r3, r8, r5
1001449e:	d301      	bcc.n	100144a4 <_malloc_r+0x23c>
100144a0:	2b0f      	cmp	r3, #15
100144a2:	dc06      	bgt.n	100144b2 <_malloc_r+0x24a>
100144a4:	4630      	mov	r0, r6
100144a6:	f000 fbc5 	bl	10014c34 <__malloc_unlock>
100144aa:	e79b      	b.n	100143e4 <_malloc_r+0x17c>
100144ac:	f8d7 e004 	ldr.w	lr, [r7, #4]
100144b0:	e766      	b.n	10014380 <_malloc_r+0x118>
100144b2:	1962      	adds	r2, r4, r5
100144b4:	f043 0301 	orr.w	r3, r3, #1
100144b8:	f045 0501 	orr.w	r5, r5, #1
100144bc:	6065      	str	r5, [r4, #4]
100144be:	4630      	mov	r0, r6
100144c0:	60ba      	str	r2, [r7, #8]
100144c2:	6053      	str	r3, [r2, #4]
100144c4:	f000 fbb6 	bl	10014c34 <__malloc_unlock>
100144c8:	3408      	adds	r4, #8
100144ca:	4620      	mov	r0, r4
100144cc:	b005      	add	sp, #20
100144ce:	e8bd 8ff0 	ldmia.w	sp!, {r4, r5, r6, r7, r8, r9, sl, fp, pc}
100144d2:	68a2      	ldr	r2, [r4, #8]
100144d4:	4423      	add	r3, r4
100144d6:	60d1      	str	r1, [r2, #12]
100144d8:	4630      	mov	r0, r6
100144da:	608a      	str	r2, [r1, #8]
100144dc:	e6e6      	b.n	100142ac <_malloc_r+0x44>
100144de:	68dc      	ldr	r4, [r3, #12]
100144e0:	42a3      	cmp	r3, r4
100144e2:	f47f aeda 	bne.w	1001429a <_malloc_r+0x32>
100144e6:	f10c 0c02 	add.w	ip, ip, #2
100144ea:	e71a      	b.n	10014322 <_malloc_r+0xba>
100144ec:	f5b9 6f20 	cmp.w	r9, #2560	@ 0xa00
100144f0:	ea4f 2259 	mov.w	r2, r9, lsr #9
100144f4:	d37e      	bcc.n	100145f4 <_malloc_r+0x38c>
100144f6:	2a14      	cmp	r2, #20
100144f8:	f200 8115 	bhi.w	10014726 <_malloc_r+0x4be>
100144fc:	f102 035c 	add.w	r3, r2, #92	@ 0x5c
10014500:	00db      	lsls	r3, r3, #3
10014502:	325b      	adds	r2, #91	@ 0x5b
10014504:	18f9      	adds	r1, r7, r3
10014506:	58fb      	ldr	r3, [r7, r3]
10014508:	3908      	subs	r1, #8
1001450a:	4299      	cmp	r1, r3
1001450c:	d103      	bne.n	10014516 <_malloc_r+0x2ae>
1001450e:	e0f0      	b.n	100146f2 <_malloc_r+0x48a>
10014510:	689b      	ldr	r3, [r3, #8]
10014512:	4299      	cmp	r1, r3
10014514:	d004      	beq.n	10014520 <_malloc_r+0x2b8>
10014516:	685a      	ldr	r2, [r3, #4]
10014518:	f022 0203 	bic.w	r2, r2, #3
1001451c:	454a      	cmp	r2, r9
1001451e:	d8f7      	bhi.n	10014510 <_malloc_r+0x2a8>
10014520:	68d9      	ldr	r1, [r3, #12]
10014522:	e9c4 3102 	strd	r3, r1, [r4, #8]
10014526:	608c      	str	r4, [r1, #8]
10014528:	60dc      	str	r4, [r3, #12]
1001452a:	e729      	b.n	10014380 <_malloc_r+0x118>
1001452c:	2b14      	cmp	r3, #20
1001452e:	d96d      	bls.n	1001460c <_malloc_r+0x3a4>
10014530:	2b54      	cmp	r3, #84	@ 0x54
10014532:	f200 8101 	bhi.w	10014738 <_malloc_r+0x4d0>
10014536:	0b2b      	lsrs	r3, r5, #12
10014538:	f103 0c6f 	add.w	ip, r3, #111	@ 0x6f
1001453c:	f103 0e6e 	add.w	lr, r3, #110	@ 0x6e
10014540:	ea4f 03cc 	mov.w	r3, ip, lsl #3
10014544:	e6d7      	b.n	100142f6 <_malloc_r+0x8e>
10014546:	4630      	mov	r0, r6
10014548:	68a6      	ldr	r6, [r4, #8]
1001454a:	1962      	adds	r2, r4, r5
1001454c:	f045 0501 	orr.w	r5, r5, #1
10014550:	6065      	str	r5, [r4, #4]
10014552:	60f1      	str	r1, [r6, #12]
10014554:	608e      	str	r6, [r1, #8]
10014556:	f04e 0101 	orr.w	r1, lr, #1
1001455a:	e9c7 2204 	strd	r2, r2, [r7, #16]
1001455e:	f8c2 8008 	str.w	r8, [r2, #8]
10014562:	f8c2 800c 	str.w	r8, [r2, #12]
10014566:	6051      	str	r1, [r2, #4]
10014568:	f844 e003 	str.w	lr, [r4, r3]
1001456c:	f000 fb62 	bl	10014c34 <__malloc_unlock>
10014570:	3408      	adds	r4, #8
10014572:	e6a2      	b.n	100142ba <_malloc_r+0x52>
10014574:	20000050 	.word	0x20000050
10014578:	2000166c 	.word	0x2000166c
1001457c:	2000163c 	.word	0x2000163c
10014580:	20001668 	.word	0x20001668
10014584:	20001664 	.word	0x20001664
10014588:	20000058 	.word	0x20000058
1001458c:	20000048 	.word	0x20000048
10014590:	4423      	add	r3, r4
10014592:	4630      	mov	r0, r6
10014594:	685a      	ldr	r2, [r3, #4]
10014596:	f042 0201 	orr.w	r2, r2, #1
1001459a:	605a      	str	r2, [r3, #4]
1001459c:	f854 3f08 	ldr.w	r3, [r4, #8]!
100145a0:	60d9      	str	r1, [r3, #12]
100145a2:	608b      	str	r3, [r1, #8]
100145a4:	f000 fb46 	bl	10014c34 <__malloc_unlock>
100145a8:	e687      	b.n	100142ba <_malloc_r+0x52>
100145aa:	44a1      	add	r9, r4
100145ac:	4630      	mov	r0, r6
100145ae:	f8d9 3004 	ldr.w	r3, [r9, #4]
100145b2:	f043 0301 	orr.w	r3, r3, #1
100145b6:	f8c9 3004 	str.w	r3, [r9, #4]
100145ba:	3408      	adds	r4, #8
100145bc:	f000 fb3a 	bl	10014c34 <__malloc_unlock>
100145c0:	e67b      	b.n	100142ba <_malloc_r+0x52>
100145c2:	ea4f 0cd5 	mov.w	ip, r5, lsr #3
100145c6:	f105 0308 	add.w	r3, r5, #8
100145ca:	e65e      	b.n	1001428a <_malloc_r+0x22>
100145cc:	1962      	adds	r2, r4, r5
100145ce:	f043 0101 	orr.w	r1, r3, #1
100145d2:	f045 0501 	orr.w	r5, r5, #1
100145d6:	6065      	str	r5, [r4, #4]
100145d8:	4630      	mov	r0, r6
100145da:	e9c7 2204 	strd	r2, r2, [r7, #16]
100145de:	f8c2 8008 	str.w	r8, [r2, #8]
100145e2:	f8c2 800c 	str.w	r8, [r2, #12]
100145e6:	6051      	str	r1, [r2, #4]
100145e8:	f844 3009 	str.w	r3, [r4, r9]
100145ec:	f000 fb22 	bl	10014c34 <__malloc_unlock>
100145f0:	3408      	adds	r4, #8
100145f2:	e662      	b.n	100142ba <_malloc_r+0x52>
100145f4:	ea4f 1299 	mov.w	r2, r9, lsr #6
100145f8:	f102 0339 	add.w	r3, r2, #57	@ 0x39
100145fc:	00db      	lsls	r3, r3, #3
100145fe:	3238      	adds	r2, #56	@ 0x38
10014600:	e780      	b.n	10014504 <_malloc_r+0x29c>
10014602:	42bc      	cmp	r4, r7
10014604:	d024      	beq.n	10014650 <_malloc_r+0x3e8>
10014606:	68bc      	ldr	r4, [r7, #8]
10014608:	6862      	ldr	r2, [r4, #4]
1001460a:	e743      	b.n	10014494 <_malloc_r+0x22c>
1001460c:	f103 0c5c 	add.w	ip, r3, #92	@ 0x5c
10014610:	f103 0e5b 	add.w	lr, r3, #91	@ 0x5b
10014614:	ea4f 03cc 	mov.w	r3, ip, lsl #3
10014618:	e66d      	b.n	100142f6 <_malloc_r+0x8e>
1001461a:	f85a 3908 	ldr.w	r3, [sl], #-8
1001461e:	4553      	cmp	r3, sl
10014620:	f040 80d8 	bne.w	100147d4 <_malloc_r+0x56c>
10014624:	f01c 0f03 	tst.w	ip, #3
10014628:	f10c 3cff 	add.w	ip, ip, #4294967295	@ 0xffffffff
1001462c:	d1f5      	bne.n	1001461a <_malloc_r+0x3b2>
1001462e:	687b      	ldr	r3, [r7, #4]
10014630:	ea23 0300 	bic.w	r3, r3, r0
10014634:	607b      	str	r3, [r7, #4]
10014636:	0040      	lsls	r0, r0, #1
10014638:	4298      	cmp	r0, r3
1001463a:	f63f aedc 	bhi.w	100143f6 <_malloc_r+0x18e>
1001463e:	b918      	cbnz	r0, 10014648 <_malloc_r+0x3e0>
10014640:	e6d9      	b.n	100143f6 <_malloc_r+0x18e>
10014642:	0040      	lsls	r0, r0, #1
10014644:	f109 0904 	add.w	r9, r9, #4
10014648:	4218      	tst	r0, r3
1001464a:	d0fa      	beq.n	10014642 <_malloc_r+0x3da>
1001464c:	46cc      	mov	ip, r9
1001464e:	e6a8      	b.n	100143a2 <_malloc_r+0x13a>
10014650:	4b61      	ldr	r3, [pc, #388]	@ (100147d8 <_malloc_r+0x570>)
10014652:	9901      	ldr	r1, [sp, #4]
10014654:	6818      	ldr	r0, [r3, #0]
10014656:	eb08 0c00 	add.w	ip, r8, r0
1001465a:	3901      	subs	r1, #1
1001465c:	f8c3 c000 	str.w	ip, [r3]
10014660:	f8db 0000 	ldr.w	r0, [fp]
10014664:	3001      	adds	r0, #1
10014666:	bf1b      	ittet	ne
10014668:	ebaa 0202 	subne.w	r2, sl, r2
1001466c:	4462      	addne	r2, ip
1001466e:	f8cb a000 	streq.w	sl, [fp]
10014672:	601a      	strne	r2, [r3, #0]
10014674:	f01a 0207 	ands.w	r2, sl, #7
10014678:	e9cd 2302 	strd	r2, r3, [sp, #8]
1001467c:	d042      	beq.n	10014704 <_malloc_r+0x49c>
1001467e:	f1c2 0208 	rsb	r2, r2, #8
10014682:	9b01      	ldr	r3, [sp, #4]
10014684:	4492      	add	sl, r2
10014686:	44d0      	add	r8, sl
10014688:	4413      	add	r3, r2
1001468a:	ea08 0001 	and.w	r0, r8, r1
1001468e:	1a1a      	subs	r2, r3, r0
10014690:	ea02 0b01 	and.w	fp, r2, r1
10014694:	4659      	mov	r1, fp
10014696:	4630      	mov	r0, r6
10014698:	f002 f922 	bl	100168e0 <_sbrk_r>
1001469c:	1c42      	adds	r2, r0, #1
1001469e:	9b03      	ldr	r3, [sp, #12]
100146a0:	d07a      	beq.n	10014798 <_malloc_r+0x530>
100146a2:	eba0 000a 	sub.w	r0, r0, sl
100146a6:	eb00 080b 	add.w	r8, r0, fp
100146aa:	6818      	ldr	r0, [r3, #0]
100146ac:	f8c7 a008 	str.w	sl, [r7, #8]
100146b0:	f048 0201 	orr.w	r2, r8, #1
100146b4:	4458      	add	r0, fp
100146b6:	42bc      	cmp	r4, r7
100146b8:	f8ca 2004 	str.w	r2, [sl, #4]
100146bc:	6018      	str	r0, [r3, #0]
100146be:	f43f aede 	beq.w	1001447e <_malloc_r+0x216>
100146c2:	f1b9 0f0f 	cmp.w	r9, #15
100146c6:	d942      	bls.n	1001474e <_malloc_r+0x4e6>
100146c8:	6861      	ldr	r1, [r4, #4]
100146ca:	f1a9 020c 	sub.w	r2, r9, #12
100146ce:	f022 0207 	bic.w	r2, r2, #7
100146d2:	f001 0101 	and.w	r1, r1, #1
100146d6:	4311      	orrs	r1, r2
100146d8:	6061      	str	r1, [r4, #4]
100146da:	18a1      	adds	r1, r4, r2
100146dc:	f04f 0c05 	mov.w	ip, #5
100146e0:	2a0f      	cmp	r2, #15
100146e2:	f8c1 c004 	str.w	ip, [r1, #4]
100146e6:	f8c1 c008 	str.w	ip, [r1, #8]
100146ea:	d84a      	bhi.n	10014782 <_malloc_r+0x51a>
100146ec:	f8da 2004 	ldr.w	r2, [sl, #4]
100146f0:	e6c5      	b.n	1001447e <_malloc_r+0x216>
100146f2:	1092      	asrs	r2, r2, #2
100146f4:	2001      	movs	r0, #1
100146f6:	fa00 f202 	lsl.w	r2, r0, r2
100146fa:	ea4e 0e02 	orr.w	lr, lr, r2
100146fe:	f8c7 e004 	str.w	lr, [r7, #4]
10014702:	e70e      	b.n	10014522 <_malloc_r+0x2ba>
10014704:	9b01      	ldr	r3, [sp, #4]
10014706:	eb0a 0208 	add.w	r2, sl, r8
1001470a:	400a      	ands	r2, r1
1001470c:	1a9a      	subs	r2, r3, r2
1001470e:	ea02 0b01 	and.w	fp, r2, r1
10014712:	4659      	mov	r1, fp
10014714:	4630      	mov	r0, r6
10014716:	f002 f8e3 	bl	100168e0 <_sbrk_r>
1001471a:	1c43      	adds	r3, r0, #1
1001471c:	9b03      	ldr	r3, [sp, #12]
1001471e:	d1c0      	bne.n	100146a2 <_malloc_r+0x43a>
10014720:	f8dd b008 	ldr.w	fp, [sp, #8]
10014724:	e7c1      	b.n	100146aa <_malloc_r+0x442>
10014726:	2a54      	cmp	r2, #84	@ 0x54
10014728:	d815      	bhi.n	10014756 <_malloc_r+0x4ee>
1001472a:	ea4f 3219 	mov.w	r2, r9, lsr #12
1001472e:	f102 036f 	add.w	r3, r2, #111	@ 0x6f
10014732:	00db      	lsls	r3, r3, #3
10014734:	326e      	adds	r2, #110	@ 0x6e
10014736:	e6e5      	b.n	10014504 <_malloc_r+0x29c>
10014738:	f5b3 7faa 	cmp.w	r3, #340	@ 0x154
1001473c:	d815      	bhi.n	1001476a <_malloc_r+0x502>
1001473e:	0beb      	lsrs	r3, r5, #15
10014740:	f103 0c78 	add.w	ip, r3, #120	@ 0x78
10014744:	f103 0e77 	add.w	lr, r3, #119	@ 0x77
10014748:	ea4f 03cc 	mov.w	r3, ip, lsl #3
1001474c:	e5d3      	b.n	100142f6 <_malloc_r+0x8e>
1001474e:	2301      	movs	r3, #1
10014750:	f8ca 3004 	str.w	r3, [sl, #4]
10014754:	e6a6      	b.n	100144a4 <_malloc_r+0x23c>
10014756:	f5b2 7faa 	cmp.w	r2, #340	@ 0x154
1001475a:	d825      	bhi.n	100147a8 <_malloc_r+0x540>
1001475c:	ea4f 32d9 	mov.w	r2, r9, lsr #15
10014760:	f102 0378 	add.w	r3, r2, #120	@ 0x78
10014764:	00db      	lsls	r3, r3, #3
10014766:	3277      	adds	r2, #119	@ 0x77
10014768:	e6cc      	b.n	10014504 <_malloc_r+0x29c>
1001476a:	f240 5254 	movw	r2, #1364	@ 0x554
1001476e:	4293      	cmp	r3, r2
10014770:	d825      	bhi.n	100147be <_malloc_r+0x556>
10014772:	0cab      	lsrs	r3, r5, #18
10014774:	f103 0c7d 	add.w	ip, r3, #125	@ 0x7d
10014778:	f103 0e7c 	add.w	lr, r3, #124	@ 0x7c
1001477c:	ea4f 03cc 	mov.w	r3, ip, lsl #3
10014780:	e5b9      	b.n	100142f6 <_malloc_r+0x8e>
10014782:	4630      	mov	r0, r6
10014784:	f104 0108 	add.w	r1, r4, #8
10014788:	9301      	str	r3, [sp, #4]
1001478a:	f001 ff5b 	bl	10016644 <_free_r>
1001478e:	9b01      	ldr	r3, [sp, #4]
10014790:	f8d7 a008 	ldr.w	sl, [r7, #8]
10014794:	6818      	ldr	r0, [r3, #0]
10014796:	e7a9      	b.n	100146ec <_malloc_r+0x484>
10014798:	9a02      	ldr	r2, [sp, #8]
1001479a:	3a08      	subs	r2, #8
1001479c:	4490      	add	r8, r2
1001479e:	eba8 080a 	sub.w	r8, r8, sl
100147a2:	f04f 0b00 	mov.w	fp, #0
100147a6:	e780      	b.n	100146aa <_malloc_r+0x442>
100147a8:	f240 5354 	movw	r3, #1364	@ 0x554
100147ac:	429a      	cmp	r2, r3
100147ae:	d80d      	bhi.n	100147cc <_malloc_r+0x564>
100147b0:	ea4f 4299 	mov.w	r2, r9, lsr #18
100147b4:	f102 037d 	add.w	r3, r2, #125	@ 0x7d
100147b8:	00db      	lsls	r3, r3, #3
100147ba:	327c      	adds	r2, #124	@ 0x7c
100147bc:	e6a2      	b.n	10014504 <_malloc_r+0x29c>
100147be:	f44f 737e 	mov.w	r3, #1016	@ 0x3f8
100147c2:	f04f 0c7f 	mov.w	ip, #127	@ 0x7f
100147c6:	f04f 0e7e 	mov.w	lr, #126	@ 0x7e
100147ca:	e594      	b.n	100142f6 <_malloc_r+0x8e>
100147cc:	f44f 737e 	mov.w	r3, #1016	@ 0x3f8
100147d0:	227e      	movs	r2, #126	@ 0x7e
100147d2:	e697      	b.n	10014504 <_malloc_r+0x29c>
100147d4:	687b      	ldr	r3, [r7, #4]
100147d6:	e72e      	b.n	10014636 <_malloc_r+0x3ce>
100147d8:	2000163c 	.word	0x2000163c

100147dc <register_fini>:
100147dc:	4b02      	ldr	r3, [pc, #8]	@ (100147e8 <register_fini+0xc>)
100147de:	b113      	cbz	r3, 100147e6 <register_fini+0xa>
100147e0:	4802      	ldr	r0, [pc, #8]	@ (100147ec <register_fini+0x10>)
100147e2:	f000 ba2d 	b.w	10014c40 <atexit>
100147e6:	4770      	bx	lr
100147e8:	00000000 	.word	0x00000000
100147ec:	10014a31 	.word	0x10014a31

100147f0 <memmove>:
100147f0:	4288      	cmp	r0, r1
100147f2:	d90e      	bls.n	10014812 <memmove+0x22>
100147f4:	188b      	adds	r3, r1, r2
100147f6:	4283      	cmp	r3, r0
100147f8:	d90b      	bls.n	10014812 <memmove+0x22>
100147fa:	eb00 0c02 	add.w	ip, r0, r2
100147fe:	2a00      	cmp	r2, #0
10014800:	d06e      	beq.n	100148e0 <memmove+0xf0>
10014802:	4662      	mov	r2, ip
10014804:	f813 cd01 	ldrb.w	ip, [r3, #-1]!
10014808:	f802 cd01 	strb.w	ip, [r2, #-1]!
1001480c:	4299      	cmp	r1, r3
1001480e:	d1f9      	bne.n	10014804 <memmove+0x14>
10014810:	4770      	bx	lr
10014812:	2a0f      	cmp	r2, #15
10014814:	d80f      	bhi.n	10014836 <memmove+0x46>
10014816:	4603      	mov	r3, r0
10014818:	f102 3cff 	add.w	ip, r2, #4294967295	@ 0xffffffff
1001481c:	2a00      	cmp	r2, #0
1001481e:	d05f      	beq.n	100148e0 <memmove+0xf0>
10014820:	f10c 0c01 	add.w	ip, ip, #1
10014824:	3b01      	subs	r3, #1
10014826:	448c      	add	ip, r1
10014828:	f811 2b01 	ldrb.w	r2, [r1], #1
1001482c:	f803 2f01 	strb.w	r2, [r3, #1]!
10014830:	4561      	cmp	r1, ip
10014832:	d1f9      	bne.n	10014828 <memmove+0x38>
10014834:	4770      	bx	lr
10014836:	ea40 0301 	orr.w	r3, r0, r1
1001483a:	079b      	lsls	r3, r3, #30
1001483c:	d151      	bne.n	100148e2 <memmove+0xf2>
1001483e:	f1a2 0310 	sub.w	r3, r2, #16
10014842:	b570      	push	{r4, r5, r6, lr}
10014844:	f101 0c20 	add.w	ip, r1, #32
10014848:	f023 050f 	bic.w	r5, r3, #15
1001484c:	f101 0e10 	add.w	lr, r1, #16
10014850:	f100 0410 	add.w	r4, r0, #16
10014854:	44ac      	add	ip, r5
10014856:	091b      	lsrs	r3, r3, #4
10014858:	f85e 5c10 	ldr.w	r5, [lr, #-16]
1001485c:	f844 5c10 	str.w	r5, [r4, #-16]
10014860:	f85e 5c0c 	ldr.w	r5, [lr, #-12]
10014864:	f844 5c0c 	str.w	r5, [r4, #-12]
10014868:	f85e 5c08 	ldr.w	r5, [lr, #-8]
1001486c:	f844 5c08 	str.w	r5, [r4, #-8]
10014870:	f85e 5c04 	ldr.w	r5, [lr, #-4]
10014874:	f844 5c04 	str.w	r5, [r4, #-4]
10014878:	f10e 0e10 	add.w	lr, lr, #16
1001487c:	45e6      	cmp	lr, ip
1001487e:	f104 0410 	add.w	r4, r4, #16
10014882:	d1e9      	bne.n	10014858 <memmove+0x68>
10014884:	3301      	adds	r3, #1
10014886:	f012 0f0c 	tst.w	r2, #12
1001488a:	eb01 1103 	add.w	r1, r1, r3, lsl #4
1001488e:	f002 040f 	and.w	r4, r2, #15
10014892:	eb00 1303 	add.w	r3, r0, r3, lsl #4
10014896:	d028      	beq.n	100148ea <memmove+0xfa>
10014898:	3c04      	subs	r4, #4
1001489a:	f024 0603 	bic.w	r6, r4, #3
1001489e:	ea4f 0c94 	mov.w	ip, r4, lsr #2
100148a2:	441e      	add	r6, r3
100148a4:	1f1c      	subs	r4, r3, #4
100148a6:	468e      	mov	lr, r1
100148a8:	f85e 5b04 	ldr.w	r5, [lr], #4
100148ac:	f844 5f04 	str.w	r5, [r4, #4]!
100148b0:	42b4      	cmp	r4, r6
100148b2:	d1f9      	bne.n	100148a8 <memmove+0xb8>
100148b4:	f10c 0401 	add.w	r4, ip, #1
100148b8:	f002 0203 	and.w	r2, r2, #3
100148bc:	eb03 0384 	add.w	r3, r3, r4, lsl #2
100148c0:	eb01 0184 	add.w	r1, r1, r4, lsl #2
100148c4:	f102 3cff 	add.w	ip, r2, #4294967295	@ 0xffffffff
100148c8:	b14a      	cbz	r2, 100148de <memmove+0xee>
100148ca:	f10c 0c01 	add.w	ip, ip, #1
100148ce:	3b01      	subs	r3, #1
100148d0:	448c      	add	ip, r1
100148d2:	f811 2b01 	ldrb.w	r2, [r1], #1
100148d6:	f803 2f01 	strb.w	r2, [r3, #1]!
100148da:	4561      	cmp	r1, ip
100148dc:	d1f9      	bne.n	100148d2 <memmove+0xe2>
100148de:	bd70      	pop	{r4, r5, r6, pc}
100148e0:	4770      	bx	lr
100148e2:	f102 3cff 	add.w	ip, r2, #4294967295	@ 0xffffffff
100148e6:	4603      	mov	r3, r0
100148e8:	e79a      	b.n	10014820 <memmove+0x30>
100148ea:	4622      	mov	r2, r4
100148ec:	e7ea      	b.n	100148c4 <memmove+0xd4>
100148ee:	bf00      	nop

100148f0 <memset>:
100148f0:	0783      	lsls	r3, r0, #30
100148f2:	b530      	push	{r4, r5, lr}
100148f4:	d047      	beq.n	10014986 <memset+0x96>
100148f6:	1e54      	subs	r4, r2, #1
100148f8:	2a00      	cmp	r2, #0
100148fa:	d03e      	beq.n	1001497a <memset+0x8a>
100148fc:	b2ca      	uxtb	r2, r1
100148fe:	4603      	mov	r3, r0
10014900:	e001      	b.n	10014906 <memset+0x16>
10014902:	3c01      	subs	r4, #1
10014904:	d339      	bcc.n	1001497a <memset+0x8a>
10014906:	f803 2b01 	strb.w	r2, [r3], #1
1001490a:	079d      	lsls	r5, r3, #30
1001490c:	d1f9      	bne.n	10014902 <memset+0x12>
1001490e:	2c03      	cmp	r4, #3
10014910:	d92c      	bls.n	1001496c <memset+0x7c>
10014912:	b2cd      	uxtb	r5, r1
10014914:	eb05 2505 	add.w	r5, r5, r5, lsl #8
10014918:	2c0f      	cmp	r4, #15
1001491a:	eb05 4505 	add.w	r5, r5, r5, lsl #16
1001491e:	d935      	bls.n	1001498c <memset+0x9c>
10014920:	f1a4 0210 	sub.w	r2, r4, #16
10014924:	f022 0c0f 	bic.w	ip, r2, #15
10014928:	f103 0e10 	add.w	lr, r3, #16
1001492c:	44e6      	add	lr, ip
1001492e:	ea4f 1c12 	mov.w	ip, r2, lsr #4
10014932:	461a      	mov	r2, r3
10014934:	6015      	str	r5, [r2, #0]
10014936:	6055      	str	r5, [r2, #4]
10014938:	6095      	str	r5, [r2, #8]
1001493a:	60d5      	str	r5, [r2, #12]
1001493c:	3210      	adds	r2, #16
1001493e:	4572      	cmp	r2, lr
10014940:	d1f8      	bne.n	10014934 <memset+0x44>
10014942:	f10c 0201 	add.w	r2, ip, #1
10014946:	f014 0f0c 	tst.w	r4, #12
1001494a:	eb03 1202 	add.w	r2, r3, r2, lsl #4
1001494e:	f004 0c0f 	and.w	ip, r4, #15
10014952:	d013      	beq.n	1001497c <memset+0x8c>
10014954:	f1ac 0304 	sub.w	r3, ip, #4
10014958:	f023 0303 	bic.w	r3, r3, #3
1001495c:	3304      	adds	r3, #4
1001495e:	4413      	add	r3, r2
10014960:	f842 5b04 	str.w	r5, [r2], #4
10014964:	429a      	cmp	r2, r3
10014966:	d1fb      	bne.n	10014960 <memset+0x70>
10014968:	f00c 0403 	and.w	r4, ip, #3
1001496c:	b12c      	cbz	r4, 1001497a <memset+0x8a>
1001496e:	b2c9      	uxtb	r1, r1
10014970:	441c      	add	r4, r3
10014972:	f803 1b01 	strb.w	r1, [r3], #1
10014976:	429c      	cmp	r4, r3
10014978:	d1fb      	bne.n	10014972 <memset+0x82>
1001497a:	bd30      	pop	{r4, r5, pc}
1001497c:	4664      	mov	r4, ip
1001497e:	4613      	mov	r3, r2
10014980:	2c00      	cmp	r4, #0
10014982:	d1f4      	bne.n	1001496e <memset+0x7e>
10014984:	e7f9      	b.n	1001497a <memset+0x8a>
10014986:	4603      	mov	r3, r0
10014988:	4614      	mov	r4, r2
1001498a:	e7c0      	b.n	1001490e <memset+0x1e>
1001498c:	461a      	mov	r2, r3
1001498e:	46a4      	mov	ip, r4
10014990:	e7e0      	b.n	10014954 <memset+0x64>
10014992:	bf00      	nop

10014994 <_wcrtomb_r>:
10014994:	b570      	push	{r4, r5, r6, lr}
10014996:	4605      	mov	r5, r0
10014998:	b084      	sub	sp, #16
1001499a:	b15b      	cbz	r3, 100149b4 <_wcrtomb_r+0x20>
1001499c:	461c      	mov	r4, r3
1001499e:	4b0f      	ldr	r3, [pc, #60]	@ (100149dc <_wcrtomb_r+0x48>)
100149a0:	f8d3 60e0 	ldr.w	r6, [r3, #224]	@ 0xe0
100149a4:	4623      	mov	r3, r4
100149a6:	b169      	cbz	r1, 100149c4 <_wcrtomb_r+0x30>
100149a8:	4628      	mov	r0, r5
100149aa:	47b0      	blx	r6
100149ac:	1c43      	adds	r3, r0, #1
100149ae:	d00f      	beq.n	100149d0 <_wcrtomb_r+0x3c>
100149b0:	b004      	add	sp, #16
100149b2:	bd70      	pop	{r4, r5, r6, pc}
100149b4:	4b09      	ldr	r3, [pc, #36]	@ (100149dc <_wcrtomb_r+0x48>)
100149b6:	f500 7482 	add.w	r4, r0, #260	@ 0x104
100149ba:	f8d3 60e0 	ldr.w	r6, [r3, #224]	@ 0xe0
100149be:	4623      	mov	r3, r4
100149c0:	2900      	cmp	r1, #0
100149c2:	d1f1      	bne.n	100149a8 <_wcrtomb_r+0x14>
100149c4:	460a      	mov	r2, r1
100149c6:	4628      	mov	r0, r5
100149c8:	a901      	add	r1, sp, #4
100149ca:	47b0      	blx	r6
100149cc:	1c43      	adds	r3, r0, #1
100149ce:	d1ef      	bne.n	100149b0 <_wcrtomb_r+0x1c>
100149d0:	2200      	movs	r2, #0
100149d2:	238a      	movs	r3, #138	@ 0x8a
100149d4:	6022      	str	r2, [r4, #0]
100149d6:	602b      	str	r3, [r5, #0]
100149d8:	b004      	add	sp, #16
100149da:	bd70      	pop	{r4, r5, r6, pc}
100149dc:	2000045c 	.word	0x2000045c

100149e0 <__libc_init_array>:
100149e0:	b570      	push	{r4, r5, r6, lr}
100149e2:	4b0f      	ldr	r3, [pc, #60]	@ (10014a20 <__libc_init_array+0x40>)
100149e4:	4d0f      	ldr	r5, [pc, #60]	@ (10014a24 <__libc_init_array+0x44>)
100149e6:	42ab      	cmp	r3, r5
100149e8:	eba3 0605 	sub.w	r6, r3, r5
100149ec:	d007      	beq.n	100149fe <__libc_init_array+0x1e>
100149ee:	10b6      	asrs	r6, r6, #2
100149f0:	2400      	movs	r4, #0
100149f2:	f855 3b04 	ldr.w	r3, [r5], #4
100149f6:	3401      	adds	r4, #1
100149f8:	4798      	blx	r3
100149fa:	42a6      	cmp	r6, r4
100149fc:	d8f9      	bhi.n	100149f2 <__libc_init_array+0x12>
100149fe:	f009 f993 	bl	1001dd28 <_init>
10014a02:	4d09      	ldr	r5, [pc, #36]	@ (10014a28 <__libc_init_array+0x48>)
10014a04:	4b09      	ldr	r3, [pc, #36]	@ (10014a2c <__libc_init_array+0x4c>)
10014a06:	1b5e      	subs	r6, r3, r5
10014a08:	42ab      	cmp	r3, r5
10014a0a:	ea4f 06a6 	mov.w	r6, r6, asr #2
10014a0e:	d006      	beq.n	10014a1e <__libc_init_array+0x3e>
10014a10:	2400      	movs	r4, #0
10014a12:	f855 3b04 	ldr.w	r3, [r5], #4
10014a16:	3401      	adds	r4, #1
10014a18:	4798      	blx	r3
10014a1a:	42a6      	cmp	r6, r4
10014a1c:	d8f9      	bhi.n	10014a12 <__libc_init_array+0x32>
10014a1e:	bd70      	pop	{r4, r5, r6, pc}
10014a20:	200006fc 	.word	0x200006fc
10014a24:	200006fc 	.word	0x200006fc
10014a28:	200006fc 	.word	0x200006fc
10014a2c:	20000704 	.word	0x20000704

10014a30 <__libc_fini_array>:
10014a30:	b538      	push	{r3, r4, r5, lr}
10014a32:	4d07      	ldr	r5, [pc, #28]	@ (10014a50 <__libc_fini_array+0x20>)
10014a34:	4c07      	ldr	r4, [pc, #28]	@ (10014a54 <__libc_fini_array+0x24>)
10014a36:	1b2c      	subs	r4, r5, r4
10014a38:	10a4      	asrs	r4, r4, #2
10014a3a:	d005      	beq.n	10014a48 <__libc_fini_array+0x18>
10014a3c:	3c01      	subs	r4, #1
10014a3e:	f855 3d04 	ldr.w	r3, [r5, #-4]!
10014a42:	4798      	blx	r3
10014a44:	2c00      	cmp	r4, #0
10014a46:	d1f9      	bne.n	10014a3c <__libc_fini_array+0xc>
10014a48:	e8bd 4038 	ldmia.w	sp!, {r3, r4, r5, lr}
10014a4c:	f009 b972 	b.w	1001dd34 <_fini>
10014a50:	20000708 	.word	0x20000708
10014a54:	20000704 	.word	0x20000704

10014a58 <__retarget_lock_init_recursive>:
10014a58:	4770      	bx	lr
10014a5a:	bf00      	nop

10014a5c <__retarget_lock_close_recursive>:
10014a5c:	4770      	bx	lr
10014a5e:	bf00      	nop

10014a60 <__retarget_lock_acquire_recursive>:
10014a60:	4770      	bx	lr
10014a62:	bf00      	nop

10014a64 <__retarget_lock_release_recursive>:
10014a64:	4770      	bx	lr
10014a66:	bf00      	nop

10014a68 <__locale_mb_cur_max>:
10014a68:	4b01      	ldr	r3, [pc, #4]	@ (10014a70 <__locale_mb_cur_max+0x8>)
10014a6a:	f893 0128 	ldrb.w	r0, [r3, #296]	@ 0x128
10014a6e:	4770      	bx	lr
10014a70:	2000045c 	.word	0x2000045c

10014a74 <_localeconv_r>:
10014a74:	4800      	ldr	r0, [pc, #0]	@ (10014a78 <_localeconv_r+0x4>)
10014a76:	4770      	bx	lr
10014a78:	2000054c 	.word	0x2000054c

10014a7c <_fclose_r>:
10014a7c:	b570      	push	{r4, r5, r6, lr}
10014a7e:	2900      	cmp	r1, #0
10014a80:	d03f      	beq.n	10014b02 <_fclose_r+0x86>
10014a82:	4605      	mov	r5, r0
10014a84:	460c      	mov	r4, r1
10014a86:	b110      	cbz	r0, 10014a8e <_fclose_r+0x12>
10014a88:	6b43      	ldr	r3, [r0, #52]	@ 0x34
10014a8a:	2b00      	cmp	r3, #0
10014a8c:	d03c      	beq.n	10014b08 <_fclose_r+0x8c>
10014a8e:	6e63      	ldr	r3, [r4, #100]	@ 0x64
10014a90:	f9b4 200c 	ldrsh.w	r2, [r4, #12]
10014a94:	07de      	lsls	r6, r3, #31
10014a96:	d432      	bmi.n	10014afe <_fclose_r+0x82>
10014a98:	0590      	lsls	r0, r2, #22
10014a9a:	d538      	bpl.n	10014b0e <_fclose_r+0x92>
10014a9c:	4621      	mov	r1, r4
10014a9e:	4628      	mov	r0, r5
10014aa0:	f001 f8aa 	bl	10015bf8 <__sflush_r>
10014aa4:	6ae3      	ldr	r3, [r4, #44]	@ 0x2c
10014aa6:	4606      	mov	r6, r0
10014aa8:	b133      	cbz	r3, 10014ab8 <_fclose_r+0x3c>
10014aaa:	69e1      	ldr	r1, [r4, #28]
10014aac:	4628      	mov	r0, r5
10014aae:	4798      	blx	r3
10014ab0:	2800      	cmp	r0, #0
10014ab2:	bfb8      	it	lt
10014ab4:	f04f 36ff 	movlt.w	r6, #4294967295	@ 0xffffffff
10014ab8:	89a3      	ldrh	r3, [r4, #12]
10014aba:	061a      	lsls	r2, r3, #24
10014abc:	d439      	bmi.n	10014b32 <_fclose_r+0xb6>
10014abe:	6b21      	ldr	r1, [r4, #48]	@ 0x30
10014ac0:	b141      	cbz	r1, 10014ad4 <_fclose_r+0x58>
10014ac2:	f104 0340 	add.w	r3, r4, #64	@ 0x40
10014ac6:	4299      	cmp	r1, r3
10014ac8:	d002      	beq.n	10014ad0 <_fclose_r+0x54>
10014aca:	4628      	mov	r0, r5
10014acc:	f001 fdba 	bl	10016644 <_free_r>
10014ad0:	2300      	movs	r3, #0
10014ad2:	6323      	str	r3, [r4, #48]	@ 0x30
10014ad4:	6c61      	ldr	r1, [r4, #68]	@ 0x44
10014ad6:	b121      	cbz	r1, 10014ae2 <_fclose_r+0x66>
10014ad8:	4628      	mov	r0, r5
10014ada:	f001 fdb3 	bl	10016644 <_free_r>
10014ade:	2300      	movs	r3, #0
10014ae0:	6463      	str	r3, [r4, #68]	@ 0x44
10014ae2:	f001 fa11 	bl	10015f08 <__sfp_lock_acquire>
10014ae6:	6e63      	ldr	r3, [r4, #100]	@ 0x64
10014ae8:	2200      	movs	r2, #0
10014aea:	07db      	lsls	r3, r3, #31
10014aec:	81a2      	strh	r2, [r4, #12]
10014aee:	d51c      	bpl.n	10014b2a <_fclose_r+0xae>
10014af0:	6da0      	ldr	r0, [r4, #88]	@ 0x58
10014af2:	f7ff ffb3 	bl	10014a5c <__retarget_lock_close_recursive>
10014af6:	f001 fa0d 	bl	10015f14 <__sfp_lock_release>
10014afa:	4630      	mov	r0, r6
10014afc:	bd70      	pop	{r4, r5, r6, pc}
10014afe:	2a00      	cmp	r2, #0
10014b00:	d1cc      	bne.n	10014a9c <_fclose_r+0x20>
10014b02:	2600      	movs	r6, #0
10014b04:	4630      	mov	r0, r6
10014b06:	bd70      	pop	{r4, r5, r6, pc}
10014b08:	f001 f9e0 	bl	10015ecc <__sinit>
10014b0c:	e7bf      	b.n	10014a8e <_fclose_r+0x12>
10014b0e:	6da0      	ldr	r0, [r4, #88]	@ 0x58
10014b10:	f7ff ffa6 	bl	10014a60 <__retarget_lock_acquire_recursive>
10014b14:	f9b4 300c 	ldrsh.w	r3, [r4, #12]
10014b18:	2b00      	cmp	r3, #0
10014b1a:	d1bf      	bne.n	10014a9c <_fclose_r+0x20>
10014b1c:	6e63      	ldr	r3, [r4, #100]	@ 0x64
10014b1e:	07d9      	lsls	r1, r3, #31
10014b20:	d4ef      	bmi.n	10014b02 <_fclose_r+0x86>
10014b22:	6da0      	ldr	r0, [r4, #88]	@ 0x58
10014b24:	f7ff ff9e 	bl	10014a64 <__retarget_lock_release_recursive>
10014b28:	e7eb      	b.n	10014b02 <_fclose_r+0x86>
10014b2a:	6da0      	ldr	r0, [r4, #88]	@ 0x58
10014b2c:	f7ff ff9a 	bl	10014a64 <__retarget_lock_release_recursive>
10014b30:	e7de      	b.n	10014af0 <_fclose_r+0x74>
10014b32:	6921      	ldr	r1, [r4, #16]
10014b34:	4628      	mov	r0, r5
10014b36:	f001 fd85 	bl	10016644 <_free_r>
10014b3a:	e7c0      	b.n	10014abe <_fclose_r+0x42>

10014b3c <sysconf>:
10014b3c:	2808      	cmp	r0, #8
10014b3e:	d102      	bne.n	10014b46 <sysconf+0xa>
10014b40:	f44f 5080 	mov.w	r0, #4096	@ 0x1000
10014b44:	4770      	bx	lr
10014b46:	b508      	push	{r3, lr}
10014b48:	f7fd fdb8 	bl	100126bc <__errno>
10014b4c:	2316      	movs	r3, #22
10014b4e:	6003      	str	r3, [r0, #0]
10014b50:	f04f 30ff 	mov.w	r0, #4294967295	@ 0xffffffff
10014b54:	bd08      	pop	{r3, pc}
10014b56:	bf00      	nop

10014b58 <printf>:
10014b58:	b40f      	push	{r0, r1, r2, r3}
10014b5a:	b500      	push	{lr}
10014b5c:	4907      	ldr	r1, [pc, #28]	@ (10014b7c <printf+0x24>)
10014b5e:	b083      	sub	sp, #12
10014b60:	ab04      	add	r3, sp, #16
10014b62:	6808      	ldr	r0, [r1, #0]
10014b64:	f853 2b04 	ldr.w	r2, [r3], #4
10014b68:	6881      	ldr	r1, [r0, #8]
10014b6a:	9301      	str	r3, [sp, #4]
10014b6c:	f002 f8f4 	bl	10016d58 <_vfprintf_r>
10014b70:	b003      	add	sp, #12
10014b72:	f85d eb04 	ldr.w	lr, [sp], #4
10014b76:	b004      	add	sp, #16
10014b78:	4770      	bx	lr
10014b7a:	bf00      	nop
10014b7c:	200005c8 	.word	0x200005c8

10014b80 <_puts_r>:
10014b80:	b570      	push	{r4, r5, r6, lr}
10014b82:	4605      	mov	r5, r0
10014b84:	b088      	sub	sp, #32
10014b86:	4608      	mov	r0, r1
10014b88:	460c      	mov	r4, r1
10014b8a:	f001 fab9 	bl	10016100 <strlen>
10014b8e:	4e21      	ldr	r6, [pc, #132]	@ (10014c14 <_puts_r+0x94>)
10014b90:	6b6a      	ldr	r2, [r5, #52]	@ 0x34
10014b92:	9005      	str	r0, [sp, #20]
10014b94:	2101      	movs	r1, #1
10014b96:	1843      	adds	r3, r0, r1
10014b98:	e9cd 6106 	strd	r6, r1, [sp, #24]
10014b9c:	a804      	add	r0, sp, #16
10014b9e:	2102      	movs	r1, #2
10014ba0:	9404      	str	r4, [sp, #16]
10014ba2:	9303      	str	r3, [sp, #12]
10014ba4:	68ac      	ldr	r4, [r5, #8]
10014ba6:	9001      	str	r0, [sp, #4]
10014ba8:	9102      	str	r1, [sp, #8]
10014baa:	2a00      	cmp	r2, #0
10014bac:	d02e      	beq.n	10014c0c <_puts_r+0x8c>
10014bae:	6e62      	ldr	r2, [r4, #100]	@ 0x64
10014bb0:	f9b4 300c 	ldrsh.w	r3, [r4, #12]
10014bb4:	07d6      	lsls	r6, r2, #31
10014bb6:	d401      	bmi.n	10014bbc <_puts_r+0x3c>
10014bb8:	0598      	lsls	r0, r3, #22
10014bba:	d521      	bpl.n	10014c00 <_puts_r+0x80>
10014bbc:	0499      	lsls	r1, r3, #18
10014bbe:	d406      	bmi.n	10014bce <_puts_r+0x4e>
10014bc0:	6e62      	ldr	r2, [r4, #100]	@ 0x64
10014bc2:	f443 5300 	orr.w	r3, r3, #8192	@ 0x2000
10014bc6:	f422 5200 	bic.w	r2, r2, #8192	@ 0x2000
10014bca:	81a3      	strh	r3, [r4, #12]
10014bcc:	6662      	str	r2, [r4, #100]	@ 0x64
10014bce:	4628      	mov	r0, r5
10014bd0:	aa01      	add	r2, sp, #4
10014bd2:	4621      	mov	r1, r4
10014bd4:	f001 fe96 	bl	10016904 <__sfvwrite_r>
10014bd8:	6e63      	ldr	r3, [r4, #100]	@ 0x64
10014bda:	2800      	cmp	r0, #0
10014bdc:	bf0c      	ite	eq
10014bde:	250a      	moveq	r5, #10
10014be0:	f04f 35ff 	movne.w	r5, #4294967295	@ 0xffffffff
10014be4:	07da      	lsls	r2, r3, #31
10014be6:	d402      	bmi.n	10014bee <_puts_r+0x6e>
10014be8:	89a3      	ldrh	r3, [r4, #12]
10014bea:	059b      	lsls	r3, r3, #22
10014bec:	d502      	bpl.n	10014bf4 <_puts_r+0x74>
10014bee:	4628      	mov	r0, r5
10014bf0:	b008      	add	sp, #32
10014bf2:	bd70      	pop	{r4, r5, r6, pc}
10014bf4:	6da0      	ldr	r0, [r4, #88]	@ 0x58
10014bf6:	f7ff ff35 	bl	10014a64 <__retarget_lock_release_recursive>
10014bfa:	4628      	mov	r0, r5
10014bfc:	b008      	add	sp, #32
10014bfe:	bd70      	pop	{r4, r5, r6, pc}
10014c00:	6da0      	ldr	r0, [r4, #88]	@ 0x58
10014c02:	f7ff ff2d 	bl	10014a60 <__retarget_lock_acquire_recursive>
10014c06:	f9b4 300c 	ldrsh.w	r3, [r4, #12]
10014c0a:	e7d7      	b.n	10014bbc <_puts_r+0x3c>
10014c0c:	4628      	mov	r0, r5
10014c0e:	f001 f95d 	bl	10015ecc <__sinit>
10014c12:	e7cc      	b.n	10014bae <_puts_r+0x2e>
10014c14:	1001d9c4 	.word	0x1001d9c4

10014c18 <puts>:
10014c18:	4b02      	ldr	r3, [pc, #8]	@ (10014c24 <puts+0xc>)
10014c1a:	4601      	mov	r1, r0
10014c1c:	6818      	ldr	r0, [r3, #0]
10014c1e:	f7ff bfaf 	b.w	10014b80 <_puts_r>
10014c22:	bf00      	nop
10014c24:	200005c8 	.word	0x200005c8

10014c28 <__malloc_lock>:
10014c28:	4801      	ldr	r0, [pc, #4]	@ (10014c30 <__malloc_lock+0x8>)
10014c2a:	f7ff bf19 	b.w	10014a60 <__retarget_lock_acquire_recursive>
10014c2e:	bf00      	nop
10014c30:	20001674 	.word	0x20001674

10014c34 <__malloc_unlock>:
10014c34:	4801      	ldr	r0, [pc, #4]	@ (10014c3c <__malloc_unlock+0x8>)
10014c36:	f7ff bf15 	b.w	10014a64 <__retarget_lock_release_recursive>
10014c3a:	bf00      	nop
10014c3c:	20001674 	.word	0x20001674

10014c40 <atexit>:
10014c40:	2300      	movs	r3, #0
10014c42:	4601      	mov	r1, r0
10014c44:	461a      	mov	r2, r3
10014c46:	4618      	mov	r0, r3
10014c48:	f004 bf4a 	b.w	10019ae0 <__register_exitproc>

10014c4c <_wcsrtombs_r>:
10014c4c:	b510      	push	{r4, lr}
10014c4e:	b082      	sub	sp, #8
10014c50:	9c04      	ldr	r4, [sp, #16]
10014c52:	e9cd 3400 	strd	r3, r4, [sp]
10014c56:	f04f 33ff 	mov.w	r3, #4294967295	@ 0xffffffff
10014c5a:	f005 fcf3 	bl	1001a644 <_wcsnrtombs_r>
10014c5e:	b002      	add	sp, #8
10014c60:	bd10      	pop	{r4, pc}
10014c62:	bf00      	nop

10014c64 <quorem>:
10014c64:	e92d 4ff0 	stmdb	sp!, {r4, r5, r6, r7, r8, r9, sl, fp, lr}
10014c68:	6903      	ldr	r3, [r0, #16]
10014c6a:	690c      	ldr	r4, [r1, #16]
10014c6c:	42a3      	cmp	r3, r4
10014c6e:	b083      	sub	sp, #12
10014c70:	f2c0 808a 	blt.w	10014d88 <quorem+0x124>
10014c74:	3c01      	subs	r4, #1
10014c76:	f101 0514 	add.w	r5, r1, #20
10014c7a:	f100 0814 	add.w	r8, r0, #20
10014c7e:	f855 3024 	ldr.w	r3, [r5, r4, lsl #2]
10014c82:	f858 2024 	ldr.w	r2, [r8, r4, lsl #2]
10014c86:	3301      	adds	r3, #1
10014c88:	429a      	cmp	r2, r3
10014c8a:	468e      	mov	lr, r1
10014c8c:	4681      	mov	r9, r0
10014c8e:	ea4f 0184 	mov.w	r1, r4, lsl #2
10014c92:	eb05 0784 	add.w	r7, r5, r4, lsl #2
10014c96:	eb08 0a84 	add.w	sl, r8, r4, lsl #2
10014c9a:	fbb2 f6f3 	udiv	r6, r2, r3
10014c9e:	d33a      	bcc.n	10014d16 <quorem+0xb2>
10014ca0:	e9cd 1500 	strd	r1, r5, [sp]
10014ca4:	2200      	movs	r2, #0
10014ca6:	46ac      	mov	ip, r5
10014ca8:	4640      	mov	r0, r8
10014caa:	4613      	mov	r3, r2
10014cac:	f85c 1b04 	ldr.w	r1, [ip], #4
10014cb0:	6805      	ldr	r5, [r0, #0]
10014cb2:	fa1f fb81 	uxth.w	fp, r1
10014cb6:	fb06 220b 	mla	r2, r6, fp, r2
10014cba:	0c09      	lsrs	r1, r1, #16
10014cbc:	ea4f 4b12 	mov.w	fp, r2, lsr #16
10014cc0:	fb06 bb01 	mla	fp, r6, r1, fp
10014cc4:	b292      	uxth	r2, r2
10014cc6:	b2a9      	uxth	r1, r5
10014cc8:	1a89      	subs	r1, r1, r2
10014cca:	4419      	add	r1, r3
10014ccc:	fa1f f38b 	uxth.w	r3, fp
10014cd0:	ebc3 4321 	rsb	r3, r3, r1, asr #16
10014cd4:	eb03 4315 	add.w	r3, r3, r5, lsr #16
10014cd8:	b289      	uxth	r1, r1
10014cda:	ea41 4103 	orr.w	r1, r1, r3, lsl #16
10014cde:	4567      	cmp	r7, ip
10014ce0:	f840 1b04 	str.w	r1, [r0], #4
10014ce4:	ea4f 421b 	mov.w	r2, fp, lsr #16
10014ce8:	ea4f 4323 	mov.w	r3, r3, asr #16
10014cec:	d2de      	bcs.n	10014cac <quorem+0x48>
10014cee:	e9dd 1500 	ldrd	r1, r5, [sp]
10014cf2:	f858 3001 	ldr.w	r3, [r8, r1]
10014cf6:	b973      	cbnz	r3, 10014d16 <quorem+0xb2>
10014cf8:	f1aa 0a04 	sub.w	sl, sl, #4
10014cfc:	45d0      	cmp	r8, sl
10014cfe:	d304      	bcc.n	10014d0a <quorem+0xa6>
10014d00:	e007      	b.n	10014d12 <quorem+0xae>
10014d02:	45d0      	cmp	r8, sl
10014d04:	f104 34ff 	add.w	r4, r4, #4294967295	@ 0xffffffff
10014d08:	d203      	bcs.n	10014d12 <quorem+0xae>
10014d0a:	f85a 3904 	ldr.w	r3, [sl], #-4
10014d0e:	2b00      	cmp	r3, #0
10014d10:	d0f7      	beq.n	10014d02 <quorem+0x9e>
10014d12:	f8c9 4010 	str.w	r4, [r9, #16]
10014d16:	4671      	mov	r1, lr
10014d18:	4648      	mov	r0, r9
10014d1a:	f005 faad 	bl	1001a278 <__mcmp>
10014d1e:	2800      	cmp	r0, #0
10014d20:	db2e      	blt.n	10014d80 <quorem+0x11c>
10014d22:	4641      	mov	r1, r8
10014d24:	2200      	movs	r2, #0
10014d26:	f855 0b04 	ldr.w	r0, [r5], #4
10014d2a:	f8d1 c000 	ldr.w	ip, [r1]
10014d2e:	fa1f fe80 	uxth.w	lr, r0
10014d32:	fa1f f38c 	uxth.w	r3, ip
10014d36:	eba3 030e 	sub.w	r3, r3, lr
10014d3a:	4413      	add	r3, r2
10014d3c:	0c02      	lsrs	r2, r0, #16
10014d3e:	ebc2 4223 	rsb	r2, r2, r3, asr #16
10014d42:	eb02 421c 	add.w	r2, r2, ip, lsr #16
10014d46:	b29b      	uxth	r3, r3
10014d48:	ea43 4302 	orr.w	r3, r3, r2, lsl #16
10014d4c:	42af      	cmp	r7, r5
10014d4e:	f841 3b04 	str.w	r3, [r1], #4
10014d52:	ea4f 4222 	mov.w	r2, r2, asr #16
10014d56:	d2e6      	bcs.n	10014d26 <quorem+0xc2>
10014d58:	f858 2024 	ldr.w	r2, [r8, r4, lsl #2]
10014d5c:	eb08 0384 	add.w	r3, r8, r4, lsl #2
10014d60:	b96a      	cbnz	r2, 10014d7e <quorem+0x11a>
10014d62:	3b04      	subs	r3, #4
10014d64:	4598      	cmp	r8, r3
10014d66:	d304      	bcc.n	10014d72 <quorem+0x10e>
10014d68:	e007      	b.n	10014d7a <quorem+0x116>
10014d6a:	4598      	cmp	r8, r3
10014d6c:	f104 34ff 	add.w	r4, r4, #4294967295	@ 0xffffffff
10014d70:	d203      	bcs.n	10014d7a <quorem+0x116>
10014d72:	f853 2904 	ldr.w	r2, [r3], #-4
10014d76:	2a00      	cmp	r2, #0
10014d78:	d0f7      	beq.n	10014d6a <quorem+0x106>
10014d7a:	f8c9 4010 	str.w	r4, [r9, #16]
10014d7e:	3601      	adds	r6, #1
10014d80:	4630      	mov	r0, r6
10014d82:	b003      	add	sp, #12
10014d84:	e8bd 8ff0 	ldmia.w	sp!, {r4, r5, r6, r7, r8, r9, sl, fp, pc}
10014d88:	2000      	movs	r0, #0
10014d8a:	b003      	add	sp, #12
10014d8c:	e8bd 8ff0 	ldmia.w	sp!, {r4, r5, r6, r7, r8, r9, sl, fp, pc}

10014d90 <_dtoa_r>:
10014d90:	e92d 4ff0 	stmdb	sp!, {r4, r5, r6, r7, r8, r9, sl, fp, lr}
10014d94:	6b81      	ldr	r1, [r0, #56]	@ 0x38
10014d96:	b09d      	sub	sp, #116	@ 0x74
10014d98:	4616      	mov	r6, r2
10014d9a:	461f      	mov	r7, r3
10014d9c:	e9cd 6704 	strd	r6, r7, [sp, #16]
10014da0:	9d29      	ldr	r5, [sp, #164]	@ 0xa4
10014da2:	9002      	str	r0, [sp, #8]
10014da4:	b149      	cbz	r1, 10014dba <_dtoa_r+0x2a>
10014da6:	6bc2      	ldr	r2, [r0, #60]	@ 0x3c
10014da8:	604a      	str	r2, [r1, #4]
10014daa:	2301      	movs	r3, #1
10014dac:	4093      	lsls	r3, r2
10014dae:	4604      	mov	r4, r0
10014db0:	608b      	str	r3, [r1, #8]
10014db2:	f004 ffff 	bl	10019db4 <_Bfree>
10014db6:	2300      	movs	r3, #0
10014db8:	63a3      	str	r3, [r4, #56]	@ 0x38
10014dba:	f1b7 0900 	subs.w	r9, r7, #0
10014dbe:	bfb4      	ite	lt
10014dc0:	2301      	movlt	r3, #1
10014dc2:	2300      	movge	r3, #0
10014dc4:	602b      	str	r3, [r5, #0]
10014dc6:	4b76      	ldr	r3, [pc, #472]	@ (10014fa0 <_dtoa_r+0x210>)
10014dc8:	bfbc      	itt	lt
10014dca:	f029 4900 	biclt.w	r9, r9, #2147483648	@ 0x80000000
10014dce:	f8cd 9014 	strlt.w	r9, [sp, #20]
10014dd2:	ea33 0309 	bics.w	r3, r3, r9
10014dd6:	f000 80aa 	beq.w	10014f2e <_dtoa_r+0x19e>
10014dda:	ed9d 7b04 	vldr	d7, [sp, #16]
10014dde:	2200      	movs	r2, #0
10014de0:	ec51 0b17 	vmov	r0, r1, d7
10014de4:	2300      	movs	r3, #0
10014de6:	ed8d 7b06 	vstr	d7, [sp, #24]
10014dea:	f006 f9a9 	bl	1001b140 <__aeabi_dcmpeq>
10014dee:	4680      	mov	r8, r0
10014df0:	b168      	cbz	r0, 10014e0e <_dtoa_r+0x7e>
10014df2:	9a28      	ldr	r2, [sp, #160]	@ 0xa0
10014df4:	2301      	movs	r3, #1
10014df6:	6013      	str	r3, [r2, #0]
10014df8:	9b2a      	ldr	r3, [sp, #168]	@ 0xa8
10014dfa:	b113      	cbz	r3, 10014e02 <_dtoa_r+0x72>
10014dfc:	9a2a      	ldr	r2, [sp, #168]	@ 0xa8
10014dfe:	4b69      	ldr	r3, [pc, #420]	@ (10014fa4 <_dtoa_r+0x214>)
10014e00:	6013      	str	r3, [r2, #0]
10014e02:	4b69      	ldr	r3, [pc, #420]	@ (10014fa8 <_dtoa_r+0x218>)
10014e04:	9303      	str	r3, [sp, #12]
10014e06:	9803      	ldr	r0, [sp, #12]
10014e08:	b01d      	add	sp, #116	@ 0x74
10014e0a:	e8bd 8ff0 	ldmia.w	sp!, {r4, r5, r6, r7, r8, r9, sl, fp, pc}
10014e0e:	ab1a      	add	r3, sp, #104	@ 0x68
10014e10:	9301      	str	r3, [sp, #4]
10014e12:	ab1b      	add	r3, sp, #108	@ 0x6c
10014e14:	9300      	str	r3, [sp, #0]
10014e16:	9802      	ldr	r0, [sp, #8]
10014e18:	e9dd 2306 	ldrd	r2, r3, [sp, #24]
10014e1c:	f005 fb00 	bl	1001a420 <__d2b>
10014e20:	ea5f 5519 	movs.w	r5, r9, lsr #20
10014e24:	4682      	mov	sl, r0
10014e26:	f040 8098 	bne.w	10014f5a <_dtoa_r+0x1ca>
10014e2a:	e9dd 851a 	ldrd	r8, r5, [sp, #104]	@ 0x68
10014e2e:	4445      	add	r5, r8
10014e30:	f205 4332 	addw	r3, r5, #1074	@ 0x432
10014e34:	2b20      	cmp	r3, #32
10014e36:	f340 8381 	ble.w	1001553c <_dtoa_r+0x7ac>
10014e3a:	f1c3 0340 	rsb	r3, r3, #64	@ 0x40
10014e3e:	fa09 f903 	lsl.w	r9, r9, r3
10014e42:	f205 4312 	addw	r3, r5, #1042	@ 0x412
10014e46:	fa26 f303 	lsr.w	r3, r6, r3
10014e4a:	ea49 0003 	orr.w	r0, r9, r3
10014e4e:	f005 fe95 	bl	1001ab7c <__aeabi_ui2d>
10014e52:	2301      	movs	r3, #1
10014e54:	3d01      	subs	r5, #1
10014e56:	930f      	str	r3, [sp, #60]	@ 0x3c
10014e58:	f1a1 71f8 	sub.w	r1, r1, #32505856	@ 0x1f00000
10014e5c:	4b53      	ldr	r3, [pc, #332]	@ (10014fac <_dtoa_r+0x21c>)
10014e5e:	2200      	movs	r2, #0
10014e60:	f005 fd4e 	bl	1001a900 <__aeabi_dsub>
10014e64:	a348      	add	r3, pc, #288	@ (adr r3, 10014f88 <_dtoa_r+0x1f8>)
10014e66:	e9d3 2300 	ldrd	r2, r3, [r3]
10014e6a:	f005 ff01 	bl	1001ac70 <__aeabi_dmul>
10014e6e:	a348      	add	r3, pc, #288	@ (adr r3, 10014f90 <_dtoa_r+0x200>)
10014e70:	e9d3 2300 	ldrd	r2, r3, [r3]
10014e74:	f005 fd46 	bl	1001a904 <__adddf3>
10014e78:	4606      	mov	r6, r0
10014e7a:	4628      	mov	r0, r5
10014e7c:	460f      	mov	r7, r1
10014e7e:	f005 fe8d 	bl	1001ab9c <__aeabi_i2d>
10014e82:	a345      	add	r3, pc, #276	@ (adr r3, 10014f98 <_dtoa_r+0x208>)
10014e84:	e9d3 2300 	ldrd	r2, r3, [r3]
10014e88:	f005 fef2 	bl	1001ac70 <__aeabi_dmul>
10014e8c:	4602      	mov	r2, r0
10014e8e:	460b      	mov	r3, r1
10014e90:	4630      	mov	r0, r6
10014e92:	4639      	mov	r1, r7
10014e94:	f005 fd36 	bl	1001a904 <__adddf3>
10014e98:	4606      	mov	r6, r0
10014e9a:	460f      	mov	r7, r1
10014e9c:	f006 f998 	bl	1001b1d0 <__aeabi_d2iz>
10014ea0:	2200      	movs	r2, #0
10014ea2:	4683      	mov	fp, r0
10014ea4:	2300      	movs	r3, #0
10014ea6:	4630      	mov	r0, r6
10014ea8:	4639      	mov	r1, r7
10014eaa:	f006 f953 	bl	1001b154 <__aeabi_dcmplt>
10014eae:	2800      	cmp	r0, #0
10014eb0:	f040 8318 	bne.w	100154e4 <_dtoa_r+0x754>
10014eb4:	eba8 0805 	sub.w	r8, r8, r5
10014eb8:	f1bb 0f16 	cmp.w	fp, #22
10014ebc:	f108 34ff 	add.w	r4, r8, #4294967295	@ 0xffffffff
10014ec0:	f200 818a 	bhi.w	100151d8 <_dtoa_r+0x448>
10014ec4:	4d3a      	ldr	r5, [pc, #232]	@ (10014fb0 <_dtoa_r+0x220>)
10014ec6:	eb05 05cb 	add.w	r5, r5, fp, lsl #3
10014eca:	e9d5 2300 	ldrd	r2, r3, [r5]
10014ece:	e9dd 0106 	ldrd	r0, r1, [sp, #24]
10014ed2:	f006 f93f 	bl	1001b154 <__aeabi_dcmplt>
10014ed6:	2800      	cmp	r0, #0
10014ed8:	d070      	beq.n	10014fbc <_dtoa_r+0x22c>
10014eda:	2300      	movs	r3, #0
10014edc:	2c00      	cmp	r4, #0
10014ede:	f10b 3bff 	add.w	fp, fp, #4294967295	@ 0xffffffff
10014ee2:	930e      	str	r3, [sp, #56]	@ 0x38
10014ee4:	f2c0 817d 	blt.w	100151e2 <_dtoa_r+0x452>
10014ee8:	2300      	movs	r3, #0
10014eea:	9309      	str	r3, [sp, #36]	@ 0x24
10014eec:	f1bb 0f00 	cmp.w	fp, #0
10014ef0:	da6a      	bge.n	10014fc8 <_dtoa_r+0x238>
10014ef2:	9b09      	ldr	r3, [sp, #36]	@ 0x24
10014ef4:	eba3 030b 	sub.w	r3, r3, fp
10014ef8:	9309      	str	r3, [sp, #36]	@ 0x24
10014efa:	f1cb 0300 	rsb	r3, fp, #0
10014efe:	e9cd b30c 	strd	fp, r3, [sp, #48]	@ 0x30
10014f02:	9b26      	ldr	r3, [sp, #152]	@ 0x98
10014f04:	2b09      	cmp	r3, #9
10014f06:	f04f 0b00 	mov.w	fp, #0
10014f0a:	d865      	bhi.n	10014fd8 <_dtoa_r+0x248>
10014f0c:	2b05      	cmp	r3, #5
10014f0e:	f340 831a 	ble.w	10015546 <_dtoa_r+0x7b6>
10014f12:	3b04      	subs	r3, #4
10014f14:	9326      	str	r3, [sp, #152]	@ 0x98
10014f16:	2500      	movs	r5, #0
10014f18:	9b26      	ldr	r3, [sp, #152]	@ 0x98
10014f1a:	3b02      	subs	r3, #2
10014f1c:	2b03      	cmp	r3, #3
10014f1e:	f200 8621 	bhi.w	10015b64 <_dtoa_r+0xdd4>
10014f22:	e8df f013 	tbh	[pc, r3, lsl #1]
10014f26:	045e      	.short	0x045e
10014f28:	0452045b 	.word	0x0452045b
10014f2c:	0436      	.short	0x0436
10014f2e:	9a28      	ldr	r2, [sp, #160]	@ 0xa0
10014f30:	f3c9 0913 	ubfx	r9, r9, #0, #20
10014f34:	f242 730f 	movw	r3, #9999	@ 0x270f
10014f38:	ea59 0906 	orrs.w	r9, r9, r6
10014f3c:	6013      	str	r3, [r2, #0]
10014f3e:	d11c      	bne.n	10014f7a <_dtoa_r+0x1ea>
10014f40:	9b2a      	ldr	r3, [sp, #168]	@ 0xa8
10014f42:	2b00      	cmp	r3, #0
10014f44:	f000 8629 	beq.w	10015b9a <_dtoa_r+0xe0a>
10014f48:	4b1a      	ldr	r3, [pc, #104]	@ (10014fb4 <_dtoa_r+0x224>)
10014f4a:	9303      	str	r3, [sp, #12]
10014f4c:	3308      	adds	r3, #8
10014f4e:	9a2a      	ldr	r2, [sp, #168]	@ 0xa8
10014f50:	9803      	ldr	r0, [sp, #12]
10014f52:	6013      	str	r3, [r2, #0]
10014f54:	b01d      	add	sp, #116	@ 0x74
10014f56:	e8bd 8ff0 	ldmia.w	sp!, {r4, r5, r6, r7, r8, r9, sl, fp, pc}
10014f5a:	e9dd 1206 	ldrd	r1, r2, [sp, #24]
10014f5e:	f3c2 0313 	ubfx	r3, r2, #0, #20
10014f62:	4608      	mov	r0, r1
10014f64:	f043 517f 	orr.w	r1, r3, #1069547520	@ 0x3fc00000
10014f68:	f8cd 803c 	str.w	r8, [sp, #60]	@ 0x3c
10014f6c:	f2a5 35ff 	subw	r5, r5, #1023	@ 0x3ff
10014f70:	f8dd 8068 	ldr.w	r8, [sp, #104]	@ 0x68
10014f74:	f441 1140 	orr.w	r1, r1, #3145728	@ 0x300000
10014f78:	e770      	b.n	10014e5c <_dtoa_r+0xcc>
10014f7a:	9b2a      	ldr	r3, [sp, #168]	@ 0xa8
10014f7c:	2b00      	cmp	r3, #0
10014f7e:	f040 83e5 	bne.w	1001574c <_dtoa_r+0x9bc>
10014f82:	4b0d      	ldr	r3, [pc, #52]	@ (10014fb8 <_dtoa_r+0x228>)
10014f84:	9303      	str	r3, [sp, #12]
10014f86:	e73e      	b.n	10014e06 <_dtoa_r+0x76>
10014f88:	636f4361 	.word	0x636f4361
10014f8c:	3fd287a7 	.word	0x3fd287a7
10014f90:	8b60c8b3 	.word	0x8b60c8b3
10014f94:	3fc68a28 	.word	0x3fc68a28
10014f98:	509f79fb 	.word	0x509f79fb
10014f9c:	3fd34413 	.word	0x3fd34413
10014fa0:	7ff00000 	.word	0x7ff00000
10014fa4:	1001d95d 	.word	0x1001d95d
10014fa8:	1001d95c 	.word	0x1001d95c
10014fac:	3ff80000 	.word	0x3ff80000
10014fb0:	1001dc60 	.word	0x1001dc60
10014fb4:	1001d9c8 	.word	0x1001d9c8
10014fb8:	1001d9d4 	.word	0x1001d9d4
10014fbc:	f1b8 0f00 	cmp.w	r8, #0
10014fc0:	f340 845e 	ble.w	10015880 <_dtoa_r+0xaf0>
10014fc4:	900e      	str	r0, [sp, #56]	@ 0x38
10014fc6:	9009      	str	r0, [sp, #36]	@ 0x24
10014fc8:	2300      	movs	r3, #0
10014fca:	930d      	str	r3, [sp, #52]	@ 0x34
10014fcc:	9b26      	ldr	r3, [sp, #152]	@ 0x98
10014fce:	f8cd b030 	str.w	fp, [sp, #48]	@ 0x30
10014fd2:	2b09      	cmp	r3, #9
10014fd4:	445c      	add	r4, fp
10014fd6:	d999      	bls.n	10014f0c <_dtoa_r+0x17c>
10014fd8:	2300      	movs	r3, #0
10014fda:	e9cd 3326 	strd	r3, r3, [sp, #152]	@ 0x98
10014fde:	2501      	movs	r5, #1
10014fe0:	f04f 33ff 	mov.w	r3, #4294967295	@ 0xffffffff
10014fe4:	950a      	str	r5, [sp, #40]	@ 0x28
10014fe6:	9308      	str	r3, [sp, #32]
10014fe8:	9b02      	ldr	r3, [sp, #8]
10014fea:	2100      	movs	r1, #0
10014fec:	63d9      	str	r1, [r3, #60]	@ 0x3c
10014fee:	9b08      	ldr	r3, [sp, #32]
10014ff0:	9316      	str	r3, [sp, #88]	@ 0x58
10014ff2:	9802      	ldr	r0, [sp, #8]
10014ff4:	f004 feb8 	bl	10019d68 <_Balloc>
10014ff8:	9003      	str	r0, [sp, #12]
10014ffa:	2800      	cmp	r0, #0
10014ffc:	f000 85bb 	beq.w	10015b76 <_dtoa_r+0xde6>
10015000:	e9dd 3202 	ldrd	r3, r2, [sp, #8]
10015004:	639a      	str	r2, [r3, #56]	@ 0x38
10015006:	9b08      	ldr	r3, [sp, #32]
10015008:	2b0e      	cmp	r3, #14
1001500a:	f200 8114 	bhi.w	10015236 <_dtoa_r+0x4a6>
1001500e:	2d00      	cmp	r5, #0
10015010:	f000 8111 	beq.w	10015236 <_dtoa_r+0x4a6>
10015014:	9a0c      	ldr	r2, [sp, #48]	@ 0x30
10015016:	2a00      	cmp	r2, #0
10015018:	f340 8439 	ble.w	1001588e <_dtoa_r+0xafe>
1001501c:	4db1      	ldr	r5, [pc, #708]	@ (100152e4 <_dtoa_r+0x554>)
1001501e:	f002 030f 	and.w	r3, r2, #15
10015022:	eb05 03c3 	add.w	r3, r5, r3, lsl #3
10015026:	1115      	asrs	r5, r2, #4
10015028:	05d2      	lsls	r2, r2, #23
1001502a:	e9d3 8900 	ldrd	r8, r9, [r3]
1001502e:	f140 83f9 	bpl.w	10015824 <_dtoa_r+0xa94>
10015032:	4bad      	ldr	r3, [pc, #692]	@ (100152e8 <_dtoa_r+0x558>)
10015034:	e9dd 0106 	ldrd	r0, r1, [sp, #24]
10015038:	e9d3 2308 	ldrd	r2, r3, [r3, #32]
1001503c:	f005 ff42 	bl	1001aec4 <__aeabi_ddiv>
10015040:	e9cd 0110 	strd	r0, r1, [sp, #64]	@ 0x40
10015044:	f005 050f 	and.w	r5, r5, #15
10015048:	2703      	movs	r7, #3
1001504a:	b17d      	cbz	r5, 1001506c <_dtoa_r+0x2dc>
1001504c:	4ea6      	ldr	r6, [pc, #664]	@ (100152e8 <_dtoa_r+0x558>)
1001504e:	07eb      	lsls	r3, r5, #31
10015050:	d508      	bpl.n	10015064 <_dtoa_r+0x2d4>
10015052:	4640      	mov	r0, r8
10015054:	4649      	mov	r1, r9
10015056:	e9d6 2300 	ldrd	r2, r3, [r6]
1001505a:	f005 fe09 	bl	1001ac70 <__aeabi_dmul>
1001505e:	3701      	adds	r7, #1
10015060:	4680      	mov	r8, r0
10015062:	4689      	mov	r9, r1
10015064:	106d      	asrs	r5, r5, #1
10015066:	f106 0608 	add.w	r6, r6, #8
1001506a:	d1f0      	bne.n	1001504e <_dtoa_r+0x2be>
1001506c:	4642      	mov	r2, r8
1001506e:	464b      	mov	r3, r9
10015070:	e9dd 0110 	ldrd	r0, r1, [sp, #64]	@ 0x40
10015074:	f005 ff26 	bl	1001aec4 <__aeabi_ddiv>
10015078:	4680      	mov	r8, r0
1001507a:	4689      	mov	r9, r1
1001507c:	9b0e      	ldr	r3, [sp, #56]	@ 0x38
1001507e:	b143      	cbz	r3, 10015092 <_dtoa_r+0x302>
10015080:	4b9a      	ldr	r3, [pc, #616]	@ (100152ec <_dtoa_r+0x55c>)
10015082:	2200      	movs	r2, #0
10015084:	4640      	mov	r0, r8
10015086:	4649      	mov	r1, r9
10015088:	f006 f864 	bl	1001b154 <__aeabi_dcmplt>
1001508c:	2800      	cmp	r0, #0
1001508e:	f040 84f0 	bne.w	10015a72 <_dtoa_r+0xce2>
10015092:	4638      	mov	r0, r7
10015094:	f005 fd82 	bl	1001ab9c <__aeabi_i2d>
10015098:	4642      	mov	r2, r8
1001509a:	464b      	mov	r3, r9
1001509c:	f005 fde8 	bl	1001ac70 <__aeabi_dmul>
100150a0:	4b93      	ldr	r3, [pc, #588]	@ (100152f0 <_dtoa_r+0x560>)
100150a2:	2200      	movs	r2, #0
100150a4:	f005 fc2e 	bl	1001a904 <__adddf3>
100150a8:	9b08      	ldr	r3, [sp, #32]
100150aa:	4606      	mov	r6, r0
100150ac:	f1a1 7750 	sub.w	r7, r1, #54525952	@ 0x3400000
100150b0:	2b00      	cmp	r3, #0
100150b2:	f000 80a9 	beq.w	10015208 <_dtoa_r+0x478>
100150b6:	9b0c      	ldr	r3, [sp, #48]	@ 0x30
100150b8:	9317      	str	r3, [sp, #92]	@ 0x5c
100150ba:	9b08      	ldr	r3, [sp, #32]
100150bc:	9310      	str	r3, [sp, #64]	@ 0x40
100150be:	9b03      	ldr	r3, [sp, #12]
100150c0:	4d88      	ldr	r5, [pc, #544]	@ (100152e4 <_dtoa_r+0x554>)
100150c2:	4649      	mov	r1, r9
100150c4:	4640      	mov	r0, r8
100150c6:	e9cd 6712 	strd	r6, r7, [sp, #72]	@ 0x48
100150ca:	1c5e      	adds	r6, r3, #1
100150cc:	f006 f880 	bl	1001b1d0 <__aeabi_d2iz>
100150d0:	9910      	ldr	r1, [sp, #64]	@ 0x40
100150d2:	eb05 03c1 	add.w	r3, r5, r1, lsl #3
100150d6:	ed13 7b02 	vldr	d7, [r3, #-8]
100150da:	4607      	mov	r7, r0
100150dc:	ed8d 7b14 	vstr	d7, [sp, #80]	@ 0x50
100150e0:	f005 fd5c 	bl	1001ab9c <__aeabi_i2d>
100150e4:	4602      	mov	r2, r0
100150e6:	460b      	mov	r3, r1
100150e8:	4640      	mov	r0, r8
100150ea:	4649      	mov	r1, r9
100150ec:	f005 fc08 	bl	1001a900 <__aeabi_dsub>
100150f0:	4689      	mov	r9, r1
100150f2:	990a      	ldr	r1, [sp, #40]	@ 0x28
100150f4:	3730      	adds	r7, #48	@ 0x30
100150f6:	e9dd 2314 	ldrd	r2, r3, [sp, #80]	@ 0x50
100150fa:	4680      	mov	r8, r0
100150fc:	b2ff      	uxtb	r7, r7
100150fe:	2900      	cmp	r1, #0
10015100:	f000 8452 	beq.w	100159a8 <_dtoa_r+0xc18>
10015104:	497b      	ldr	r1, [pc, #492]	@ (100152f4 <_dtoa_r+0x564>)
10015106:	2000      	movs	r0, #0
10015108:	f005 fedc 	bl	1001aec4 <__aeabi_ddiv>
1001510c:	e9dd 2312 	ldrd	r2, r3, [sp, #72]	@ 0x48
10015110:	f005 fbf6 	bl	1001a900 <__aeabi_dsub>
10015114:	9d03      	ldr	r5, [sp, #12]
10015116:	4602      	mov	r2, r0
10015118:	460b      	mov	r3, r1
1001511a:	e9cd 2312 	strd	r2, r3, [sp, #72]	@ 0x48
1001511e:	702f      	strb	r7, [r5, #0]
10015120:	4642      	mov	r2, r8
10015122:	464b      	mov	r3, r9
10015124:	f006 f834 	bl	1001b190 <__aeabi_dcmpgt>
10015128:	2800      	cmp	r0, #0
1001512a:	f040 8496 	bne.w	10015a5a <_dtoa_r+0xcca>
1001512e:	e9cd b418 	strd	fp, r4, [sp, #96]	@ 0x60
10015132:	f8cd a050 	str.w	sl, [sp, #80]	@ 0x50
10015136:	9d10      	ldr	r5, [sp, #64]	@ 0x40
10015138:	e9dd ab12 	ldrd	sl, fp, [sp, #72]	@ 0x48
1001513c:	2700      	movs	r7, #0
1001513e:	e02a      	b.n	10015196 <_dtoa_r+0x406>
10015140:	3701      	adds	r7, #1
10015142:	42af      	cmp	r7, r5
10015144:	f280 84dd 	bge.w	10015b02 <_dtoa_r+0xd72>
10015148:	4b6b      	ldr	r3, [pc, #428]	@ (100152f8 <_dtoa_r+0x568>)
1001514a:	4650      	mov	r0, sl
1001514c:	4659      	mov	r1, fp
1001514e:	2200      	movs	r2, #0
10015150:	f005 fd8e 	bl	1001ac70 <__aeabi_dmul>
10015154:	4b68      	ldr	r3, [pc, #416]	@ (100152f8 <_dtoa_r+0x568>)
10015156:	2200      	movs	r2, #0
10015158:	4682      	mov	sl, r0
1001515a:	468b      	mov	fp, r1
1001515c:	4640      	mov	r0, r8
1001515e:	4649      	mov	r1, r9
10015160:	f005 fd86 	bl	1001ac70 <__aeabi_dmul>
10015164:	4689      	mov	r9, r1
10015166:	4680      	mov	r8, r0
10015168:	f006 f832 	bl	1001b1d0 <__aeabi_d2iz>
1001516c:	4604      	mov	r4, r0
1001516e:	f005 fd15 	bl	1001ab9c <__aeabi_i2d>
10015172:	4602      	mov	r2, r0
10015174:	460b      	mov	r3, r1
10015176:	4640      	mov	r0, r8
10015178:	4649      	mov	r1, r9
1001517a:	f005 fbc1 	bl	1001a900 <__aeabi_dsub>
1001517e:	3430      	adds	r4, #48	@ 0x30
10015180:	f806 4b01 	strb.w	r4, [r6], #1
10015184:	4652      	mov	r2, sl
10015186:	465b      	mov	r3, fp
10015188:	4680      	mov	r8, r0
1001518a:	4689      	mov	r9, r1
1001518c:	f005 ffe2 	bl	1001b154 <__aeabi_dcmplt>
10015190:	2800      	cmp	r0, #0
10015192:	f040 84b3 	bne.w	10015afc <_dtoa_r+0xd6c>
10015196:	4642      	mov	r2, r8
10015198:	464b      	mov	r3, r9
1001519a:	4954      	ldr	r1, [pc, #336]	@ (100152ec <_dtoa_r+0x55c>)
1001519c:	2000      	movs	r0, #0
1001519e:	f005 fbaf 	bl	1001a900 <__aeabi_dsub>
100151a2:	4652      	mov	r2, sl
100151a4:	465b      	mov	r3, fp
100151a6:	f005 ffd5 	bl	1001b154 <__aeabi_dcmplt>
100151aa:	2800      	cmp	r0, #0
100151ac:	d0c8      	beq.n	10015140 <_dtoa_r+0x3b0>
100151ae:	9b17      	ldr	r3, [sp, #92]	@ 0x5c
100151b0:	f8dd a050 	ldr.w	sl, [sp, #80]	@ 0x50
100151b4:	9a03      	ldr	r2, [sp, #12]
100151b6:	4637      	mov	r7, r6
100151b8:	f103 0801 	add.w	r8, r3, #1
100151bc:	e002      	b.n	100151c4 <_dtoa_r+0x434>
100151be:	4297      	cmp	r7, r2
100151c0:	f000 847b 	beq.w	10015aba <_dtoa_r+0xd2a>
100151c4:	463e      	mov	r6, r7
100151c6:	f817 3d01 	ldrb.w	r3, [r7, #-1]!
100151ca:	2b39      	cmp	r3, #57	@ 0x39
100151cc:	d0f7      	beq.n	100151be <_dtoa_r+0x42e>
100151ce:	3301      	adds	r3, #1
100151d0:	b2db      	uxtb	r3, r3
100151d2:	703b      	strb	r3, [r7, #0]
100151d4:	4645      	mov	r5, r8
100151d6:	e174      	b.n	100154c2 <_dtoa_r+0x732>
100151d8:	2301      	movs	r3, #1
100151da:	2c00      	cmp	r4, #0
100151dc:	930e      	str	r3, [sp, #56]	@ 0x38
100151de:	f6bf ae83 	bge.w	10014ee8 <_dtoa_r+0x158>
100151e2:	f1c8 0301 	rsb	r3, r8, #1
100151e6:	9309      	str	r3, [sp, #36]	@ 0x24
100151e8:	2400      	movs	r4, #0
100151ea:	e67f      	b.n	10014eec <_dtoa_r+0x15c>
100151ec:	4638      	mov	r0, r7
100151ee:	f005 fcd5 	bl	1001ab9c <__aeabi_i2d>
100151f2:	4642      	mov	r2, r8
100151f4:	464b      	mov	r3, r9
100151f6:	f005 fd3b 	bl	1001ac70 <__aeabi_dmul>
100151fa:	4b3d      	ldr	r3, [pc, #244]	@ (100152f0 <_dtoa_r+0x560>)
100151fc:	2200      	movs	r2, #0
100151fe:	f005 fb81 	bl	1001a904 <__adddf3>
10015202:	4606      	mov	r6, r0
10015204:	f1a1 7750 	sub.w	r7, r1, #54525952	@ 0x3400000
10015208:	4b3c      	ldr	r3, [pc, #240]	@ (100152fc <_dtoa_r+0x56c>)
1001520a:	4640      	mov	r0, r8
1001520c:	4649      	mov	r1, r9
1001520e:	2200      	movs	r2, #0
10015210:	f005 fb76 	bl	1001a900 <__aeabi_dsub>
10015214:	4632      	mov	r2, r6
10015216:	463b      	mov	r3, r7
10015218:	4680      	mov	r8, r0
1001521a:	4689      	mov	r9, r1
1001521c:	f005 ffb8 	bl	1001b190 <__aeabi_dcmpgt>
10015220:	2800      	cmp	r0, #0
10015222:	f040 8459 	bne.w	10015ad8 <_dtoa_r+0xd48>
10015226:	4640      	mov	r0, r8
10015228:	4649      	mov	r1, r9
1001522a:	4632      	mov	r2, r6
1001522c:	f107 4300 	add.w	r3, r7, #2147483648	@ 0x80000000
10015230:	f005 ff90 	bl	1001b154 <__aeabi_dcmplt>
10015234:	bb28      	cbnz	r0, 10015282 <_dtoa_r+0x4f2>
10015236:	9b1b      	ldr	r3, [sp, #108]	@ 0x6c
10015238:	2b00      	cmp	r3, #0
1001523a:	f2c0 8091 	blt.w	10015360 <_dtoa_r+0x5d0>
1001523e:	9a0c      	ldr	r2, [sp, #48]	@ 0x30
10015240:	2a0e      	cmp	r2, #14
10015242:	f300 808d 	bgt.w	10015360 <_dtoa_r+0x5d0>
10015246:	4d27      	ldr	r5, [pc, #156]	@ (100152e4 <_dtoa_r+0x554>)
10015248:	9b0c      	ldr	r3, [sp, #48]	@ 0x30
1001524a:	eb05 05c3 	add.w	r5, r5, r3, lsl #3
1001524e:	ed95 7b00 	vldr	d7, [r5]
10015252:	9b27      	ldr	r3, [sp, #156]	@ 0x9c
10015254:	2b00      	cmp	r3, #0
10015256:	ed8d 7b04 	vstr	d7, [sp, #16]
1001525a:	da19      	bge.n	10015290 <_dtoa_r+0x500>
1001525c:	9b08      	ldr	r3, [sp, #32]
1001525e:	2b00      	cmp	r3, #0
10015260:	dc16      	bgt.n	10015290 <_dtoa_r+0x500>
10015262:	d10e      	bne.n	10015282 <_dtoa_r+0x4f2>
10015264:	4b25      	ldr	r3, [pc, #148]	@ (100152fc <_dtoa_r+0x56c>)
10015266:	2200      	movs	r2, #0
10015268:	e9dd 0104 	ldrd	r0, r1, [sp, #16]
1001526c:	f005 fd00 	bl	1001ac70 <__aeabi_dmul>
10015270:	4602      	mov	r2, r0
10015272:	460b      	mov	r3, r1
10015274:	e9dd 0106 	ldrd	r0, r1, [sp, #24]
10015278:	f005 ff76 	bl	1001b168 <__aeabi_dcmple>
1001527c:	2800      	cmp	r0, #0
1001527e:	f000 842b 	beq.w	10015ad8 <_dtoa_r+0xd48>
10015282:	f04f 0900 	mov.w	r9, #0
10015286:	9e03      	ldr	r6, [sp, #12]
10015288:	464f      	mov	r7, r9
1001528a:	9b27      	ldr	r3, [sp, #156]	@ 0x9c
1001528c:	43dd      	mvns	r5, r3
1001528e:	e224      	b.n	100156da <_dtoa_r+0x94a>
10015290:	e9dd 4504 	ldrd	r4, r5, [sp, #16]
10015294:	e9dd 8906 	ldrd	r8, r9, [sp, #24]
10015298:	4622      	mov	r2, r4
1001529a:	462b      	mov	r3, r5
1001529c:	4640      	mov	r0, r8
1001529e:	4649      	mov	r1, r9
100152a0:	f005 fe10 	bl	1001aec4 <__aeabi_ddiv>
100152a4:	f005 ff94 	bl	1001b1d0 <__aeabi_d2iz>
100152a8:	4606      	mov	r6, r0
100152aa:	f005 fc77 	bl	1001ab9c <__aeabi_i2d>
100152ae:	4622      	mov	r2, r4
100152b0:	462b      	mov	r3, r5
100152b2:	f005 fcdd 	bl	1001ac70 <__aeabi_dmul>
100152b6:	9f03      	ldr	r7, [sp, #12]
100152b8:	460b      	mov	r3, r1
100152ba:	4602      	mov	r2, r0
100152bc:	4649      	mov	r1, r9
100152be:	4640      	mov	r0, r8
100152c0:	f005 fb1e 	bl	1001a900 <__aeabi_dsub>
100152c4:	f106 0330 	add.w	r3, r6, #48	@ 0x30
100152c8:	f807 3b01 	strb.w	r3, [r7], #1
100152cc:	9b08      	ldr	r3, [sp, #32]
100152ce:	2b01      	cmp	r3, #1
100152d0:	f000 8311 	beq.w	100158f6 <_dtoa_r+0xb66>
100152d4:	2501      	movs	r5, #1
100152d6:	f8cd a018 	str.w	sl, [sp, #24]
100152da:	4699      	mov	r9, r3
100152dc:	e9dd ab04 	ldrd	sl, fp, [sp, #16]
100152e0:	46a8      	mov	r8, r5
100152e2:	e02b      	b.n	1001533c <_dtoa_r+0x5ac>
100152e4:	1001dc60 	.word	0x1001dc60
100152e8:	1001dc38 	.word	0x1001dc38
100152ec:	3ff00000 	.word	0x3ff00000
100152f0:	401c0000 	.word	0x401c0000
100152f4:	3fe00000 	.word	0x3fe00000
100152f8:	40240000 	.word	0x40240000
100152fc:	40140000 	.word	0x40140000
10015300:	4652      	mov	r2, sl
10015302:	465b      	mov	r3, fp
10015304:	4620      	mov	r0, r4
10015306:	4629      	mov	r1, r5
10015308:	f005 fddc 	bl	1001aec4 <__aeabi_ddiv>
1001530c:	f005 ff60 	bl	1001b1d0 <__aeabi_d2iz>
10015310:	4606      	mov	r6, r0
10015312:	f005 fc43 	bl	1001ab9c <__aeabi_i2d>
10015316:	4652      	mov	r2, sl
10015318:	465b      	mov	r3, fp
1001531a:	f005 fca9 	bl	1001ac70 <__aeabi_dmul>
1001531e:	f108 0801 	add.w	r8, r8, #1
10015322:	460b      	mov	r3, r1
10015324:	4602      	mov	r2, r0
10015326:	4629      	mov	r1, r5
10015328:	4620      	mov	r0, r4
1001532a:	f005 fae9 	bl	1001a900 <__aeabi_dsub>
1001532e:	f106 0330 	add.w	r3, r6, #48	@ 0x30
10015332:	45c8      	cmp	r8, r9
10015334:	f807 3b01 	strb.w	r3, [r7], #1
10015338:	f000 82db 	beq.w	100158f2 <_dtoa_r+0xb62>
1001533c:	4bb9      	ldr	r3, [pc, #740]	@ (10015624 <_dtoa_r+0x894>)
1001533e:	2200      	movs	r2, #0
10015340:	f005 fc96 	bl	1001ac70 <__aeabi_dmul>
10015344:	2200      	movs	r2, #0
10015346:	2300      	movs	r3, #0
10015348:	4604      	mov	r4, r0
1001534a:	460d      	mov	r5, r1
1001534c:	f005 fef8 	bl	1001b140 <__aeabi_dcmpeq>
10015350:	2800      	cmp	r0, #0
10015352:	d0d5      	beq.n	10015300 <_dtoa_r+0x570>
10015354:	9d0c      	ldr	r5, [sp, #48]	@ 0x30
10015356:	f8dd a018 	ldr.w	sl, [sp, #24]
1001535a:	3501      	adds	r5, #1
1001535c:	463e      	mov	r6, r7
1001535e:	e0b0      	b.n	100154c2 <_dtoa_r+0x732>
10015360:	9a0a      	ldr	r2, [sp, #40]	@ 0x28
10015362:	2a00      	cmp	r2, #0
10015364:	f040 80d2 	bne.w	1001550c <_dtoa_r+0x77c>
10015368:	2300      	movs	r3, #0
1001536a:	9d0d      	ldr	r5, [sp, #52]	@ 0x34
1001536c:	9e09      	ldr	r6, [sp, #36]	@ 0x24
1001536e:	930a      	str	r3, [sp, #40]	@ 0x28
10015370:	461f      	mov	r7, r3
10015372:	b156      	cbz	r6, 1001538a <_dtoa_r+0x5fa>
10015374:	2c00      	cmp	r4, #0
10015376:	dd08      	ble.n	1001538a <_dtoa_r+0x5fa>
10015378:	42a6      	cmp	r6, r4
1001537a:	9a09      	ldr	r2, [sp, #36]	@ 0x24
1001537c:	4633      	mov	r3, r6
1001537e:	bfa8      	it	ge
10015380:	4623      	movge	r3, r4
10015382:	1ad2      	subs	r2, r2, r3
10015384:	9209      	str	r2, [sp, #36]	@ 0x24
10015386:	1af6      	subs	r6, r6, r3
10015388:	1ae4      	subs	r4, r4, r3
1001538a:	9b0d      	ldr	r3, [sp, #52]	@ 0x34
1001538c:	b153      	cbz	r3, 100153a4 <_dtoa_r+0x614>
1001538e:	9b0a      	ldr	r3, [sp, #40]	@ 0x28
10015390:	b113      	cbz	r3, 10015398 <_dtoa_r+0x608>
10015392:	2d00      	cmp	r5, #0
10015394:	f040 82e8 	bne.w	10015968 <_dtoa_r+0xbd8>
10015398:	4651      	mov	r1, sl
1001539a:	9a0d      	ldr	r2, [sp, #52]	@ 0x34
1001539c:	9802      	ldr	r0, [sp, #8]
1001539e:	f004 fe99 	bl	1001a0d4 <__pow5mult>
100153a2:	4682      	mov	sl, r0
100153a4:	9802      	ldr	r0, [sp, #8]
100153a6:	2101      	movs	r1, #1
100153a8:	f004 fdb0 	bl	10019f0c <__i2b>
100153ac:	4681      	mov	r9, r0
100153ae:	f1bb 0f00 	cmp.w	fp, #0
100153b2:	f040 81b6 	bne.w	10015722 <_dtoa_r+0x992>
100153b6:	9b26      	ldr	r3, [sp, #152]	@ 0x98
100153b8:	2b01      	cmp	r3, #1
100153ba:	f340 81cc 	ble.w	10015756 <_dtoa_r+0x9c6>
100153be:	2001      	movs	r0, #1
100153c0:	4420      	add	r0, r4
100153c2:	f010 001f 	ands.w	r0, r0, #31
100153c6:	f000 809a 	beq.w	100154fe <_dtoa_r+0x76e>
100153ca:	f1c0 0320 	rsb	r3, r0, #32
100153ce:	2b04      	cmp	r3, #4
100153d0:	f340 81da 	ble.w	10015788 <_dtoa_r+0x9f8>
100153d4:	9b09      	ldr	r3, [sp, #36]	@ 0x24
100153d6:	f1c0 001c 	rsb	r0, r0, #28
100153da:	4403      	add	r3, r0
100153dc:	9309      	str	r3, [sp, #36]	@ 0x24
100153de:	4406      	add	r6, r0
100153e0:	4404      	add	r4, r0
100153e2:	9b09      	ldr	r3, [sp, #36]	@ 0x24
100153e4:	2b00      	cmp	r3, #0
100153e6:	dd05      	ble.n	100153f4 <_dtoa_r+0x664>
100153e8:	4651      	mov	r1, sl
100153ea:	9802      	ldr	r0, [sp, #8]
100153ec:	461a      	mov	r2, r3
100153ee:	f004 fecb 	bl	1001a188 <__lshift>
100153f2:	4682      	mov	sl, r0
100153f4:	2c00      	cmp	r4, #0
100153f6:	dd05      	ble.n	10015404 <_dtoa_r+0x674>
100153f8:	4649      	mov	r1, r9
100153fa:	9802      	ldr	r0, [sp, #8]
100153fc:	4622      	mov	r2, r4
100153fe:	f004 fec3 	bl	1001a188 <__lshift>
10015402:	4681      	mov	r9, r0
10015404:	9b0e      	ldr	r3, [sp, #56]	@ 0x38
10015406:	2b00      	cmp	r3, #0
10015408:	f040 8170 	bne.w	100156ec <_dtoa_r+0x95c>
1001540c:	9b08      	ldr	r3, [sp, #32]
1001540e:	2b00      	cmp	r3, #0
10015410:	f340 8148 	ble.w	100156a4 <_dtoa_r+0x914>
10015414:	9b0a      	ldr	r3, [sp, #40]	@ 0x28
10015416:	2b00      	cmp	r3, #0
10015418:	f040 80a4 	bne.w	10015564 <_dtoa_r+0x7d4>
1001541c:	9d0c      	ldr	r5, [sp, #48]	@ 0x30
1001541e:	3501      	adds	r5, #1
10015420:	f8dd 800c 	ldr.w	r8, [sp, #12]
10015424:	9c08      	ldr	r4, [sp, #32]
10015426:	f8dd b008 	ldr.w	fp, [sp, #8]
1001542a:	2601      	movs	r6, #1
1001542c:	e007      	b.n	1001543e <_dtoa_r+0x6ae>
1001542e:	4651      	mov	r1, sl
10015430:	2300      	movs	r3, #0
10015432:	220a      	movs	r2, #10
10015434:	4658      	mov	r0, fp
10015436:	f004 fcc7 	bl	10019dc8 <__multadd>
1001543a:	3601      	adds	r6, #1
1001543c:	4682      	mov	sl, r0
1001543e:	4649      	mov	r1, r9
10015440:	4650      	mov	r0, sl
10015442:	f7ff fc0f 	bl	10014c64 <quorem>
10015446:	42a6      	cmp	r6, r4
10015448:	f100 0330 	add.w	r3, r0, #48	@ 0x30
1001544c:	f808 3b01 	strb.w	r3, [r8], #1
10015450:	dbed      	blt.n	1001542e <_dtoa_r+0x69e>
10015452:	9a08      	ldr	r2, [sp, #32]
10015454:	2a00      	cmp	r2, #0
10015456:	bfc8      	it	gt
10015458:	4616      	movgt	r6, r2
1001545a:	9a03      	ldr	r2, [sp, #12]
1001545c:	bfd8      	it	le
1001545e:	2601      	movle	r6, #1
10015460:	eb02 0b06 	add.w	fp, r2, r6
10015464:	2400      	movs	r4, #0
10015466:	4651      	mov	r1, sl
10015468:	2201      	movs	r2, #1
1001546a:	9802      	ldr	r0, [sp, #8]
1001546c:	9304      	str	r3, [sp, #16]
1001546e:	f004 fe8b 	bl	1001a188 <__lshift>
10015472:	4649      	mov	r1, r9
10015474:	4682      	mov	sl, r0
10015476:	f004 feff 	bl	1001a278 <__mcmp>
1001547a:	2800      	cmp	r0, #0
1001547c:	f340 81e3 	ble.w	10015846 <_dtoa_r+0xab6>
10015480:	9a03      	ldr	r2, [sp, #12]
10015482:	e002      	b.n	1001548a <_dtoa_r+0x6fa>
10015484:	455a      	cmp	r2, fp
10015486:	f000 81e9 	beq.w	1001585c <_dtoa_r+0xacc>
1001548a:	465e      	mov	r6, fp
1001548c:	f10b 3bff 	add.w	fp, fp, #4294967295	@ 0xffffffff
10015490:	f816 3c01 	ldrb.w	r3, [r6, #-1]
10015494:	2b39      	cmp	r3, #57	@ 0x39
10015496:	d0f5      	beq.n	10015484 <_dtoa_r+0x6f4>
10015498:	3301      	adds	r3, #1
1001549a:	f88b 3000 	strb.w	r3, [fp]
1001549e:	f8dd 8008 	ldr.w	r8, [sp, #8]
100154a2:	4649      	mov	r1, r9
100154a4:	4640      	mov	r0, r8
100154a6:	f004 fc85 	bl	10019db4 <_Bfree>
100154aa:	b157      	cbz	r7, 100154c2 <_dtoa_r+0x732>
100154ac:	b12c      	cbz	r4, 100154ba <_dtoa_r+0x72a>
100154ae:	42bc      	cmp	r4, r7
100154b0:	d003      	beq.n	100154ba <_dtoa_r+0x72a>
100154b2:	4621      	mov	r1, r4
100154b4:	4640      	mov	r0, r8
100154b6:	f004 fc7d 	bl	10019db4 <_Bfree>
100154ba:	9802      	ldr	r0, [sp, #8]
100154bc:	4639      	mov	r1, r7
100154be:	f004 fc79 	bl	10019db4 <_Bfree>
100154c2:	9802      	ldr	r0, [sp, #8]
100154c4:	4651      	mov	r1, sl
100154c6:	f004 fc75 	bl	10019db4 <_Bfree>
100154ca:	2300      	movs	r3, #0
100154cc:	7033      	strb	r3, [r6, #0]
100154ce:	9b28      	ldr	r3, [sp, #160]	@ 0xa0
100154d0:	601d      	str	r5, [r3, #0]
100154d2:	9b2a      	ldr	r3, [sp, #168]	@ 0xa8
100154d4:	2b00      	cmp	r3, #0
100154d6:	f43f ac96 	beq.w	10014e06 <_dtoa_r+0x76>
100154da:	9803      	ldr	r0, [sp, #12]
100154dc:	601e      	str	r6, [r3, #0]
100154de:	b01d      	add	sp, #116	@ 0x74
100154e0:	e8bd 8ff0 	ldmia.w	sp!, {r4, r5, r6, r7, r8, r9, sl, fp, pc}
100154e4:	4658      	mov	r0, fp
100154e6:	f005 fb59 	bl	1001ab9c <__aeabi_i2d>
100154ea:	4632      	mov	r2, r6
100154ec:	463b      	mov	r3, r7
100154ee:	f005 fe27 	bl	1001b140 <__aeabi_dcmpeq>
100154f2:	2800      	cmp	r0, #0
100154f4:	f47f acde 	bne.w	10014eb4 <_dtoa_r+0x124>
100154f8:	f10b 3bff 	add.w	fp, fp, #4294967295	@ 0xffffffff
100154fc:	e4da      	b.n	10014eb4 <_dtoa_r+0x124>
100154fe:	231c      	movs	r3, #28
10015500:	9a09      	ldr	r2, [sp, #36]	@ 0x24
10015502:	441a      	add	r2, r3
10015504:	9209      	str	r2, [sp, #36]	@ 0x24
10015506:	441e      	add	r6, r3
10015508:	441c      	add	r4, r3
1001550a:	e76a      	b.n	100153e2 <_dtoa_r+0x652>
1001550c:	9a26      	ldr	r2, [sp, #152]	@ 0x98
1001550e:	2a01      	cmp	r2, #1
10015510:	f340 81a9 	ble.w	10015866 <_dtoa_r+0xad6>
10015514:	9b08      	ldr	r3, [sp, #32]
10015516:	9a0d      	ldr	r2, [sp, #52]	@ 0x34
10015518:	1e5d      	subs	r5, r3, #1
1001551a:	42aa      	cmp	r2, r5
1001551c:	f2c0 816b 	blt.w	100157f6 <_dtoa_r+0xa66>
10015520:	2b00      	cmp	r3, #0
10015522:	eba2 0505 	sub.w	r5, r2, r5
10015526:	f280 82dd 	bge.w	10015ae4 <_dtoa_r+0xd54>
1001552a:	e9dd 2308 	ldrd	r2, r3, [sp, #32]
1001552e:	1a9e      	subs	r6, r3, r2
10015530:	9802      	ldr	r0, [sp, #8]
10015532:	2101      	movs	r1, #1
10015534:	f004 fcea 	bl	10019f0c <__i2b>
10015538:	4607      	mov	r7, r0
1001553a:	e71a      	b.n	10015372 <_dtoa_r+0x5e2>
1001553c:	f1c3 0320 	rsb	r3, r3, #32
10015540:	fa06 f003 	lsl.w	r0, r6, r3
10015544:	e483      	b.n	10014e4e <_dtoa_r+0xbe>
10015546:	2501      	movs	r5, #1
10015548:	e4e6      	b.n	10014f18 <_dtoa_r+0x188>
1001554a:	4639      	mov	r1, r7
1001554c:	2300      	movs	r3, #0
1001554e:	9802      	ldr	r0, [sp, #8]
10015550:	220a      	movs	r2, #10
10015552:	f004 fc39 	bl	10019dc8 <__multadd>
10015556:	9b16      	ldr	r3, [sp, #88]	@ 0x58
10015558:	2b00      	cmp	r3, #0
1001555a:	4607      	mov	r7, r0
1001555c:	f340 82ef 	ble.w	10015b3e <_dtoa_r+0xdae>
10015560:	950c      	str	r5, [sp, #48]	@ 0x30
10015562:	9308      	str	r3, [sp, #32]
10015564:	2e00      	cmp	r6, #0
10015566:	f300 813f 	bgt.w	100157e8 <_dtoa_r+0xa58>
1001556a:	f1bb 0f00 	cmp.w	fp, #0
1001556e:	f040 81df 	bne.w	10015930 <_dtoa_r+0xba0>
10015572:	46b8      	mov	r8, r7
10015574:	9e03      	ldr	r6, [sp, #12]
10015576:	9c08      	ldr	r4, [sp, #32]
10015578:	1e73      	subs	r3, r6, #1
1001557a:	441c      	add	r4, r3
1001557c:	9b04      	ldr	r3, [sp, #16]
1001557e:	940a      	str	r4, [sp, #40]	@ 0x28
10015580:	f003 0301 	and.w	r3, r3, #1
10015584:	9c02      	ldr	r4, [sp, #8]
10015586:	930d      	str	r3, [sp, #52]	@ 0x34
10015588:	4649      	mov	r1, r9
1001558a:	4650      	mov	r0, sl
1001558c:	f7ff fb6a 	bl	10014c64 <quorem>
10015590:	4639      	mov	r1, r7
10015592:	4683      	mov	fp, r0
10015594:	4650      	mov	r0, sl
10015596:	f004 fe6f 	bl	1001a278 <__mcmp>
1001559a:	4642      	mov	r2, r8
1001559c:	4649      	mov	r1, r9
1001559e:	4605      	mov	r5, r0
100155a0:	4620      	mov	r0, r4
100155a2:	f004 fe8b 	bl	1001a2bc <__mdiff>
100155a6:	68c2      	ldr	r2, [r0, #12]
100155a8:	4601      	mov	r1, r0
100155aa:	f10b 0330 	add.w	r3, fp, #48	@ 0x30
100155ae:	2a00      	cmp	r2, #0
100155b0:	d13a      	bne.n	10015628 <_dtoa_r+0x898>
100155b2:	e9cd 0308 	strd	r0, r3, [sp, #32]
100155b6:	4650      	mov	r0, sl
100155b8:	f004 fe5e 	bl	1001a278 <__mcmp>
100155bc:	9908      	ldr	r1, [sp, #32]
100155be:	9006      	str	r0, [sp, #24]
100155c0:	4620      	mov	r0, r4
100155c2:	f004 fbf7 	bl	10019db4 <_Bfree>
100155c6:	9a06      	ldr	r2, [sp, #24]
100155c8:	9b09      	ldr	r3, [sp, #36]	@ 0x24
100155ca:	2a00      	cmp	r2, #0
100155cc:	d15a      	bne.n	10015684 <_dtoa_r+0x8f4>
100155ce:	9a26      	ldr	r2, [sp, #152]	@ 0x98
100155d0:	b91a      	cbnz	r2, 100155da <_dtoa_r+0x84a>
100155d2:	9a0d      	ldr	r2, [sp, #52]	@ 0x34
100155d4:	2a00      	cmp	r2, #0
100155d6:	f000 829a 	beq.w	10015b0e <_dtoa_r+0xd7e>
100155da:	2d00      	cmp	r5, #0
100155dc:	db45      	blt.n	1001566a <_dtoa_r+0x8da>
100155de:	9a0a      	ldr	r2, [sp, #40]	@ 0x28
100155e0:	46b3      	mov	fp, r6
100155e2:	42b2      	cmp	r2, r6
100155e4:	f80b 3b01 	strb.w	r3, [fp], #1
100155e8:	f000 81b9 	beq.w	1001595e <_dtoa_r+0xbce>
100155ec:	4651      	mov	r1, sl
100155ee:	2300      	movs	r3, #0
100155f0:	220a      	movs	r2, #10
100155f2:	4620      	mov	r0, r4
100155f4:	f004 fbe8 	bl	10019dc8 <__multadd>
100155f8:	4547      	cmp	r7, r8
100155fa:	4682      	mov	sl, r0
100155fc:	4639      	mov	r1, r7
100155fe:	f04f 0300 	mov.w	r3, #0
10015602:	f04f 020a 	mov.w	r2, #10
10015606:	4620      	mov	r0, r4
10015608:	d036      	beq.n	10015678 <_dtoa_r+0x8e8>
1001560a:	f004 fbdd 	bl	10019dc8 <__multadd>
1001560e:	4641      	mov	r1, r8
10015610:	4607      	mov	r7, r0
10015612:	2300      	movs	r3, #0
10015614:	220a      	movs	r2, #10
10015616:	4620      	mov	r0, r4
10015618:	f004 fbd6 	bl	10019dc8 <__multadd>
1001561c:	465e      	mov	r6, fp
1001561e:	4680      	mov	r8, r0
10015620:	e7b2      	b.n	10015588 <_dtoa_r+0x7f8>
10015622:	bf00      	nop
10015624:	40240000 	.word	0x40240000
10015628:	9802      	ldr	r0, [sp, #8]
1001562a:	9306      	str	r3, [sp, #24]
1001562c:	f004 fbc2 	bl	10019db4 <_Bfree>
10015630:	2d00      	cmp	r5, #0
10015632:	9b06      	ldr	r3, [sp, #24]
10015634:	db06      	blt.n	10015644 <_dtoa_r+0x8b4>
10015636:	9a04      	ldr	r2, [sp, #16]
10015638:	9926      	ldr	r1, [sp, #152]	@ 0x98
1001563a:	f002 0201 	and.w	r2, r2, #1
1001563e:	430d      	orrs	r5, r1
10015640:	432a      	orrs	r2, r5
10015642:	d12a      	bne.n	1001569a <_dtoa_r+0x90a>
10015644:	4651      	mov	r1, sl
10015646:	2201      	movs	r2, #1
10015648:	9802      	ldr	r0, [sp, #8]
1001564a:	9304      	str	r3, [sp, #16]
1001564c:	f004 fd9c 	bl	1001a188 <__lshift>
10015650:	4649      	mov	r1, r9
10015652:	4682      	mov	sl, r0
10015654:	f004 fe10 	bl	1001a278 <__mcmp>
10015658:	2800      	cmp	r0, #0
1001565a:	9b04      	ldr	r3, [sp, #16]
1001565c:	f340 80e8 	ble.w	10015830 <_dtoa_r+0xaa0>
10015660:	2b39      	cmp	r3, #57	@ 0x39
10015662:	f000 822f 	beq.w	10015ac4 <_dtoa_r+0xd34>
10015666:	f10b 0331 	add.w	r3, fp, #49	@ 0x31
1001566a:	9d0c      	ldr	r5, [sp, #48]	@ 0x30
1001566c:	f806 3b01 	strb.w	r3, [r6], #1
10015670:	463c      	mov	r4, r7
10015672:	3501      	adds	r5, #1
10015674:	4647      	mov	r7, r8
10015676:	e712      	b.n	1001549e <_dtoa_r+0x70e>
10015678:	f004 fba6 	bl	10019dc8 <__multadd>
1001567c:	465e      	mov	r6, fp
1001567e:	4607      	mov	r7, r0
10015680:	4680      	mov	r8, r0
10015682:	e781      	b.n	10015588 <_dtoa_r+0x7f8>
10015684:	2d00      	cmp	r5, #0
10015686:	f2c0 827d 	blt.w	10015b84 <_dtoa_r+0xdf4>
1001568a:	9926      	ldr	r1, [sp, #152]	@ 0x98
1001568c:	430d      	orrs	r5, r1
1001568e:	990d      	ldr	r1, [sp, #52]	@ 0x34
10015690:	430d      	orrs	r5, r1
10015692:	f000 8277 	beq.w	10015b84 <_dtoa_r+0xdf4>
10015696:	2a00      	cmp	r2, #0
10015698:	dda1      	ble.n	100155de <_dtoa_r+0x84e>
1001569a:	2b39      	cmp	r3, #57	@ 0x39
1001569c:	f000 8212 	beq.w	10015ac4 <_dtoa_r+0xd34>
100156a0:	3301      	adds	r3, #1
100156a2:	e7e2      	b.n	1001566a <_dtoa_r+0x8da>
100156a4:	9b26      	ldr	r3, [sp, #152]	@ 0x98
100156a6:	2b02      	cmp	r3, #2
100156a8:	f77f aeb4 	ble.w	10015414 <_dtoa_r+0x684>
100156ac:	9b08      	ldr	r3, [sp, #32]
100156ae:	2b00      	cmp	r3, #0
100156b0:	f040 811d 	bne.w	100158ee <_dtoa_r+0xb5e>
100156b4:	4649      	mov	r1, r9
100156b6:	2205      	movs	r2, #5
100156b8:	9802      	ldr	r0, [sp, #8]
100156ba:	f004 fb85 	bl	10019dc8 <__multadd>
100156be:	4601      	mov	r1, r0
100156c0:	4681      	mov	r9, r0
100156c2:	4650      	mov	r0, sl
100156c4:	f004 fdd8 	bl	1001a278 <__mcmp>
100156c8:	2800      	cmp	r0, #0
100156ca:	f340 8110 	ble.w	100158ee <_dtoa_r+0xb5e>
100156ce:	9e03      	ldr	r6, [sp, #12]
100156d0:	9d0c      	ldr	r5, [sp, #48]	@ 0x30
100156d2:	2331      	movs	r3, #49	@ 0x31
100156d4:	f806 3b01 	strb.w	r3, [r6], #1
100156d8:	3501      	adds	r5, #1
100156da:	9802      	ldr	r0, [sp, #8]
100156dc:	4649      	mov	r1, r9
100156de:	3501      	adds	r5, #1
100156e0:	f004 fb68 	bl	10019db4 <_Bfree>
100156e4:	2f00      	cmp	r7, #0
100156e6:	f47f aee8 	bne.w	100154ba <_dtoa_r+0x72a>
100156ea:	e6ea      	b.n	100154c2 <_dtoa_r+0x732>
100156ec:	4649      	mov	r1, r9
100156ee:	4650      	mov	r0, sl
100156f0:	f004 fdc2 	bl	1001a278 <__mcmp>
100156f4:	2800      	cmp	r0, #0
100156f6:	f6bf ae89 	bge.w	1001540c <_dtoa_r+0x67c>
100156fa:	4651      	mov	r1, sl
100156fc:	2300      	movs	r3, #0
100156fe:	9802      	ldr	r0, [sp, #8]
10015700:	220a      	movs	r2, #10
10015702:	f004 fb61 	bl	10019dc8 <__multadd>
10015706:	9b0c      	ldr	r3, [sp, #48]	@ 0x30
10015708:	1e5d      	subs	r5, r3, #1
1001570a:	9b0a      	ldr	r3, [sp, #40]	@ 0x28
1001570c:	4682      	mov	sl, r0
1001570e:	2b00      	cmp	r3, #0
10015710:	f47f af1b 	bne.w	1001554a <_dtoa_r+0x7ba>
10015714:	9b16      	ldr	r3, [sp, #88]	@ 0x58
10015716:	2b00      	cmp	r3, #0
10015718:	f340 81ff 	ble.w	10015b1a <_dtoa_r+0xd8a>
1001571c:	9d0c      	ldr	r5, [sp, #48]	@ 0x30
1001571e:	9308      	str	r3, [sp, #32]
10015720:	e67e      	b.n	10015420 <_dtoa_r+0x690>
10015722:	4601      	mov	r1, r0
10015724:	465a      	mov	r2, fp
10015726:	9802      	ldr	r0, [sp, #8]
10015728:	f004 fcd4 	bl	1001a0d4 <__pow5mult>
1001572c:	9b26      	ldr	r3, [sp, #152]	@ 0x98
1001572e:	2b01      	cmp	r3, #1
10015730:	4681      	mov	r9, r0
10015732:	dd6c      	ble.n	1001580e <_dtoa_r+0xa7e>
10015734:	f04f 0b00 	mov.w	fp, #0
10015738:	f8d9 3010 	ldr.w	r3, [r9, #16]
1001573c:	eb09 0383 	add.w	r3, r9, r3, lsl #2
10015740:	6918      	ldr	r0, [r3, #16]
10015742:	f004 fb91 	bl	10019e68 <__hi0bits>
10015746:	f1c0 0020 	rsb	r0, r0, #32
1001574a:	e639      	b.n	100153c0 <_dtoa_r+0x630>
1001574c:	4b92      	ldr	r3, [pc, #584]	@ (10015998 <_dtoa_r+0xc08>)
1001574e:	9303      	str	r3, [sp, #12]
10015750:	3303      	adds	r3, #3
10015752:	f7ff bbfc 	b.w	10014f4e <_dtoa_r+0x1be>
10015756:	9b04      	ldr	r3, [sp, #16]
10015758:	2b00      	cmp	r3, #0
1001575a:	f47f ae30 	bne.w	100153be <_dtoa_r+0x62e>
1001575e:	e9dd 1204 	ldrd	r1, r2, [sp, #16]
10015762:	f3c2 0313 	ubfx	r3, r2, #0, #20
10015766:	2b00      	cmp	r3, #0
10015768:	f47f ae29 	bne.w	100153be <_dtoa_r+0x62e>
1001576c:	4b8b      	ldr	r3, [pc, #556]	@ (1001599c <_dtoa_r+0xc0c>)
1001576e:	4013      	ands	r3, r2
10015770:	b123      	cbz	r3, 1001577c <_dtoa_r+0x9ec>
10015772:	9b09      	ldr	r3, [sp, #36]	@ 0x24
10015774:	3301      	adds	r3, #1
10015776:	9309      	str	r3, [sp, #36]	@ 0x24
10015778:	3401      	adds	r4, #1
1001577a:	2301      	movs	r3, #1
1001577c:	f1bb 0f00 	cmp.w	fp, #0
10015780:	f040 81ae 	bne.w	10015ae0 <_dtoa_r+0xd50>
10015784:	469b      	mov	fp, r3
10015786:	e61a      	b.n	100153be <_dtoa_r+0x62e>
10015788:	f43f ae2b 	beq.w	100153e2 <_dtoa_r+0x652>
1001578c:	f1c0 033c 	rsb	r3, r0, #60	@ 0x3c
10015790:	e6b6      	b.n	10015500 <_dtoa_r+0x770>
10015792:	2301      	movs	r3, #1
10015794:	930a      	str	r3, [sp, #40]	@ 0x28
10015796:	9b27      	ldr	r3, [sp, #156]	@ 0x9c
10015798:	9a0c      	ldr	r2, [sp, #48]	@ 0x30
1001579a:	4413      	add	r3, r2
1001579c:	9316      	str	r3, [sp, #88]	@ 0x58
1001579e:	3301      	adds	r3, #1
100157a0:	2b01      	cmp	r3, #1
100157a2:	461e      	mov	r6, r3
100157a4:	9308      	str	r3, [sp, #32]
100157a6:	bfb8      	it	lt
100157a8:	2601      	movlt	r6, #1
100157aa:	2e17      	cmp	r6, #23
100157ac:	f340 81d5 	ble.w	10015b5a <_dtoa_r+0xdca>
100157b0:	2201      	movs	r2, #1
100157b2:	2304      	movs	r3, #4
100157b4:	005b      	lsls	r3, r3, #1
100157b6:	f103 0014 	add.w	r0, r3, #20
100157ba:	42b0      	cmp	r0, r6
100157bc:	4611      	mov	r1, r2
100157be:	f102 0201 	add.w	r2, r2, #1
100157c2:	d9f7      	bls.n	100157b4 <_dtoa_r+0xa24>
100157c4:	9b02      	ldr	r3, [sp, #8]
100157c6:	63d9      	str	r1, [r3, #60]	@ 0x3c
100157c8:	e413      	b.n	10014ff2 <_dtoa_r+0x262>
100157ca:	2301      	movs	r3, #1
100157cc:	930a      	str	r3, [sp, #40]	@ 0x28
100157ce:	9b27      	ldr	r3, [sp, #156]	@ 0x9c
100157d0:	2b00      	cmp	r3, #0
100157d2:	dd33      	ble.n	1001583c <_dtoa_r+0xaac>
100157d4:	9316      	str	r3, [sp, #88]	@ 0x58
100157d6:	9308      	str	r3, [sp, #32]
100157d8:	461e      	mov	r6, r3
100157da:	e7e6      	b.n	100157aa <_dtoa_r+0xa1a>
100157dc:	2300      	movs	r3, #0
100157de:	930a      	str	r3, [sp, #40]	@ 0x28
100157e0:	e7d9      	b.n	10015796 <_dtoa_r+0xa06>
100157e2:	2300      	movs	r3, #0
100157e4:	930a      	str	r3, [sp, #40]	@ 0x28
100157e6:	e7f2      	b.n	100157ce <_dtoa_r+0xa3e>
100157e8:	4639      	mov	r1, r7
100157ea:	9802      	ldr	r0, [sp, #8]
100157ec:	4632      	mov	r2, r6
100157ee:	f004 fccb 	bl	1001a188 <__lshift>
100157f2:	4607      	mov	r7, r0
100157f4:	e6b9      	b.n	1001556a <_dtoa_r+0x7da>
100157f6:	9b0d      	ldr	r3, [sp, #52]	@ 0x34
100157f8:	9a09      	ldr	r2, [sp, #36]	@ 0x24
100157fa:	950d      	str	r5, [sp, #52]	@ 0x34
100157fc:	1aeb      	subs	r3, r5, r3
100157fe:	449b      	add	fp, r3
10015800:	9b08      	ldr	r3, [sp, #32]
10015802:	4616      	mov	r6, r2
10015804:	441a      	add	r2, r3
10015806:	441c      	add	r4, r3
10015808:	9209      	str	r2, [sp, #36]	@ 0x24
1001580a:	2500      	movs	r5, #0
1001580c:	e690      	b.n	10015530 <_dtoa_r+0x7a0>
1001580e:	9b04      	ldr	r3, [sp, #16]
10015810:	2b00      	cmp	r3, #0
10015812:	d18f      	bne.n	10015734 <_dtoa_r+0x9a4>
10015814:	e9dd 0104 	ldrd	r0, r1, [sp, #16]
10015818:	f3c1 0313 	ubfx	r3, r1, #0, #20
1001581c:	460a      	mov	r2, r1
1001581e:	2b00      	cmp	r3, #0
10015820:	d188      	bne.n	10015734 <_dtoa_r+0x9a4>
10015822:	e7a3      	b.n	1001576c <_dtoa_r+0x9dc>
10015824:	ed9d 7b06 	vldr	d7, [sp, #24]
10015828:	2702      	movs	r7, #2
1001582a:	ed8d 7b10 	vstr	d7, [sp, #64]	@ 0x40
1001582e:	e40c      	b.n	1001504a <_dtoa_r+0x2ba>
10015830:	f47f af1b 	bne.w	1001566a <_dtoa_r+0x8da>
10015834:	07da      	lsls	r2, r3, #31
10015836:	f57f af18 	bpl.w	1001566a <_dtoa_r+0x8da>
1001583a:	e711      	b.n	10015660 <_dtoa_r+0x8d0>
1001583c:	2301      	movs	r3, #1
1001583e:	9327      	str	r3, [sp, #156]	@ 0x9c
10015840:	9308      	str	r3, [sp, #32]
10015842:	f7ff bbd1 	b.w	10014fe8 <_dtoa_r+0x258>
10015846:	d103      	bne.n	10015850 <_dtoa_r+0xac0>
10015848:	9b04      	ldr	r3, [sp, #16]
1001584a:	07db      	lsls	r3, r3, #31
1001584c:	f53f ae18 	bmi.w	10015480 <_dtoa_r+0x6f0>
10015850:	465e      	mov	r6, fp
10015852:	f81b 3d01 	ldrb.w	r3, [fp, #-1]!
10015856:	2b30      	cmp	r3, #48	@ 0x30
10015858:	d0fa      	beq.n	10015850 <_dtoa_r+0xac0>
1001585a:	e620      	b.n	1001549e <_dtoa_r+0x70e>
1001585c:	9a03      	ldr	r2, [sp, #12]
1001585e:	2331      	movs	r3, #49	@ 0x31
10015860:	3501      	adds	r5, #1
10015862:	7013      	strb	r3, [r2, #0]
10015864:	e61b      	b.n	1001549e <_dtoa_r+0x70e>
10015866:	9a0f      	ldr	r2, [sp, #60]	@ 0x3c
10015868:	2a00      	cmp	r2, #0
1001586a:	f000 80f9 	beq.w	10015a60 <_dtoa_r+0xcd0>
1001586e:	f203 4333 	addw	r3, r3, #1075	@ 0x433
10015872:	9a09      	ldr	r2, [sp, #36]	@ 0x24
10015874:	9d0d      	ldr	r5, [sp, #52]	@ 0x34
10015876:	4616      	mov	r6, r2
10015878:	441a      	add	r2, r3
1001587a:	441c      	add	r4, r3
1001587c:	9209      	str	r2, [sp, #36]	@ 0x24
1001587e:	e657      	b.n	10015530 <_dtoa_r+0x7a0>
10015880:	f1c8 0301 	rsb	r3, r8, #1
10015884:	4604      	mov	r4, r0
10015886:	9309      	str	r3, [sp, #36]	@ 0x24
10015888:	900e      	str	r0, [sp, #56]	@ 0x38
1001588a:	f7ff bb9d 	b.w	10014fc8 <_dtoa_r+0x238>
1001588e:	f000 80eb 	beq.w	10015a68 <_dtoa_r+0xcd8>
10015892:	9b0c      	ldr	r3, [sp, #48]	@ 0x30
10015894:	4d42      	ldr	r5, [pc, #264]	@ (100159a0 <_dtoa_r+0xc10>)
10015896:	425e      	negs	r6, r3
10015898:	f006 030f 	and.w	r3, r6, #15
1001589c:	eb05 03c3 	add.w	r3, r5, r3, lsl #3
100158a0:	e9d3 2300 	ldrd	r2, r3, [r3]
100158a4:	e9dd 0106 	ldrd	r0, r1, [sp, #24]
100158a8:	f005 f9e2 	bl	1001ac70 <__aeabi_dmul>
100158ac:	1135      	asrs	r5, r6, #4
100158ae:	e9cd 0110 	strd	r0, r1, [sp, #64]	@ 0x40
100158b2:	f000 814d 	beq.w	10015b50 <_dtoa_r+0xdc0>
100158b6:	4e3b      	ldr	r6, [pc, #236]	@ (100159a4 <_dtoa_r+0xc14>)
100158b8:	2300      	movs	r3, #0
100158ba:	2702      	movs	r7, #2
100158bc:	4680      	mov	r8, r0
100158be:	4689      	mov	r9, r1
100158c0:	07e8      	lsls	r0, r5, #31
100158c2:	d509      	bpl.n	100158d8 <_dtoa_r+0xb48>
100158c4:	e9d6 2300 	ldrd	r2, r3, [r6]
100158c8:	4640      	mov	r0, r8
100158ca:	4649      	mov	r1, r9
100158cc:	f005 f9d0 	bl	1001ac70 <__aeabi_dmul>
100158d0:	3701      	adds	r7, #1
100158d2:	4680      	mov	r8, r0
100158d4:	4689      	mov	r9, r1
100158d6:	2301      	movs	r3, #1
100158d8:	106d      	asrs	r5, r5, #1
100158da:	f106 0608 	add.w	r6, r6, #8
100158de:	d1ef      	bne.n	100158c0 <_dtoa_r+0xb30>
100158e0:	2b00      	cmp	r3, #0
100158e2:	f47f abcb 	bne.w	1001507c <_dtoa_r+0x2ec>
100158e6:	e9dd 8910 	ldrd	r8, r9, [sp, #64]	@ 0x40
100158ea:	f7ff bbc7 	b.w	1001507c <_dtoa_r+0x2ec>
100158ee:	9e03      	ldr	r6, [sp, #12]
100158f0:	e4cb      	b.n	1001528a <_dtoa_r+0x4fa>
100158f2:	f8dd a018 	ldr.w	sl, [sp, #24]
100158f6:	9d0c      	ldr	r5, [sp, #48]	@ 0x30
100158f8:	4602      	mov	r2, r0
100158fa:	460b      	mov	r3, r1
100158fc:	f005 f802 	bl	1001a904 <__adddf3>
10015900:	4602      	mov	r2, r0
10015902:	460b      	mov	r3, r1
10015904:	e9cd 2306 	strd	r2, r3, [sp, #24]
10015908:	3501      	adds	r5, #1
1001590a:	e9dd 2304 	ldrd	r2, r3, [sp, #16]
1001590e:	46a8      	mov	r8, r5
10015910:	f005 fc3e 	bl	1001b190 <__aeabi_dcmpgt>
10015914:	b940      	cbnz	r0, 10015928 <_dtoa_r+0xb98>
10015916:	e9dd 2304 	ldrd	r2, r3, [sp, #16]
1001591a:	e9dd 0106 	ldrd	r0, r1, [sp, #24]
1001591e:	f005 fc0f 	bl	1001b140 <__aeabi_dcmpeq>
10015922:	b118      	cbz	r0, 1001592c <_dtoa_r+0xb9c>
10015924:	07f1      	lsls	r1, r6, #31
10015926:	d501      	bpl.n	1001592c <_dtoa_r+0xb9c>
10015928:	9a03      	ldr	r2, [sp, #12]
1001592a:	e44b      	b.n	100151c4 <_dtoa_r+0x434>
1001592c:	463e      	mov	r6, r7
1001592e:	e5c8      	b.n	100154c2 <_dtoa_r+0x732>
10015930:	6879      	ldr	r1, [r7, #4]
10015932:	9802      	ldr	r0, [sp, #8]
10015934:	f004 fa18 	bl	10019d68 <_Balloc>
10015938:	4605      	mov	r5, r0
1001593a:	2800      	cmp	r0, #0
1001593c:	f000 8126 	beq.w	10015b8c <_dtoa_r+0xdfc>
10015940:	693b      	ldr	r3, [r7, #16]
10015942:	3302      	adds	r3, #2
10015944:	009a      	lsls	r2, r3, #2
10015946:	f107 010c 	add.w	r1, r7, #12
1001594a:	300c      	adds	r0, #12
1001594c:	f000 fb38 	bl	10015fc0 <memcpy>
10015950:	9802      	ldr	r0, [sp, #8]
10015952:	4629      	mov	r1, r5
10015954:	2201      	movs	r2, #1
10015956:	f004 fc17 	bl	1001a188 <__lshift>
1001595a:	4680      	mov	r8, r0
1001595c:	e60a      	b.n	10015574 <_dtoa_r+0x7e4>
1001595e:	9d0c      	ldr	r5, [sp, #48]	@ 0x30
10015960:	463c      	mov	r4, r7
10015962:	3501      	adds	r5, #1
10015964:	4647      	mov	r7, r8
10015966:	e57e      	b.n	10015466 <_dtoa_r+0x6d6>
10015968:	f8dd 8008 	ldr.w	r8, [sp, #8]
1001596c:	4639      	mov	r1, r7
1001596e:	462a      	mov	r2, r5
10015970:	4640      	mov	r0, r8
10015972:	f004 fbaf 	bl	1001a0d4 <__pow5mult>
10015976:	4652      	mov	r2, sl
10015978:	4601      	mov	r1, r0
1001597a:	4607      	mov	r7, r0
1001597c:	4640      	mov	r0, r8
1001597e:	f004 faf3 	bl	10019f68 <__multiply>
10015982:	4651      	mov	r1, sl
10015984:	4682      	mov	sl, r0
10015986:	4640      	mov	r0, r8
10015988:	f004 fa14 	bl	10019db4 <_Bfree>
1001598c:	9b0d      	ldr	r3, [sp, #52]	@ 0x34
1001598e:	1b5b      	subs	r3, r3, r5
10015990:	930d      	str	r3, [sp, #52]	@ 0x34
10015992:	f43f ad07 	beq.w	100153a4 <_dtoa_r+0x614>
10015996:	e4ff      	b.n	10015398 <_dtoa_r+0x608>
10015998:	1001d9d4 	.word	0x1001d9d4
1001599c:	7ff00000 	.word	0x7ff00000
100159a0:	1001dc60 	.word	0x1001dc60
100159a4:	1001dc38 	.word	0x1001dc38
100159a8:	e9dd 0112 	ldrd	r0, r1, [sp, #72]	@ 0x48
100159ac:	f005 f960 	bl	1001ac70 <__aeabi_dmul>
100159b0:	9b03      	ldr	r3, [sp, #12]
100159b2:	701f      	strb	r7, [r3, #0]
100159b4:	9b10      	ldr	r3, [sp, #64]	@ 0x40
100159b6:	2b01      	cmp	r3, #1
100159b8:	e9cd 010a 	strd	r0, r1, [sp, #40]	@ 0x28
100159bc:	f000 80c6 	beq.w	10015b4c <_dtoa_r+0xdbc>
100159c0:	9f10      	ldr	r7, [sp, #64]	@ 0x40
100159c2:	9b03      	ldr	r3, [sp, #12]
100159c4:	f8cd b03c 	str.w	fp, [sp, #60]	@ 0x3c
100159c8:	441f      	add	r7, r3
100159ca:	4b7c      	ldr	r3, [pc, #496]	@ (10015bbc <_dtoa_r+0xe2c>)
100159cc:	2200      	movs	r2, #0
100159ce:	4640      	mov	r0, r8
100159d0:	4649      	mov	r1, r9
100159d2:	f005 f94d 	bl	1001ac70 <__aeabi_dmul>
100159d6:	4689      	mov	r9, r1
100159d8:	4680      	mov	r8, r0
100159da:	f005 fbf9 	bl	1001b1d0 <__aeabi_d2iz>
100159de:	4683      	mov	fp, r0
100159e0:	f005 f8dc 	bl	1001ab9c <__aeabi_i2d>
100159e4:	f10b 0b30 	add.w	fp, fp, #48	@ 0x30
100159e8:	4602      	mov	r2, r0
100159ea:	460b      	mov	r3, r1
100159ec:	4640      	mov	r0, r8
100159ee:	4649      	mov	r1, r9
100159f0:	f004 ff86 	bl	1001a900 <__aeabi_dsub>
100159f4:	f806 bb01 	strb.w	fp, [r6], #1
100159f8:	42b7      	cmp	r7, r6
100159fa:	4680      	mov	r8, r0
100159fc:	4689      	mov	r9, r1
100159fe:	d1e4      	bne.n	100159ca <_dtoa_r+0xc3a>
10015a00:	f8dd b03c 	ldr.w	fp, [sp, #60]	@ 0x3c
10015a04:	4b6e      	ldr	r3, [pc, #440]	@ (10015bc0 <_dtoa_r+0xe30>)
10015a06:	2200      	movs	r2, #0
10015a08:	e9dd 010a 	ldrd	r0, r1, [sp, #40]	@ 0x28
10015a0c:	f004 ff7a 	bl	1001a904 <__adddf3>
10015a10:	4602      	mov	r2, r0
10015a12:	460b      	mov	r3, r1
10015a14:	4640      	mov	r0, r8
10015a16:	4649      	mov	r1, r9
10015a18:	f005 fbba 	bl	1001b190 <__aeabi_dcmpgt>
10015a1c:	2800      	cmp	r0, #0
10015a1e:	d167      	bne.n	10015af0 <_dtoa_r+0xd60>
10015a20:	e9dd 230a 	ldrd	r2, r3, [sp, #40]	@ 0x28
10015a24:	4966      	ldr	r1, [pc, #408]	@ (10015bc0 <_dtoa_r+0xe30>)
10015a26:	2000      	movs	r0, #0
10015a28:	f004 ff6a 	bl	1001a900 <__aeabi_dsub>
10015a2c:	4602      	mov	r2, r0
10015a2e:	460b      	mov	r3, r1
10015a30:	4640      	mov	r0, r8
10015a32:	4649      	mov	r1, r9
10015a34:	f005 fb8e 	bl	1001b154 <__aeabi_dcmplt>
10015a38:	b948      	cbnz	r0, 10015a4e <_dtoa_r+0xcbe>
10015a3a:	9b1b      	ldr	r3, [sp, #108]	@ 0x6c
10015a3c:	2b00      	cmp	r3, #0
10015a3e:	f6ff ac93 	blt.w	10015368 <_dtoa_r+0x5d8>
10015a42:	9b0c      	ldr	r3, [sp, #48]	@ 0x30
10015a44:	2b0e      	cmp	r3, #14
10015a46:	f73f ac8f 	bgt.w	10015368 <_dtoa_r+0x5d8>
10015a4a:	f7ff bbfd 	b.w	10015248 <_dtoa_r+0x4b8>
10015a4e:	463e      	mov	r6, r7
10015a50:	3f01      	subs	r7, #1
10015a52:	f816 3c01 	ldrb.w	r3, [r6, #-1]
10015a56:	2b30      	cmp	r3, #48	@ 0x30
10015a58:	d0f9      	beq.n	10015a4e <_dtoa_r+0xcbe>
10015a5a:	9d17      	ldr	r5, [sp, #92]	@ 0x5c
10015a5c:	3501      	adds	r5, #1
10015a5e:	e530      	b.n	100154c2 <_dtoa_r+0x732>
10015a60:	9b1a      	ldr	r3, [sp, #104]	@ 0x68
10015a62:	f1c3 0336 	rsb	r3, r3, #54	@ 0x36
10015a66:	e704      	b.n	10015872 <_dtoa_r+0xae2>
10015a68:	e9dd 8906 	ldrd	r8, r9, [sp, #24]
10015a6c:	2702      	movs	r7, #2
10015a6e:	f7ff bb05 	b.w	1001507c <_dtoa_r+0x2ec>
10015a72:	9b08      	ldr	r3, [sp, #32]
10015a74:	2b00      	cmp	r3, #0
10015a76:	f43f abb9 	beq.w	100151ec <_dtoa_r+0x45c>
10015a7a:	9b16      	ldr	r3, [sp, #88]	@ 0x58
10015a7c:	2b00      	cmp	r3, #0
10015a7e:	f77f abda 	ble.w	10015236 <_dtoa_r+0x4a6>
10015a82:	9a0c      	ldr	r2, [sp, #48]	@ 0x30
10015a84:	9310      	str	r3, [sp, #64]	@ 0x40
10015a86:	3a01      	subs	r2, #1
10015a88:	4b4c      	ldr	r3, [pc, #304]	@ (10015bbc <_dtoa_r+0xe2c>)
10015a8a:	9217      	str	r2, [sp, #92]	@ 0x5c
10015a8c:	4640      	mov	r0, r8
10015a8e:	2200      	movs	r2, #0
10015a90:	4649      	mov	r1, r9
10015a92:	f005 f8ed 	bl	1001ac70 <__aeabi_dmul>
10015a96:	4680      	mov	r8, r0
10015a98:	4689      	mov	r9, r1
10015a9a:	1c78      	adds	r0, r7, #1
10015a9c:	f005 f87e 	bl	1001ab9c <__aeabi_i2d>
10015aa0:	4642      	mov	r2, r8
10015aa2:	464b      	mov	r3, r9
10015aa4:	f005 f8e4 	bl	1001ac70 <__aeabi_dmul>
10015aa8:	4b46      	ldr	r3, [pc, #280]	@ (10015bc4 <_dtoa_r+0xe34>)
10015aaa:	2200      	movs	r2, #0
10015aac:	f004 ff2a 	bl	1001a904 <__adddf3>
10015ab0:	4606      	mov	r6, r0
10015ab2:	f1a1 7750 	sub.w	r7, r1, #54525952	@ 0x3400000
10015ab6:	f7ff bb02 	b.w	100150be <_dtoa_r+0x32e>
10015aba:	f108 0801 	add.w	r8, r8, #1
10015abe:	2331      	movs	r3, #49	@ 0x31
10015ac0:	f7ff bb87 	b.w	100151d2 <_dtoa_r+0x442>
10015ac4:	9d0c      	ldr	r5, [sp, #48]	@ 0x30
10015ac6:	9a03      	ldr	r2, [sp, #12]
10015ac8:	46b3      	mov	fp, r6
10015aca:	2339      	movs	r3, #57	@ 0x39
10015acc:	463c      	mov	r4, r7
10015ace:	f80b 3b01 	strb.w	r3, [fp], #1
10015ad2:	3501      	adds	r5, #1
10015ad4:	4647      	mov	r7, r8
10015ad6:	e4d8      	b.n	1001548a <_dtoa_r+0x6fa>
10015ad8:	f04f 0900 	mov.w	r9, #0
10015adc:	464f      	mov	r7, r9
10015ade:	e5f6      	b.n	100156ce <_dtoa_r+0x93e>
10015ae0:	469b      	mov	fp, r3
10015ae2:	e629      	b.n	10015738 <_dtoa_r+0x9a8>
10015ae4:	9a09      	ldr	r2, [sp, #36]	@ 0x24
10015ae6:	4616      	mov	r6, r2
10015ae8:	441a      	add	r2, r3
10015aea:	441c      	add	r4, r3
10015aec:	9209      	str	r2, [sp, #36]	@ 0x24
10015aee:	e51f      	b.n	10015530 <_dtoa_r+0x7a0>
10015af0:	9b17      	ldr	r3, [sp, #92]	@ 0x5c
10015af2:	9a03      	ldr	r2, [sp, #12]
10015af4:	f103 0801 	add.w	r8, r3, #1
10015af8:	f7ff bb64 	b.w	100151c4 <_dtoa_r+0x434>
10015afc:	f8dd a050 	ldr.w	sl, [sp, #80]	@ 0x50
10015b00:	e7ab      	b.n	10015a5a <_dtoa_r+0xcca>
10015b02:	e9dd b418 	ldrd	fp, r4, [sp, #96]	@ 0x60
10015b06:	f8dd a050 	ldr.w	sl, [sp, #80]	@ 0x50
10015b0a:	f7ff bb94 	b.w	10015236 <_dtoa_r+0x4a6>
10015b0e:	2b39      	cmp	r3, #57	@ 0x39
10015b10:	d0d8      	beq.n	10015ac4 <_dtoa_r+0xd34>
10015b12:	2d00      	cmp	r5, #0
10015b14:	f73f ada7 	bgt.w	10015666 <_dtoa_r+0x8d6>
10015b18:	e5a7      	b.n	1001566a <_dtoa_r+0x8da>
10015b1a:	9b26      	ldr	r3, [sp, #152]	@ 0x98
10015b1c:	2b02      	cmp	r3, #2
10015b1e:	dc0a      	bgt.n	10015b36 <_dtoa_r+0xda6>
10015b20:	9b16      	ldr	r3, [sp, #88]	@ 0x58
10015b22:	9308      	str	r3, [sp, #32]
10015b24:	4649      	mov	r1, r9
10015b26:	9d0c      	ldr	r5, [sp, #48]	@ 0x30
10015b28:	f7ff f89c 	bl	10014c64 <quorem>
10015b2c:	9a03      	ldr	r2, [sp, #12]
10015b2e:	f100 0330 	add.w	r3, r0, #48	@ 0x30
10015b32:	7013      	strb	r3, [r2, #0]
10015b34:	e48d      	b.n	10015452 <_dtoa_r+0x6c2>
10015b36:	9b16      	ldr	r3, [sp, #88]	@ 0x58
10015b38:	9308      	str	r3, [sp, #32]
10015b3a:	950c      	str	r5, [sp, #48]	@ 0x30
10015b3c:	e5b6      	b.n	100156ac <_dtoa_r+0x91c>
10015b3e:	9b26      	ldr	r3, [sp, #152]	@ 0x98
10015b40:	2b02      	cmp	r3, #2
10015b42:	dcf8      	bgt.n	10015b36 <_dtoa_r+0xda6>
10015b44:	9b16      	ldr	r3, [sp, #88]	@ 0x58
10015b46:	950c      	str	r5, [sp, #48]	@ 0x30
10015b48:	9308      	str	r3, [sp, #32]
10015b4a:	e50b      	b.n	10015564 <_dtoa_r+0x7d4>
10015b4c:	4637      	mov	r7, r6
10015b4e:	e759      	b.n	10015a04 <_dtoa_r+0xc74>
10015b50:	e9dd 8910 	ldrd	r8, r9, [sp, #64]	@ 0x40
10015b54:	2702      	movs	r7, #2
10015b56:	f7ff ba91 	b.w	1001507c <_dtoa_r+0x2ec>
10015b5a:	9b02      	ldr	r3, [sp, #8]
10015b5c:	2100      	movs	r1, #0
10015b5e:	63d9      	str	r1, [r3, #60]	@ 0x3c
10015b60:	f7ff ba47 	b.w	10014ff2 <_dtoa_r+0x262>
10015b64:	9b02      	ldr	r3, [sp, #8]
10015b66:	2500      	movs	r5, #0
10015b68:	63dd      	str	r5, [r3, #60]	@ 0x3c
10015b6a:	4629      	mov	r1, r5
10015b6c:	4618      	mov	r0, r3
10015b6e:	f004 f8fb 	bl	10019d68 <_Balloc>
10015b72:	9003      	str	r0, [sp, #12]
10015b74:	b9a8      	cbnz	r0, 10015ba2 <_dtoa_r+0xe12>
10015b76:	4b14      	ldr	r3, [pc, #80]	@ (10015bc8 <_dtoa_r+0xe38>)
10015b78:	4814      	ldr	r0, [pc, #80]	@ (10015bcc <_dtoa_r+0xe3c>)
10015b7a:	2200      	movs	r2, #0
10015b7c:	f240 11af 	movw	r1, #431	@ 0x1af
10015b80:	f004 f804 	bl	10019b8c <__assert_func>
10015b84:	2a00      	cmp	r2, #0
10015b86:	f77f ad70 	ble.w	1001566a <_dtoa_r+0x8da>
10015b8a:	e55b      	b.n	10015644 <_dtoa_r+0x8b4>
10015b8c:	4b0e      	ldr	r3, [pc, #56]	@ (10015bc8 <_dtoa_r+0xe38>)
10015b8e:	480f      	ldr	r0, [pc, #60]	@ (10015bcc <_dtoa_r+0xe3c>)
10015b90:	462a      	mov	r2, r5
10015b92:	f240 21ef 	movw	r1, #751	@ 0x2ef
10015b96:	f003 fff9 	bl	10019b8c <__assert_func>
10015b9a:	4b0d      	ldr	r3, [pc, #52]	@ (10015bd0 <_dtoa_r+0xe40>)
10015b9c:	9303      	str	r3, [sp, #12]
10015b9e:	f7ff b932 	b.w	10014e06 <_dtoa_r+0x76>
10015ba2:	e9dd 3202 	ldrd	r3, r2, [sp, #8]
10015ba6:	639a      	str	r2, [r3, #56]	@ 0x38
10015ba8:	f04f 33ff 	mov.w	r3, #4294967295	@ 0xffffffff
10015bac:	2201      	movs	r2, #1
10015bae:	9527      	str	r5, [sp, #156]	@ 0x9c
10015bb0:	9316      	str	r3, [sp, #88]	@ 0x58
10015bb2:	920a      	str	r2, [sp, #40]	@ 0x28
10015bb4:	9308      	str	r3, [sp, #32]
10015bb6:	f7ff bb3e 	b.w	10015236 <_dtoa_r+0x4a6>
10015bba:	bf00      	nop
10015bbc:	40240000 	.word	0x40240000
10015bc0:	3fe00000 	.word	0x3fe00000
10015bc4:	401c0000 	.word	0x401c0000
10015bc8:	1001d9d8 	.word	0x1001d9d8
10015bcc:	1001d9ec 	.word	0x1001d9ec
10015bd0:	1001d9c8 	.word	0x1001d9c8

10015bd4 <_close_r>:
10015bd4:	b538      	push	{r3, r4, r5, lr}
10015bd6:	4d07      	ldr	r5, [pc, #28]	@ (10015bf4 <_close_r+0x20>)
10015bd8:	2200      	movs	r2, #0
10015bda:	4604      	mov	r4, r0
10015bdc:	4608      	mov	r0, r1
10015bde:	602a      	str	r2, [r5, #0]
10015be0:	f7fb f888 	bl	10010cf4 <_close>
10015be4:	1c43      	adds	r3, r0, #1
10015be6:	d000      	beq.n	10015bea <_close_r+0x16>
10015be8:	bd38      	pop	{r3, r4, r5, pc}
10015bea:	682b      	ldr	r3, [r5, #0]
10015bec:	2b00      	cmp	r3, #0
10015bee:	d0fb      	beq.n	10015be8 <_close_r+0x14>
10015bf0:	6023      	str	r3, [r4, #0]
10015bf2:	bd38      	pop	{r3, r4, r5, pc}
10015bf4:	20001680 	.word	0x20001680

10015bf8 <__sflush_r>:
10015bf8:	f9b1 200c 	ldrsh.w	r2, [r1, #12]
10015bfc:	e92d 41f0 	stmdb	sp!, {r4, r5, r6, r7, r8, lr}
10015c00:	460c      	mov	r4, r1
10015c02:	0711      	lsls	r1, r2, #28
10015c04:	4680      	mov	r8, r0
10015c06:	d44b      	bmi.n	10015ca0 <__sflush_r+0xa8>
10015c08:	6861      	ldr	r1, [r4, #4]
10015c0a:	f442 6300 	orr.w	r3, r2, #2048	@ 0x800
10015c0e:	2900      	cmp	r1, #0
10015c10:	81a3      	strh	r3, [r4, #12]
10015c12:	dd60      	ble.n	10015cd6 <__sflush_r+0xde>
10015c14:	6aa5      	ldr	r5, [r4, #40]	@ 0x28
10015c16:	2d00      	cmp	r5, #0
10015c18:	d03f      	beq.n	10015c9a <__sflush_r+0xa2>
10015c1a:	2100      	movs	r1, #0
10015c1c:	f412 5280 	ands.w	r2, r2, #4096	@ 0x1000
10015c20:	f8d8 6000 	ldr.w	r6, [r8]
10015c24:	f8c8 1000 	str.w	r1, [r8]
10015c28:	69e1      	ldr	r1, [r4, #28]
10015c2a:	d161      	bne.n	10015cf0 <__sflush_r+0xf8>
10015c2c:	2301      	movs	r3, #1
10015c2e:	4640      	mov	r0, r8
10015c30:	47a8      	blx	r5
10015c32:	1c43      	adds	r3, r0, #1
10015c34:	4602      	mov	r2, r0
10015c36:	d06b      	beq.n	10015d10 <__sflush_r+0x118>
10015c38:	f9b4 300c 	ldrsh.w	r3, [r4, #12]
10015c3c:	6aa5      	ldr	r5, [r4, #40]	@ 0x28
10015c3e:	69e1      	ldr	r1, [r4, #28]
10015c40:	075f      	lsls	r7, r3, #29
10015c42:	d505      	bpl.n	10015c50 <__sflush_r+0x58>
10015c44:	6863      	ldr	r3, [r4, #4]
10015c46:	1ad2      	subs	r2, r2, r3
10015c48:	6b23      	ldr	r3, [r4, #48]	@ 0x30
10015c4a:	b10b      	cbz	r3, 10015c50 <__sflush_r+0x58>
10015c4c:	6be3      	ldr	r3, [r4, #60]	@ 0x3c
10015c4e:	1ad2      	subs	r2, r2, r3
10015c50:	2300      	movs	r3, #0
10015c52:	4640      	mov	r0, r8
10015c54:	47a8      	blx	r5
10015c56:	1c45      	adds	r5, r0, #1
10015c58:	d14c      	bne.n	10015cf4 <__sflush_r+0xfc>
10015c5a:	f8d8 1000 	ldr.w	r1, [r8]
10015c5e:	291d      	cmp	r1, #29
10015c60:	d83d      	bhi.n	10015cde <__sflush_r+0xe6>
10015c62:	4a32      	ldr	r2, [pc, #200]	@ (10015d2c <__sflush_r+0x134>)
10015c64:	f9b4 300c 	ldrsh.w	r3, [r4, #12]
10015c68:	410a      	asrs	r2, r1
10015c6a:	f012 0201 	ands.w	r2, r2, #1
10015c6e:	d138      	bne.n	10015ce2 <__sflush_r+0xea>
10015c70:	6062      	str	r2, [r4, #4]
10015c72:	6922      	ldr	r2, [r4, #16]
10015c74:	6022      	str	r2, [r4, #0]
10015c76:	f423 6200 	bic.w	r2, r3, #2048	@ 0x800
10015c7a:	81a2      	strh	r2, [r4, #12]
10015c7c:	04da      	lsls	r2, r3, #19
10015c7e:	d452      	bmi.n	10015d26 <__sflush_r+0x12e>
10015c80:	6b21      	ldr	r1, [r4, #48]	@ 0x30
10015c82:	f8c8 6000 	str.w	r6, [r8]
10015c86:	b141      	cbz	r1, 10015c9a <__sflush_r+0xa2>
10015c88:	f104 0340 	add.w	r3, r4, #64	@ 0x40
10015c8c:	4299      	cmp	r1, r3
10015c8e:	d002      	beq.n	10015c96 <__sflush_r+0x9e>
10015c90:	4640      	mov	r0, r8
10015c92:	f000 fcd7 	bl	10016644 <_free_r>
10015c96:	2300      	movs	r3, #0
10015c98:	6323      	str	r3, [r4, #48]	@ 0x30
10015c9a:	2000      	movs	r0, #0
10015c9c:	e8bd 81f0 	ldmia.w	sp!, {r4, r5, r6, r7, r8, pc}
10015ca0:	6926      	ldr	r6, [r4, #16]
10015ca2:	2e00      	cmp	r6, #0
10015ca4:	d0f9      	beq.n	10015c9a <__sflush_r+0xa2>
10015ca6:	6825      	ldr	r5, [r4, #0]
10015ca8:	6026      	str	r6, [r4, #0]
10015caa:	0791      	lsls	r1, r2, #30
10015cac:	bf0c      	ite	eq
10015cae:	6963      	ldreq	r3, [r4, #20]
10015cb0:	2300      	movne	r3, #0
10015cb2:	1bad      	subs	r5, r5, r6
10015cb4:	60a3      	str	r3, [r4, #8]
10015cb6:	e00b      	b.n	10015cd0 <__sflush_r+0xd8>
10015cb8:	462b      	mov	r3, r5
10015cba:	4632      	mov	r2, r6
10015cbc:	69e1      	ldr	r1, [r4, #28]
10015cbe:	6a67      	ldr	r7, [r4, #36]	@ 0x24
10015cc0:	4640      	mov	r0, r8
10015cc2:	47b8      	blx	r7
10015cc4:	f1b0 0c00 	subs.w	ip, r0, #0
10015cc8:	eba5 050c 	sub.w	r5, r5, ip
10015ccc:	4466      	add	r6, ip
10015cce:	dd06      	ble.n	10015cde <__sflush_r+0xe6>
10015cd0:	2d00      	cmp	r5, #0
10015cd2:	dcf1      	bgt.n	10015cb8 <__sflush_r+0xc0>
10015cd4:	e7e1      	b.n	10015c9a <__sflush_r+0xa2>
10015cd6:	6be1      	ldr	r1, [r4, #60]	@ 0x3c
10015cd8:	2900      	cmp	r1, #0
10015cda:	dc9b      	bgt.n	10015c14 <__sflush_r+0x1c>
10015cdc:	e7dd      	b.n	10015c9a <__sflush_r+0xa2>
10015cde:	f9b4 300c 	ldrsh.w	r3, [r4, #12]
10015ce2:	f043 0340 	orr.w	r3, r3, #64	@ 0x40
10015ce6:	81a3      	strh	r3, [r4, #12]
10015ce8:	f04f 30ff 	mov.w	r0, #4294967295	@ 0xffffffff
10015cec:	e8bd 81f0 	ldmia.w	sp!, {r4, r5, r6, r7, r8, pc}
10015cf0:	6d22      	ldr	r2, [r4, #80]	@ 0x50
10015cf2:	e7a5      	b.n	10015c40 <__sflush_r+0x48>
10015cf4:	f9b4 300c 	ldrsh.w	r3, [r4, #12]
10015cf8:	6922      	ldr	r2, [r4, #16]
10015cfa:	6022      	str	r2, [r4, #0]
10015cfc:	f423 6200 	bic.w	r2, r3, #2048	@ 0x800
10015d00:	81a2      	strh	r2, [r4, #12]
10015d02:	04db      	lsls	r3, r3, #19
10015d04:	f04f 0200 	mov.w	r2, #0
10015d08:	6062      	str	r2, [r4, #4]
10015d0a:	d5b9      	bpl.n	10015c80 <__sflush_r+0x88>
10015d0c:	6520      	str	r0, [r4, #80]	@ 0x50
10015d0e:	e7b7      	b.n	10015c80 <__sflush_r+0x88>
10015d10:	f8d8 3000 	ldr.w	r3, [r8]
10015d14:	2b00      	cmp	r3, #0
10015d16:	d08f      	beq.n	10015c38 <__sflush_r+0x40>
10015d18:	2b1d      	cmp	r3, #29
10015d1a:	d001      	beq.n	10015d20 <__sflush_r+0x128>
10015d1c:	2b16      	cmp	r3, #22
10015d1e:	d1de      	bne.n	10015cde <__sflush_r+0xe6>
10015d20:	f8c8 6000 	str.w	r6, [r8]
10015d24:	e7b9      	b.n	10015c9a <__sflush_r+0xa2>
10015d26:	2900      	cmp	r1, #0
10015d28:	d1aa      	bne.n	10015c80 <__sflush_r+0x88>
10015d2a:	e7ef      	b.n	10015d0c <__sflush_r+0x114>
10015d2c:	dfbffffe 	.word	0xdfbffffe

10015d30 <_fflush_r>:
10015d30:	b538      	push	{r3, r4, r5, lr}
10015d32:	460c      	mov	r4, r1
10015d34:	4605      	mov	r5, r0
10015d36:	b108      	cbz	r0, 10015d3c <_fflush_r+0xc>
10015d38:	6b43      	ldr	r3, [r0, #52]	@ 0x34
10015d3a:	b303      	cbz	r3, 10015d7e <_fflush_r+0x4e>
10015d3c:	f9b4 000c 	ldrsh.w	r0, [r4, #12]
10015d40:	b188      	cbz	r0, 10015d66 <_fflush_r+0x36>
10015d42:	6e63      	ldr	r3, [r4, #100]	@ 0x64
10015d44:	07db      	lsls	r3, r3, #31
10015d46:	d401      	bmi.n	10015d4c <_fflush_r+0x1c>
10015d48:	0581      	lsls	r1, r0, #22
10015d4a:	d50f      	bpl.n	10015d6c <_fflush_r+0x3c>
10015d4c:	4628      	mov	r0, r5
10015d4e:	4621      	mov	r1, r4
10015d50:	f7ff ff52 	bl	10015bf8 <__sflush_r>
10015d54:	6e63      	ldr	r3, [r4, #100]	@ 0x64
10015d56:	07da      	lsls	r2, r3, #31
10015d58:	4605      	mov	r5, r0
10015d5a:	d402      	bmi.n	10015d62 <_fflush_r+0x32>
10015d5c:	89a3      	ldrh	r3, [r4, #12]
10015d5e:	059b      	lsls	r3, r3, #22
10015d60:	d508      	bpl.n	10015d74 <_fflush_r+0x44>
10015d62:	4628      	mov	r0, r5
10015d64:	bd38      	pop	{r3, r4, r5, pc}
10015d66:	4605      	mov	r5, r0
10015d68:	4628      	mov	r0, r5
10015d6a:	bd38      	pop	{r3, r4, r5, pc}
10015d6c:	6da0      	ldr	r0, [r4, #88]	@ 0x58
10015d6e:	f7fe fe77 	bl	10014a60 <__retarget_lock_acquire_recursive>
10015d72:	e7eb      	b.n	10015d4c <_fflush_r+0x1c>
10015d74:	6da0      	ldr	r0, [r4, #88]	@ 0x58
10015d76:	f7fe fe75 	bl	10014a64 <__retarget_lock_release_recursive>
10015d7a:	4628      	mov	r0, r5
10015d7c:	bd38      	pop	{r3, r4, r5, pc}
10015d7e:	f000 f8a5 	bl	10015ecc <__sinit>
10015d82:	e7db      	b.n	10015d3c <_fflush_r+0xc>

10015d84 <stdio_exit_handler>:
10015d84:	4a02      	ldr	r2, [pc, #8]	@ (10015d90 <stdio_exit_handler+0xc>)
10015d86:	4903      	ldr	r1, [pc, #12]	@ (10015d94 <stdio_exit_handler+0x10>)
10015d88:	4803      	ldr	r0, [pc, #12]	@ (10015d98 <stdio_exit_handler+0x14>)
10015d8a:	f000 bf3b 	b.w	10016c04 <_fwalk_sglue>
10015d8e:	bf00      	nop
10015d90:	200006f0 	.word	0x200006f0
10015d94:	10014a7d 	.word	0x10014a7d
10015d98:	200005d0 	.word	0x200005d0

10015d9c <cleanup_stdio>:
10015d9c:	4b0c      	ldr	r3, [pc, #48]	@ (10015dd0 <cleanup_stdio+0x34>)
10015d9e:	6841      	ldr	r1, [r0, #4]
10015da0:	4299      	cmp	r1, r3
10015da2:	b510      	push	{r4, lr}
10015da4:	4604      	mov	r4, r0
10015da6:	d001      	beq.n	10015dac <cleanup_stdio+0x10>
10015da8:	f7fe fe68 	bl	10014a7c <_fclose_r>
10015dac:	68a1      	ldr	r1, [r4, #8]
10015dae:	4b09      	ldr	r3, [pc, #36]	@ (10015dd4 <cleanup_stdio+0x38>)
10015db0:	4299      	cmp	r1, r3
10015db2:	d002      	beq.n	10015dba <cleanup_stdio+0x1e>
10015db4:	4620      	mov	r0, r4
10015db6:	f7fe fe61 	bl	10014a7c <_fclose_r>
10015dba:	68e1      	ldr	r1, [r4, #12]
10015dbc:	4b06      	ldr	r3, [pc, #24]	@ (10015dd8 <cleanup_stdio+0x3c>)
10015dbe:	4299      	cmp	r1, r3
10015dc0:	d004      	beq.n	10015dcc <cleanup_stdio+0x30>
10015dc2:	4620      	mov	r0, r4
10015dc4:	e8bd 4010 	ldmia.w	sp!, {r4, lr}
10015dc8:	f7fe be58 	b.w	10014a7c <_fclose_r>
10015dcc:	bd10      	pop	{r4, pc}
10015dce:	bf00      	nop
10015dd0:	20001684 	.word	0x20001684
10015dd4:	200016ec 	.word	0x200016ec
10015dd8:	20001754 	.word	0x20001754

10015ddc <global_stdio_init.part.0>:
10015ddc:	e92d 43f8 	stmdb	sp!, {r3, r4, r5, r6, r7, r8, r9, lr}
10015de0:	4c31      	ldr	r4, [pc, #196]	@ (10015ea8 <global_stdio_init.part.0+0xcc>)
10015de2:	4b32      	ldr	r3, [pc, #200]	@ (10015eac <global_stdio_init.part.0+0xd0>)
10015de4:	4832      	ldr	r0, [pc, #200]	@ (10015eb0 <global_stdio_init.part.0+0xd4>)
10015de6:	f8df 90dc 	ldr.w	r9, [pc, #220]	@ 10015ec4 <global_stdio_init.part.0+0xe8>
10015dea:	f8df 80dc 	ldr.w	r8, [pc, #220]	@ 10015ec8 <global_stdio_init.part.0+0xec>
10015dee:	4f31      	ldr	r7, [pc, #196]	@ (10015eb4 <global_stdio_init.part.0+0xd8>)
10015df0:	6018      	str	r0, [r3, #0]
10015df2:	2500      	movs	r5, #0
10015df4:	4629      	mov	r1, r5
10015df6:	2304      	movs	r3, #4
10015df8:	2208      	movs	r2, #8
10015dfa:	f104 005c 	add.w	r0, r4, #92	@ 0x5c
10015dfe:	4e2e      	ldr	r6, [pc, #184]	@ (10015eb8 <global_stdio_init.part.0+0xdc>)
10015e00:	60e3      	str	r3, [r4, #12]
10015e02:	e9c4 5500 	strd	r5, r5, [r4]
10015e06:	e9c4 5504 	strd	r5, r5, [r4, #16]
10015e0a:	60a5      	str	r5, [r4, #8]
10015e0c:	6665      	str	r5, [r4, #100]	@ 0x64
10015e0e:	61a5      	str	r5, [r4, #24]
10015e10:	f7fe fd6e 	bl	100148f0 <memset>
10015e14:	f104 0058 	add.w	r0, r4, #88	@ 0x58
10015e18:	e9c4 4907 	strd	r4, r9, [r4, #28]
10015e1c:	e9c4 8709 	strd	r8, r7, [r4, #36]	@ 0x24
10015e20:	62e6      	str	r6, [r4, #44]	@ 0x2c
10015e22:	f7fe fe19 	bl	10014a58 <__retarget_lock_init_recursive>
10015e26:	4629      	mov	r1, r5
10015e28:	4b24      	ldr	r3, [pc, #144]	@ (10015ebc <global_stdio_init.part.0+0xe0>)
10015e2a:	6763      	str	r3, [r4, #116]	@ 0x74
10015e2c:	2208      	movs	r2, #8
10015e2e:	f104 00c4 	add.w	r0, r4, #196	@ 0xc4
10015e32:	e9c4 551a 	strd	r5, r5, [r4, #104]	@ 0x68
10015e36:	e9c4 551e 	strd	r5, r5, [r4, #120]	@ 0x78
10015e3a:	6725      	str	r5, [r4, #112]	@ 0x70
10015e3c:	f8c4 50cc 	str.w	r5, [r4, #204]	@ 0xcc
10015e40:	f8c4 5080 	str.w	r5, [r4, #128]	@ 0x80
10015e44:	f7fe fd54 	bl	100148f0 <memset>
10015e48:	f104 0368 	add.w	r3, r4, #104	@ 0x68
10015e4c:	f104 00c0 	add.w	r0, r4, #192	@ 0xc0
10015e50:	f8c4 3084 	str.w	r3, [r4, #132]	@ 0x84
10015e54:	e9c4 9822 	strd	r9, r8, [r4, #136]	@ 0x88
10015e58:	e9c4 7624 	strd	r7, r6, [r4, #144]	@ 0x90
10015e5c:	f7fe fdfc 	bl	10014a58 <__retarget_lock_init_recursive>
10015e60:	4b17      	ldr	r3, [pc, #92]	@ (10015ec0 <global_stdio_init.part.0+0xe4>)
10015e62:	f8c4 30dc 	str.w	r3, [r4, #220]	@ 0xdc
10015e66:	4629      	mov	r1, r5
10015e68:	f504 7096 	add.w	r0, r4, #300	@ 0x12c
10015e6c:	2208      	movs	r2, #8
10015e6e:	e9c4 5534 	strd	r5, r5, [r4, #208]	@ 0xd0
10015e72:	e9c4 5538 	strd	r5, r5, [r4, #224]	@ 0xe0
10015e76:	f8c4 50d8 	str.w	r5, [r4, #216]	@ 0xd8
10015e7a:	f8c4 5134 	str.w	r5, [r4, #308]	@ 0x134
10015e7e:	f8c4 50e8 	str.w	r5, [r4, #232]	@ 0xe8
10015e82:	f7fe fd35 	bl	100148f0 <memset>
10015e86:	f104 03d0 	add.w	r3, r4, #208	@ 0xd0
10015e8a:	e9c4 873d 	strd	r8, r7, [r4, #244]	@ 0xf4
10015e8e:	f8c4 90f0 	str.w	r9, [r4, #240]	@ 0xf0
10015e92:	f504 7094 	add.w	r0, r4, #296	@ 0x128
10015e96:	f8c4 60fc 	str.w	r6, [r4, #252]	@ 0xfc
10015e9a:	f8c4 30ec 	str.w	r3, [r4, #236]	@ 0xec
10015e9e:	e8bd 43f8 	ldmia.w	sp!, {r3, r4, r5, r6, r7, r8, r9, lr}
10015ea2:	f7fe bdd9 	b.w	10014a58 <__retarget_lock_init_recursive>
10015ea6:	bf00      	nop
10015ea8:	20001684 	.word	0x20001684
10015eac:	200017bc 	.word	0x200017bc
10015eb0:	10015d85 	.word	0x10015d85
10015eb4:	10012665 	.word	0x10012665
10015eb8:	10012689 	.word	0x10012689
10015ebc:	00010009 	.word	0x00010009
10015ec0:	00020012 	.word	0x00020012
10015ec4:	10012601 	.word	0x10012601
10015ec8:	10012625 	.word	0x10012625

10015ecc <__sinit>:
10015ecc:	b510      	push	{r4, lr}
10015ece:	4604      	mov	r4, r0
10015ed0:	480a      	ldr	r0, [pc, #40]	@ (10015efc <__sinit+0x30>)
10015ed2:	f7fe fdc5 	bl	10014a60 <__retarget_lock_acquire_recursive>
10015ed6:	6b63      	ldr	r3, [r4, #52]	@ 0x34
10015ed8:	b923      	cbnz	r3, 10015ee4 <__sinit+0x18>
10015eda:	4b09      	ldr	r3, [pc, #36]	@ (10015f00 <__sinit+0x34>)
10015edc:	4a09      	ldr	r2, [pc, #36]	@ (10015f04 <__sinit+0x38>)
10015ede:	681b      	ldr	r3, [r3, #0]
10015ee0:	6362      	str	r2, [r4, #52]	@ 0x34
10015ee2:	b123      	cbz	r3, 10015eee <__sinit+0x22>
10015ee4:	e8bd 4010 	ldmia.w	sp!, {r4, lr}
10015ee8:	4804      	ldr	r0, [pc, #16]	@ (10015efc <__sinit+0x30>)
10015eea:	f7fe bdbb 	b.w	10014a64 <__retarget_lock_release_recursive>
10015eee:	f7ff ff75 	bl	10015ddc <global_stdio_init.part.0>
10015ef2:	e8bd 4010 	ldmia.w	sp!, {r4, lr}
10015ef6:	4801      	ldr	r0, [pc, #4]	@ (10015efc <__sinit+0x30>)
10015ef8:	f7fe bdb4 	b.w	10014a64 <__retarget_lock_release_recursive>
10015efc:	2000167c 	.word	0x2000167c
10015f00:	200017bc 	.word	0x200017bc
10015f04:	10015d9d 	.word	0x10015d9d

10015f08 <__sfp_lock_acquire>:
10015f08:	4801      	ldr	r0, [pc, #4]	@ (10015f10 <__sfp_lock_acquire+0x8>)
10015f0a:	f7fe bda9 	b.w	10014a60 <__retarget_lock_acquire_recursive>
10015f0e:	bf00      	nop
10015f10:	2000167c 	.word	0x2000167c

10015f14 <__sfp_lock_release>:
10015f14:	4801      	ldr	r0, [pc, #4]	@ (10015f1c <__sfp_lock_release+0x8>)
10015f16:	f7fe bda5 	b.w	10014a64 <__retarget_lock_release_recursive>
10015f1a:	bf00      	nop
10015f1c:	2000167c 	.word	0x2000167c

10015f20 <memchr>:
10015f20:	f001 01ff 	and.w	r1, r1, #255	@ 0xff
10015f24:	2a10      	cmp	r2, #16
10015f26:	db2b      	blt.n	10015f80 <memchr+0x60>
10015f28:	f010 0f07 	tst.w	r0, #7
10015f2c:	d008      	beq.n	10015f40 <memchr+0x20>
10015f2e:	f810 3b01 	ldrb.w	r3, [r0], #1
10015f32:	3a01      	subs	r2, #1
10015f34:	428b      	cmp	r3, r1
10015f36:	d02d      	beq.n	10015f94 <memchr+0x74>
10015f38:	f010 0f07 	tst.w	r0, #7
10015f3c:	b342      	cbz	r2, 10015f90 <memchr+0x70>
10015f3e:	d1f6      	bne.n	10015f2e <memchr+0xe>
10015f40:	b4f0      	push	{r4, r5, r6, r7}
10015f42:	ea41 2101 	orr.w	r1, r1, r1, lsl #8
10015f46:	ea41 4101 	orr.w	r1, r1, r1, lsl #16
10015f4a:	f022 0407 	bic.w	r4, r2, #7
10015f4e:	f07f 0700 	mvns.w	r7, #0
10015f52:	2300      	movs	r3, #0
10015f54:	e8f0 5602 	ldrd	r5, r6, [r0], #8
10015f58:	3c08      	subs	r4, #8
10015f5a:	ea85 0501 	eor.w	r5, r5, r1
10015f5e:	ea86 0601 	eor.w	r6, r6, r1
10015f62:	fa85 f547 	uadd8	r5, r5, r7
10015f66:	faa3 f587 	sel	r5, r3, r7
10015f6a:	fa86 f647 	uadd8	r6, r6, r7
10015f6e:	faa5 f687 	sel	r6, r5, r7
10015f72:	b98e      	cbnz	r6, 10015f98 <memchr+0x78>
10015f74:	d1ee      	bne.n	10015f54 <memchr+0x34>
10015f76:	bcf0      	pop	{r4, r5, r6, r7}
10015f78:	f001 01ff 	and.w	r1, r1, #255	@ 0xff
10015f7c:	f002 0207 	and.w	r2, r2, #7
10015f80:	b132      	cbz	r2, 10015f90 <memchr+0x70>
10015f82:	f810 3b01 	ldrb.w	r3, [r0], #1
10015f86:	3a01      	subs	r2, #1
10015f88:	ea83 0301 	eor.w	r3, r3, r1
10015f8c:	b113      	cbz	r3, 10015f94 <memchr+0x74>
10015f8e:	d1f8      	bne.n	10015f82 <memchr+0x62>
10015f90:	2000      	movs	r0, #0
10015f92:	4770      	bx	lr
10015f94:	3801      	subs	r0, #1
10015f96:	4770      	bx	lr
10015f98:	2d00      	cmp	r5, #0
10015f9a:	bf06      	itte	eq
10015f9c:	4635      	moveq	r5, r6
10015f9e:	3803      	subeq	r0, #3
10015fa0:	3807      	subne	r0, #7
10015fa2:	f015 0f01 	tst.w	r5, #1
10015fa6:	d107      	bne.n	10015fb8 <memchr+0x98>
10015fa8:	3001      	adds	r0, #1
10015faa:	f415 7f80 	tst.w	r5, #256	@ 0x100
10015fae:	bf02      	ittt	eq
10015fb0:	3001      	addeq	r0, #1
10015fb2:	f415 3fc0 	tsteq.w	r5, #98304	@ 0x18000
10015fb6:	3001      	addeq	r0, #1
10015fb8:	bcf0      	pop	{r4, r5, r6, r7}
10015fba:	3801      	subs	r0, #1
10015fbc:	4770      	bx	lr
10015fbe:	bf00      	nop

10015fc0 <memcpy>:
10015fc0:	4684      	mov	ip, r0
10015fc2:	ea41 0300 	orr.w	r3, r1, r0
10015fc6:	f013 0303 	ands.w	r3, r3, #3
10015fca:	d16d      	bne.n	100160a8 <memcpy+0xe8>
10015fcc:	3a40      	subs	r2, #64	@ 0x40
10015fce:	d341      	bcc.n	10016054 <memcpy+0x94>
10015fd0:	f851 3b04 	ldr.w	r3, [r1], #4
10015fd4:	f840 3b04 	str.w	r3, [r0], #4
10015fd8:	f851 3b04 	ldr.w	r3, [r1], #4
10015fdc:	f840 3b04 	str.w	r3, [r0], #4
10015fe0:	f851 3b04 	ldr.w	r3, [r1], #4
10015fe4:	f840 3b04 	str.w	r3, [r0], #4
10015fe8:	f851 3b04 	ldr.w	r3, [r1], #4
10015fec:	f840 3b04 	str.w	r3, [r0], #4
10015ff0:	f851 3b04 	ldr.w	r3, [r1], #4
10015ff4:	f840 3b04 	str.w	r3, [r0], #4
10015ff8:	f851 3b04 	ldr.w	r3, [r1], #4
10015ffc:	f840 3b04 	str.w	r3, [r0], #4
10016000:	f851 3b04 	ldr.w	r3, [r1], #4
10016004:	f840 3b04 	str.w	r3, [r0], #4
10016008:	f851 3b04 	ldr.w	r3, [r1], #4
1001600c:	f840 3b04 	str.w	r3, [r0], #4
10016010:	f851 3b04 	ldr.w	r3, [r1], #4
10016014:	f840 3b04 	str.w	r3, [r0], #4
10016018:	f851 3b04 	ldr.w	r3, [r1], #4
1001601c:	f840 3b04 	str.w	r3, [r0], #4
10016020:	f851 3b04 	ldr.w	r3, [r1], #4
10016024:	f840 3b04 	str.w	r3, [r0], #4
10016028:	f851 3b04 	ldr.w	r3, [r1], #4
1001602c:	f840 3b04 	str.w	r3, [r0], #4
10016030:	f851 3b04 	ldr.w	r3, [r1], #4
10016034:	f840 3b04 	str.w	r3, [r0], #4
10016038:	f851 3b04 	ldr.w	r3, [r1], #4
1001603c:	f840 3b04 	str.w	r3, [r0], #4
10016040:	f851 3b04 	ldr.w	r3, [r1], #4
10016044:	f840 3b04 	str.w	r3, [r0], #4
10016048:	f851 3b04 	ldr.w	r3, [r1], #4
1001604c:	f840 3b04 	str.w	r3, [r0], #4
10016050:	3a40      	subs	r2, #64	@ 0x40
10016052:	d2bd      	bcs.n	10015fd0 <memcpy+0x10>
10016054:	3230      	adds	r2, #48	@ 0x30
10016056:	d311      	bcc.n	1001607c <memcpy+0xbc>
10016058:	f851 3b04 	ldr.w	r3, [r1], #4
1001605c:	f840 3b04 	str.w	r3, [r0], #4
10016060:	f851 3b04 	ldr.w	r3, [r1], #4
10016064:	f840 3b04 	str.w	r3, [r0], #4
10016068:	f851 3b04 	ldr.w	r3, [r1], #4
1001606c:	f840 3b04 	str.w	r3, [r0], #4
10016070:	f851 3b04 	ldr.w	r3, [r1], #4
10016074:	f840 3b04 	str.w	r3, [r0], #4
10016078:	3a10      	subs	r2, #16
1001607a:	d2ed      	bcs.n	10016058 <memcpy+0x98>
1001607c:	320c      	adds	r2, #12
1001607e:	d305      	bcc.n	1001608c <memcpy+0xcc>
10016080:	f851 3b04 	ldr.w	r3, [r1], #4
10016084:	f840 3b04 	str.w	r3, [r0], #4
10016088:	3a04      	subs	r2, #4
1001608a:	d2f9      	bcs.n	10016080 <memcpy+0xc0>
1001608c:	3204      	adds	r2, #4
1001608e:	d008      	beq.n	100160a2 <memcpy+0xe2>
10016090:	07d2      	lsls	r2, r2, #31
10016092:	bf1c      	itt	ne
10016094:	f811 3b01 	ldrbne.w	r3, [r1], #1
10016098:	f800 3b01 	strbne.w	r3, [r0], #1
1001609c:	d301      	bcc.n	100160a2 <memcpy+0xe2>
1001609e:	880b      	ldrh	r3, [r1, #0]
100160a0:	8003      	strh	r3, [r0, #0]
100160a2:	4660      	mov	r0, ip
100160a4:	4770      	bx	lr
100160a6:	bf00      	nop
100160a8:	2a08      	cmp	r2, #8
100160aa:	d313      	bcc.n	100160d4 <memcpy+0x114>
100160ac:	078b      	lsls	r3, r1, #30
100160ae:	d08d      	beq.n	10015fcc <memcpy+0xc>
100160b0:	f010 0303 	ands.w	r3, r0, #3
100160b4:	d08a      	beq.n	10015fcc <memcpy+0xc>
100160b6:	f1c3 0304 	rsb	r3, r3, #4
100160ba:	1ad2      	subs	r2, r2, r3
100160bc:	07db      	lsls	r3, r3, #31
100160be:	bf1c      	itt	ne
100160c0:	f811 3b01 	ldrbne.w	r3, [r1], #1
100160c4:	f800 3b01 	strbne.w	r3, [r0], #1
100160c8:	d380      	bcc.n	10015fcc <memcpy+0xc>
100160ca:	f831 3b02 	ldrh.w	r3, [r1], #2
100160ce:	f820 3b02 	strh.w	r3, [r0], #2
100160d2:	e77b      	b.n	10015fcc <memcpy+0xc>
100160d4:	3a04      	subs	r2, #4
100160d6:	d3d9      	bcc.n	1001608c <memcpy+0xcc>
100160d8:	3a01      	subs	r2, #1
100160da:	f811 3b01 	ldrb.w	r3, [r1], #1
100160de:	f800 3b01 	strb.w	r3, [r0], #1
100160e2:	d2f9      	bcs.n	100160d8 <memcpy+0x118>
100160e4:	780b      	ldrb	r3, [r1, #0]
100160e6:	7003      	strb	r3, [r0, #0]
100160e8:	784b      	ldrb	r3, [r1, #1]
100160ea:	7043      	strb	r3, [r0, #1]
100160ec:	788b      	ldrb	r3, [r1, #2]
100160ee:	7083      	strb	r3, [r0, #2]
100160f0:	4660      	mov	r0, ip
100160f2:	4770      	bx	lr
	...

10016100 <strlen>:
10016100:	b430      	push	{r4, r5}
10016102:	f890 f000 	pld	[r0]
10016106:	f020 0107 	bic.w	r1, r0, #7
1001610a:	f06f 0c00 	mvn.w	ip, #0
1001610e:	f010 0407 	ands.w	r4, r0, #7
10016112:	f891 f020 	pld	[r1, #32]
10016116:	f040 8048 	bne.w	100161aa <strlen+0xaa>
1001611a:	f04f 0400 	mov.w	r4, #0
1001611e:	f06f 0007 	mvn.w	r0, #7
10016122:	e9d1 2300 	ldrd	r2, r3, [r1]
10016126:	f891 f040 	pld	[r1, #64]	@ 0x40
1001612a:	f100 0008 	add.w	r0, r0, #8
1001612e:	fa82 f24c 	uadd8	r2, r2, ip
10016132:	faa4 f28c 	sel	r2, r4, ip
10016136:	fa83 f34c 	uadd8	r3, r3, ip
1001613a:	faa2 f38c 	sel	r3, r2, ip
1001613e:	bb4b      	cbnz	r3, 10016194 <strlen+0x94>
10016140:	e9d1 2302 	ldrd	r2, r3, [r1, #8]
10016144:	fa82 f24c 	uadd8	r2, r2, ip
10016148:	f100 0008 	add.w	r0, r0, #8
1001614c:	faa4 f28c 	sel	r2, r4, ip
10016150:	fa83 f34c 	uadd8	r3, r3, ip
10016154:	faa2 f38c 	sel	r3, r2, ip
10016158:	b9e3      	cbnz	r3, 10016194 <strlen+0x94>
1001615a:	e9d1 2304 	ldrd	r2, r3, [r1, #16]
1001615e:	fa82 f24c 	uadd8	r2, r2, ip
10016162:	f100 0008 	add.w	r0, r0, #8
10016166:	faa4 f28c 	sel	r2, r4, ip
1001616a:	fa83 f34c 	uadd8	r3, r3, ip
1001616e:	faa2 f38c 	sel	r3, r2, ip
10016172:	b97b      	cbnz	r3, 10016194 <strlen+0x94>
10016174:	e9d1 2306 	ldrd	r2, r3, [r1, #24]
10016178:	f101 0120 	add.w	r1, r1, #32
1001617c:	fa82 f24c 	uadd8	r2, r2, ip
10016180:	f100 0008 	add.w	r0, r0, #8
10016184:	faa4 f28c 	sel	r2, r4, ip
10016188:	fa83 f34c 	uadd8	r3, r3, ip
1001618c:	faa2 f38c 	sel	r3, r2, ip
10016190:	2b00      	cmp	r3, #0
10016192:	d0c6      	beq.n	10016122 <strlen+0x22>
10016194:	2a00      	cmp	r2, #0
10016196:	bf04      	itt	eq
10016198:	3004      	addeq	r0, #4
1001619a:	461a      	moveq	r2, r3
1001619c:	ba12      	rev	r2, r2
1001619e:	fab2 f282 	clz	r2, r2
100161a2:	eb00 00d2 	add.w	r0, r0, r2, lsr #3
100161a6:	bc30      	pop	{r4, r5}
100161a8:	4770      	bx	lr
100161aa:	e9d1 2300 	ldrd	r2, r3, [r1]
100161ae:	f004 0503 	and.w	r5, r4, #3
100161b2:	f1c4 0000 	rsb	r0, r4, #0
100161b6:	ea4f 05c5 	mov.w	r5, r5, lsl #3
100161ba:	f014 0f04 	tst.w	r4, #4
100161be:	f891 f040 	pld	[r1, #64]	@ 0x40
100161c2:	fa0c f505 	lsl.w	r5, ip, r5
100161c6:	ea62 0205 	orn	r2, r2, r5
100161ca:	bf1c      	itt	ne
100161cc:	ea63 0305 	ornne	r3, r3, r5
100161d0:	4662      	movne	r2, ip
100161d2:	f04f 0400 	mov.w	r4, #0
100161d6:	e7aa      	b.n	1001612e <strlen+0x2e>

100161d8 <frexp>:
100161d8:	f8df c064 	ldr.w	ip, [pc, #100]	@ 10016240 <frexp+0x68>
100161dc:	b5f8      	push	{r3, r4, r5, r6, r7, lr}
100161de:	f021 4300 	bic.w	r3, r1, #2147483648	@ 0x80000000
100161e2:	2700      	movs	r7, #0
100161e4:	4563      	cmp	r3, ip
100161e6:	4604      	mov	r4, r0
100161e8:	460d      	mov	r5, r1
100161ea:	4616      	mov	r6, r2
100161ec:	6017      	str	r7, [r2, #0]
100161ee:	d822      	bhi.n	10016236 <frexp+0x5e>
100161f0:	4684      	mov	ip, r0
100161f2:	ea53 0c0c 	orrs.w	ip, r3, ip
100161f6:	d01e      	beq.n	10016236 <frexp+0x5e>
100161f8:	f8df c048 	ldr.w	ip, [pc, #72]	@ 10016244 <frexp+0x6c>
100161fc:	ea01 0c0c 	and.w	ip, r1, ip
10016200:	460a      	mov	r2, r1
10016202:	f1bc 0f00 	cmp.w	ip, #0
10016206:	d109      	bne.n	1001621c <frexp+0x44>
10016208:	4b0c      	ldr	r3, [pc, #48]	@ (1001623c <frexp+0x64>)
1001620a:	2200      	movs	r2, #0
1001620c:	f004 fd30 	bl	1001ac70 <__aeabi_dmul>
10016210:	f06f 0735 	mvn.w	r7, #53	@ 0x35
10016214:	4604      	mov	r4, r0
10016216:	460a      	mov	r2, r1
10016218:	f021 4300 	bic.w	r3, r1, #2147483648	@ 0x80000000
1001621c:	f022 42ff 	bic.w	r2, r2, #2139095040	@ 0x7f800000
10016220:	151b      	asrs	r3, r3, #20
10016222:	f422 02e0 	bic.w	r2, r2, #7340032	@ 0x700000
10016226:	f2a3 33fe 	subw	r3, r3, #1022	@ 0x3fe
1001622a:	f042 557f 	orr.w	r5, r2, #1069547520	@ 0x3fc00000
1001622e:	443b      	add	r3, r7
10016230:	f445 1500 	orr.w	r5, r5, #2097152	@ 0x200000
10016234:	6033      	str	r3, [r6, #0]
10016236:	4620      	mov	r0, r4
10016238:	4629      	mov	r1, r5
1001623a:	bdf8      	pop	{r3, r4, r5, r6, r7, pc}
1001623c:	43500000 	.word	0x43500000
10016240:	7fefffff 	.word	0x7fefffff
10016244:	7ff00000 	.word	0x7ff00000

10016248 <_realloc_r>:
10016248:	e92d 4ff8 	stmdb	sp!, {r3, r4, r5, r6, r7, r8, r9, sl, fp, lr}
1001624c:	4616      	mov	r6, r2
1001624e:	2900      	cmp	r1, #0
10016250:	f000 8096 	beq.w	10016380 <_realloc_r+0x138>
10016254:	460c      	mov	r4, r1
10016256:	4680      	mov	r8, r0
10016258:	f106 050b 	add.w	r5, r6, #11
1001625c:	f7fe fce4 	bl	10014c28 <__malloc_lock>
10016260:	f854 1c04 	ldr.w	r1, [r4, #-4]
10016264:	2d16      	cmp	r5, #22
10016266:	f1a4 0908 	sub.w	r9, r4, #8
1001626a:	f021 0703 	bic.w	r7, r1, #3
1001626e:	d858      	bhi.n	10016322 <_realloc_r+0xda>
10016270:	2510      	movs	r5, #16
10016272:	42ae      	cmp	r6, r5
10016274:	d858      	bhi.n	10016328 <_realloc_r+0xe0>
10016276:	42af      	cmp	r7, r5
10016278:	da60      	bge.n	1001633c <_realloc_r+0xf4>
1001627a:	4bbe      	ldr	r3, [pc, #760]	@ (10016574 <_realloc_r+0x32c>)
1001627c:	689a      	ldr	r2, [r3, #8]
1001627e:	eb09 0c07 	add.w	ip, r9, r7
10016282:	4562      	cmp	r2, ip
10016284:	f8dc 0004 	ldr.w	r0, [ip, #4]
10016288:	f000 8090 	beq.w	100163ac <_realloc_r+0x164>
1001628c:	f020 0301 	bic.w	r3, r0, #1
10016290:	4463      	add	r3, ip
10016292:	685b      	ldr	r3, [r3, #4]
10016294:	07da      	lsls	r2, r3, #31
10016296:	d468      	bmi.n	1001636a <_realloc_r+0x122>
10016298:	f020 0003 	bic.w	r0, r0, #3
1001629c:	183b      	adds	r3, r7, r0
1001629e:	429d      	cmp	r5, r3
100162a0:	dd47      	ble.n	10016332 <_realloc_r+0xea>
100162a2:	07cb      	lsls	r3, r1, #31
100162a4:	d412      	bmi.n	100162cc <_realloc_r+0x84>
100162a6:	f854 3c08 	ldr.w	r3, [r4, #-8]
100162aa:	eba9 0b03 	sub.w	fp, r9, r3
100162ae:	f8db 3004 	ldr.w	r3, [fp, #4]
100162b2:	f023 0203 	bic.w	r2, r3, #3
100162b6:	4410      	add	r0, r2
100162b8:	eb00 0a07 	add.w	sl, r0, r7
100162bc:	4555      	cmp	r5, sl
100162be:	f340 80f6 	ble.w	100164ae <_realloc_r+0x266>
100162c2:	eb07 0a02 	add.w	sl, r7, r2
100162c6:	4555      	cmp	r5, sl
100162c8:	f340 80cc 	ble.w	10016464 <_realloc_r+0x21c>
100162cc:	4631      	mov	r1, r6
100162ce:	4640      	mov	r0, r8
100162d0:	f7fd ffca 	bl	10014268 <_malloc_r>
100162d4:	4606      	mov	r6, r0
100162d6:	2800      	cmp	r0, #0
100162d8:	f000 8120 	beq.w	1001651c <_realloc_r+0x2d4>
100162dc:	f854 3c04 	ldr.w	r3, [r4, #-4]
100162e0:	f023 0301 	bic.w	r3, r3, #1
100162e4:	444b      	add	r3, r9
100162e6:	f1a0 0208 	sub.w	r2, r0, #8
100162ea:	4293      	cmp	r3, r2
100162ec:	f000 80b4 	beq.w	10016458 <_realloc_r+0x210>
100162f0:	1f3a      	subs	r2, r7, #4
100162f2:	2a24      	cmp	r2, #36	@ 0x24
100162f4:	f200 80d7 	bhi.w	100164a6 <_realloc_r+0x25e>
100162f8:	2a13      	cmp	r2, #19
100162fa:	f200 80a2 	bhi.w	10016442 <_realloc_r+0x1fa>
100162fe:	4603      	mov	r3, r0
10016300:	4622      	mov	r2, r4
10016302:	6811      	ldr	r1, [r2, #0]
10016304:	6019      	str	r1, [r3, #0]
10016306:	6851      	ldr	r1, [r2, #4]
10016308:	6059      	str	r1, [r3, #4]
1001630a:	6892      	ldr	r2, [r2, #8]
1001630c:	609a      	str	r2, [r3, #8]
1001630e:	4621      	mov	r1, r4
10016310:	4640      	mov	r0, r8
10016312:	f000 f997 	bl	10016644 <_free_r>
10016316:	4640      	mov	r0, r8
10016318:	f7fe fc8c 	bl	10014c34 <__malloc_unlock>
1001631c:	4630      	mov	r0, r6
1001631e:	e8bd 8ff8 	ldmia.w	sp!, {r3, r4, r5, r6, r7, r8, r9, sl, fp, pc}
10016322:	f035 0507 	bics.w	r5, r5, #7
10016326:	d5a4      	bpl.n	10016272 <_realloc_r+0x2a>
10016328:	230c      	movs	r3, #12
1001632a:	f8c8 3000 	str.w	r3, [r8]
1001632e:	2600      	movs	r6, #0
10016330:	e018      	b.n	10016364 <_realloc_r+0x11c>
10016332:	461f      	mov	r7, r3
10016334:	e9dc 2302 	ldrd	r2, r3, [ip, #8]
10016338:	60d3      	str	r3, [r2, #12]
1001633a:	609a      	str	r2, [r3, #8]
1001633c:	f8d9 3004 	ldr.w	r3, [r9, #4]
10016340:	1b7a      	subs	r2, r7, r5
10016342:	2a0f      	cmp	r2, #15
10016344:	f003 0301 	and.w	r3, r3, #1
10016348:	eb09 0007 	add.w	r0, r9, r7
1001634c:	d81d      	bhi.n	1001638a <_realloc_r+0x142>
1001634e:	433b      	orrs	r3, r7
10016350:	f8c9 3004 	str.w	r3, [r9, #4]
10016354:	6843      	ldr	r3, [r0, #4]
10016356:	f043 0301 	orr.w	r3, r3, #1
1001635a:	6043      	str	r3, [r0, #4]
1001635c:	4640      	mov	r0, r8
1001635e:	f7fe fc69 	bl	10014c34 <__malloc_unlock>
10016362:	4626      	mov	r6, r4
10016364:	4630      	mov	r0, r6
10016366:	e8bd 8ff8 	ldmia.w	sp!, {r3, r4, r5, r6, r7, r8, r9, sl, fp, pc}
1001636a:	07c9      	lsls	r1, r1, #31
1001636c:	d4ae      	bmi.n	100162cc <_realloc_r+0x84>
1001636e:	f854 3c08 	ldr.w	r3, [r4, #-8]
10016372:	eba9 0b03 	sub.w	fp, r9, r3
10016376:	f8db 3004 	ldr.w	r3, [fp, #4]
1001637a:	f023 0203 	bic.w	r2, r3, #3
1001637e:	e7a0      	b.n	100162c2 <_realloc_r+0x7a>
10016380:	e8bd 4ff8 	ldmia.w	sp!, {r3, r4, r5, r6, r7, r8, r9, sl, fp, lr}
10016384:	4611      	mov	r1, r2
10016386:	f7fd bf6f 	b.w	10014268 <_malloc_r>
1001638a:	eb09 0105 	add.w	r1, r9, r5
1001638e:	432b      	orrs	r3, r5
10016390:	f042 0201 	orr.w	r2, r2, #1
10016394:	f8c9 3004 	str.w	r3, [r9, #4]
10016398:	604a      	str	r2, [r1, #4]
1001639a:	6843      	ldr	r3, [r0, #4]
1001639c:	f043 0301 	orr.w	r3, r3, #1
100163a0:	6043      	str	r3, [r0, #4]
100163a2:	3108      	adds	r1, #8
100163a4:	4640      	mov	r0, r8
100163a6:	f000 f94d 	bl	10016644 <_free_r>
100163aa:	e7d7      	b.n	1001635c <_realloc_r+0x114>
100163ac:	f020 0003 	bic.w	r0, r0, #3
100163b0:	19c2      	adds	r2, r0, r7
100163b2:	f105 0c10 	add.w	ip, r5, #16
100163b6:	4562      	cmp	r2, ip
100163b8:	f280 8091 	bge.w	100164de <_realloc_r+0x296>
100163bc:	07ca      	lsls	r2, r1, #31
100163be:	d485      	bmi.n	100162cc <_realloc_r+0x84>
100163c0:	f854 2c08 	ldr.w	r2, [r4, #-8]
100163c4:	eba9 0b02 	sub.w	fp, r9, r2
100163c8:	f8db 2004 	ldr.w	r2, [fp, #4]
100163cc:	f022 0203 	bic.w	r2, r2, #3
100163d0:	4410      	add	r0, r2
100163d2:	eb00 0a07 	add.w	sl, r0, r7
100163d6:	45d4      	cmp	ip, sl
100163d8:	f73f af73 	bgt.w	100162c2 <_realloc_r+0x7a>
100163dc:	465e      	mov	r6, fp
100163de:	f8db 100c 	ldr.w	r1, [fp, #12]
100163e2:	f856 0f08 	ldr.w	r0, [r6, #8]!
100163e6:	1f3a      	subs	r2, r7, #4
100163e8:	2a24      	cmp	r2, #36	@ 0x24
100163ea:	60c1      	str	r1, [r0, #12]
100163ec:	6088      	str	r0, [r1, #8]
100163ee:	f200 80ae 	bhi.w	1001654e <_realloc_r+0x306>
100163f2:	2a13      	cmp	r2, #19
100163f4:	f240 80a9 	bls.w	1001654a <_realloc_r+0x302>
100163f8:	6821      	ldr	r1, [r4, #0]
100163fa:	f8cb 1008 	str.w	r1, [fp, #8]
100163fe:	6861      	ldr	r1, [r4, #4]
10016400:	f8cb 100c 	str.w	r1, [fp, #12]
10016404:	2a1b      	cmp	r2, #27
10016406:	f200 80a8 	bhi.w	1001655a <_realloc_r+0x312>
1001640a:	3408      	adds	r4, #8
1001640c:	f10b 0210 	add.w	r2, fp, #16
10016410:	6821      	ldr	r1, [r4, #0]
10016412:	6011      	str	r1, [r2, #0]
10016414:	6861      	ldr	r1, [r4, #4]
10016416:	6051      	str	r1, [r2, #4]
10016418:	68a1      	ldr	r1, [r4, #8]
1001641a:	6091      	str	r1, [r2, #8]
1001641c:	eb0b 0105 	add.w	r1, fp, r5
10016420:	ebaa 0205 	sub.w	r2, sl, r5
10016424:	f042 0201 	orr.w	r2, r2, #1
10016428:	6099      	str	r1, [r3, #8]
1001642a:	604a      	str	r2, [r1, #4]
1001642c:	f8db 3004 	ldr.w	r3, [fp, #4]
10016430:	f003 0301 	and.w	r3, r3, #1
10016434:	432b      	orrs	r3, r5
10016436:	4640      	mov	r0, r8
10016438:	f8cb 3004 	str.w	r3, [fp, #4]
1001643c:	f7fe fbfa 	bl	10014c34 <__malloc_unlock>
10016440:	e790      	b.n	10016364 <_realloc_r+0x11c>
10016442:	6823      	ldr	r3, [r4, #0]
10016444:	6003      	str	r3, [r0, #0]
10016446:	6863      	ldr	r3, [r4, #4]
10016448:	6043      	str	r3, [r0, #4]
1001644a:	2a1b      	cmp	r2, #27
1001644c:	d83c      	bhi.n	100164c8 <_realloc_r+0x280>
1001644e:	f104 0208 	add.w	r2, r4, #8
10016452:	f100 0308 	add.w	r3, r0, #8
10016456:	e754      	b.n	10016302 <_realloc_r+0xba>
10016458:	f850 3c04 	ldr.w	r3, [r0, #-4]
1001645c:	f023 0303 	bic.w	r3, r3, #3
10016460:	441f      	add	r7, r3
10016462:	e76b      	b.n	1001633c <_realloc_r+0xf4>
10016464:	1f3a      	subs	r2, r7, #4
10016466:	465e      	mov	r6, fp
10016468:	f8db 300c 	ldr.w	r3, [fp, #12]
1001646c:	f856 1f08 	ldr.w	r1, [r6, #8]!
10016470:	2a24      	cmp	r2, #36	@ 0x24
10016472:	60cb      	str	r3, [r1, #12]
10016474:	6099      	str	r1, [r3, #8]
10016476:	d822      	bhi.n	100164be <_realloc_r+0x276>
10016478:	2a13      	cmp	r2, #19
1001647a:	d91e      	bls.n	100164ba <_realloc_r+0x272>
1001647c:	6823      	ldr	r3, [r4, #0]
1001647e:	f8cb 3008 	str.w	r3, [fp, #8]
10016482:	6863      	ldr	r3, [r4, #4]
10016484:	f8cb 300c 	str.w	r3, [fp, #12]
10016488:	2a1b      	cmp	r2, #27
1001648a:	d83b      	bhi.n	10016504 <_realloc_r+0x2bc>
1001648c:	3408      	adds	r4, #8
1001648e:	f10b 0310 	add.w	r3, fp, #16
10016492:	6822      	ldr	r2, [r4, #0]
10016494:	601a      	str	r2, [r3, #0]
10016496:	6862      	ldr	r2, [r4, #4]
10016498:	605a      	str	r2, [r3, #4]
1001649a:	68a2      	ldr	r2, [r4, #8]
1001649c:	609a      	str	r2, [r3, #8]
1001649e:	4634      	mov	r4, r6
100164a0:	4657      	mov	r7, sl
100164a2:	46d9      	mov	r9, fp
100164a4:	e74a      	b.n	1001633c <_realloc_r+0xf4>
100164a6:	4621      	mov	r1, r4
100164a8:	f7fe f9a2 	bl	100147f0 <memmove>
100164ac:	e72f      	b.n	1001630e <_realloc_r+0xc6>
100164ae:	e9dc 1302 	ldrd	r1, r3, [ip, #8]
100164b2:	1f3a      	subs	r2, r7, #4
100164b4:	60cb      	str	r3, [r1, #12]
100164b6:	6099      	str	r1, [r3, #8]
100164b8:	e7d5      	b.n	10016466 <_realloc_r+0x21e>
100164ba:	4633      	mov	r3, r6
100164bc:	e7e9      	b.n	10016492 <_realloc_r+0x24a>
100164be:	4621      	mov	r1, r4
100164c0:	4630      	mov	r0, r6
100164c2:	f7fe f995 	bl	100147f0 <memmove>
100164c6:	e7ea      	b.n	1001649e <_realloc_r+0x256>
100164c8:	68a3      	ldr	r3, [r4, #8]
100164ca:	6083      	str	r3, [r0, #8]
100164cc:	68e3      	ldr	r3, [r4, #12]
100164ce:	60c3      	str	r3, [r0, #12]
100164d0:	2a24      	cmp	r2, #36	@ 0x24
100164d2:	d027      	beq.n	10016524 <_realloc_r+0x2dc>
100164d4:	f104 0210 	add.w	r2, r4, #16
100164d8:	f100 0310 	add.w	r3, r0, #16
100164dc:	e711      	b.n	10016302 <_realloc_r+0xba>
100164de:	eb09 0105 	add.w	r1, r9, r5
100164e2:	6099      	str	r1, [r3, #8]
100164e4:	1b53      	subs	r3, r2, r5
100164e6:	f043 0301 	orr.w	r3, r3, #1
100164ea:	604b      	str	r3, [r1, #4]
100164ec:	f854 3c04 	ldr.w	r3, [r4, #-4]
100164f0:	f003 0301 	and.w	r3, r3, #1
100164f4:	432b      	orrs	r3, r5
100164f6:	4640      	mov	r0, r8
100164f8:	f844 3c04 	str.w	r3, [r4, #-4]
100164fc:	f7fe fb9a 	bl	10014c34 <__malloc_unlock>
10016500:	4626      	mov	r6, r4
10016502:	e72f      	b.n	10016364 <_realloc_r+0x11c>
10016504:	68a3      	ldr	r3, [r4, #8]
10016506:	f8cb 3010 	str.w	r3, [fp, #16]
1001650a:	68e3      	ldr	r3, [r4, #12]
1001650c:	f8cb 3014 	str.w	r3, [fp, #20]
10016510:	2a24      	cmp	r2, #36	@ 0x24
10016512:	d010      	beq.n	10016536 <_realloc_r+0x2ee>
10016514:	3410      	adds	r4, #16
10016516:	f10b 0318 	add.w	r3, fp, #24
1001651a:	e7ba      	b.n	10016492 <_realloc_r+0x24a>
1001651c:	4640      	mov	r0, r8
1001651e:	f7fe fb89 	bl	10014c34 <__malloc_unlock>
10016522:	e704      	b.n	1001632e <_realloc_r+0xe6>
10016524:	6923      	ldr	r3, [r4, #16]
10016526:	6103      	str	r3, [r0, #16]
10016528:	6961      	ldr	r1, [r4, #20]
1001652a:	6141      	str	r1, [r0, #20]
1001652c:	f104 0218 	add.w	r2, r4, #24
10016530:	f100 0318 	add.w	r3, r0, #24
10016534:	e6e5      	b.n	10016302 <_realloc_r+0xba>
10016536:	6923      	ldr	r3, [r4, #16]
10016538:	f8cb 3018 	str.w	r3, [fp, #24]
1001653c:	6963      	ldr	r3, [r4, #20]
1001653e:	f8cb 301c 	str.w	r3, [fp, #28]
10016542:	3418      	adds	r4, #24
10016544:	f10b 0320 	add.w	r3, fp, #32
10016548:	e7a3      	b.n	10016492 <_realloc_r+0x24a>
1001654a:	4632      	mov	r2, r6
1001654c:	e760      	b.n	10016410 <_realloc_r+0x1c8>
1001654e:	4621      	mov	r1, r4
10016550:	4630      	mov	r0, r6
10016552:	f7fe f94d 	bl	100147f0 <memmove>
10016556:	4b07      	ldr	r3, [pc, #28]	@ (10016574 <_realloc_r+0x32c>)
10016558:	e760      	b.n	1001641c <_realloc_r+0x1d4>
1001655a:	68a1      	ldr	r1, [r4, #8]
1001655c:	f8cb 1010 	str.w	r1, [fp, #16]
10016560:	68e1      	ldr	r1, [r4, #12]
10016562:	f8cb 1014 	str.w	r1, [fp, #20]
10016566:	2a24      	cmp	r2, #36	@ 0x24
10016568:	d006      	beq.n	10016578 <_realloc_r+0x330>
1001656a:	3410      	adds	r4, #16
1001656c:	f10b 0218 	add.w	r2, fp, #24
10016570:	e74e      	b.n	10016410 <_realloc_r+0x1c8>
10016572:	bf00      	nop
10016574:	20000050 	.word	0x20000050
10016578:	6922      	ldr	r2, [r4, #16]
1001657a:	f8cb 2018 	str.w	r2, [fp, #24]
1001657e:	6962      	ldr	r2, [r4, #20]
10016580:	f8cb 201c 	str.w	r2, [fp, #28]
10016584:	3418      	adds	r4, #24
10016586:	f10b 0220 	add.w	r2, fp, #32
1001658a:	e741      	b.n	10016410 <_realloc_r+0x1c8>

1001658c <_malloc_trim_r>:
1001658c:	e92d 43f8 	stmdb	sp!, {r3, r4, r5, r6, r7, r8, r9, lr}
10016590:	4606      	mov	r6, r0
10016592:	2008      	movs	r0, #8
10016594:	4689      	mov	r9, r1
10016596:	f7fe fad1 	bl	10014b3c <sysconf>
1001659a:	f8df 80a4 	ldr.w	r8, [pc, #164]	@ 10016640 <_malloc_trim_r+0xb4>
1001659e:	4605      	mov	r5, r0
100165a0:	4630      	mov	r0, r6
100165a2:	f7fe fb41 	bl	10014c28 <__malloc_lock>
100165a6:	f8d8 3008 	ldr.w	r3, [r8, #8]
100165aa:	685f      	ldr	r7, [r3, #4]
100165ac:	f027 0703 	bic.w	r7, r7, #3
100165b0:	f1a7 0411 	sub.w	r4, r7, #17
100165b4:	eba4 0409 	sub.w	r4, r4, r9
100165b8:	442c      	add	r4, r5
100165ba:	fbb4 f4f5 	udiv	r4, r4, r5
100165be:	3c01      	subs	r4, #1
100165c0:	fb05 f404 	mul.w	r4, r5, r4
100165c4:	42a5      	cmp	r5, r4
100165c6:	dc08      	bgt.n	100165da <_malloc_trim_r+0x4e>
100165c8:	2100      	movs	r1, #0
100165ca:	4630      	mov	r0, r6
100165cc:	f000 f988 	bl	100168e0 <_sbrk_r>
100165d0:	f8d8 3008 	ldr.w	r3, [r8, #8]
100165d4:	443b      	add	r3, r7
100165d6:	4298      	cmp	r0, r3
100165d8:	d005      	beq.n	100165e6 <_malloc_trim_r+0x5a>
100165da:	4630      	mov	r0, r6
100165dc:	f7fe fb2a 	bl	10014c34 <__malloc_unlock>
100165e0:	2000      	movs	r0, #0
100165e2:	e8bd 83f8 	ldmia.w	sp!, {r3, r4, r5, r6, r7, r8, r9, pc}
100165e6:	4261      	negs	r1, r4
100165e8:	4630      	mov	r0, r6
100165ea:	f000 f979 	bl	100168e0 <_sbrk_r>
100165ee:	3001      	adds	r0, #1
100165f0:	d00f      	beq.n	10016612 <_malloc_trim_r+0x86>
100165f2:	4a11      	ldr	r2, [pc, #68]	@ (10016638 <_malloc_trim_r+0xac>)
100165f4:	f8d8 3008 	ldr.w	r3, [r8, #8]
100165f8:	1b3f      	subs	r7, r7, r4
100165fa:	f047 0701 	orr.w	r7, r7, #1
100165fe:	605f      	str	r7, [r3, #4]
10016600:	6813      	ldr	r3, [r2, #0]
10016602:	4630      	mov	r0, r6
10016604:	1b1b      	subs	r3, r3, r4
10016606:	6013      	str	r3, [r2, #0]
10016608:	f7fe fb14 	bl	10014c34 <__malloc_unlock>
1001660c:	2001      	movs	r0, #1
1001660e:	e8bd 83f8 	ldmia.w	sp!, {r3, r4, r5, r6, r7, r8, r9, pc}
10016612:	2100      	movs	r1, #0
10016614:	4630      	mov	r0, r6
10016616:	f000 f963 	bl	100168e0 <_sbrk_r>
1001661a:	f8d8 2008 	ldr.w	r2, [r8, #8]
1001661e:	1a83      	subs	r3, r0, r2
10016620:	2b0f      	cmp	r3, #15
10016622:	ddda      	ble.n	100165da <_malloc_trim_r+0x4e>
10016624:	f043 0301 	orr.w	r3, r3, #1
10016628:	6053      	str	r3, [r2, #4]
1001662a:	4b04      	ldr	r3, [pc, #16]	@ (1001663c <_malloc_trim_r+0xb0>)
1001662c:	4902      	ldr	r1, [pc, #8]	@ (10016638 <_malloc_trim_r+0xac>)
1001662e:	681b      	ldr	r3, [r3, #0]
10016630:	1ac0      	subs	r0, r0, r3
10016632:	6008      	str	r0, [r1, #0]
10016634:	e7d1      	b.n	100165da <_malloc_trim_r+0x4e>
10016636:	bf00      	nop
10016638:	2000163c 	.word	0x2000163c
1001663c:	20000048 	.word	0x20000048
10016640:	20000050 	.word	0x20000050

10016644 <_free_r>:
10016644:	2900      	cmp	r1, #0
10016646:	d07c      	beq.n	10016742 <_free_r+0xfe>
10016648:	e92d 41f0 	stmdb	sp!, {r4, r5, r6, r7, r8, lr}
1001664c:	460c      	mov	r4, r1
1001664e:	4680      	mov	r8, r0
10016650:	f7fe faea 	bl	10014c28 <__malloc_lock>
10016654:	f854 3c04 	ldr.w	r3, [r4, #-4]
10016658:	4f76      	ldr	r7, [pc, #472]	@ (10016834 <_free_r+0x1f0>)
1001665a:	f1a4 0508 	sub.w	r5, r4, #8
1001665e:	f023 0101 	bic.w	r1, r3, #1
10016662:	1868      	adds	r0, r5, r1
10016664:	68be      	ldr	r6, [r7, #8]
10016666:	6842      	ldr	r2, [r0, #4]
10016668:	4286      	cmp	r6, r0
1001666a:	f022 0203 	bic.w	r2, r2, #3
1001666e:	f000 8083 	beq.w	10016778 <_free_r+0x134>
10016672:	07de      	lsls	r6, r3, #31
10016674:	6042      	str	r2, [r0, #4]
10016676:	eb00 0c02 	add.w	ip, r0, r2
1001667a:	d433      	bmi.n	100166e4 <_free_r+0xa0>
1001667c:	f854 4c08 	ldr.w	r4, [r4, #-8]
10016680:	f8dc 3004 	ldr.w	r3, [ip, #4]
10016684:	1b2d      	subs	r5, r5, r4
10016686:	4421      	add	r1, r4
10016688:	68ac      	ldr	r4, [r5, #8]
1001668a:	f107 0c08 	add.w	ip, r7, #8
1001668e:	4564      	cmp	r4, ip
10016690:	f003 0301 	and.w	r3, r3, #1
10016694:	d064      	beq.n	10016760 <_free_r+0x11c>
10016696:	f8d5 e00c 	ldr.w	lr, [r5, #12]
1001669a:	f8c4 e00c 	str.w	lr, [r4, #12]
1001669e:	f8ce 4008 	str.w	r4, [lr, #8]
100166a2:	2b00      	cmp	r3, #0
100166a4:	f000 8081 	beq.w	100167aa <_free_r+0x166>
100166a8:	f041 0301 	orr.w	r3, r1, #1
100166ac:	606b      	str	r3, [r5, #4]
100166ae:	6001      	str	r1, [r0, #0]
100166b0:	f5b1 7f00 	cmp.w	r1, #512	@ 0x200
100166b4:	d222      	bcs.n	100166fc <_free_r+0xb8>
100166b6:	6878      	ldr	r0, [r7, #4]
100166b8:	08cb      	lsrs	r3, r1, #3
100166ba:	2201      	movs	r2, #1
100166bc:	0949      	lsrs	r1, r1, #5
100166be:	3301      	adds	r3, #1
100166c0:	408a      	lsls	r2, r1
100166c2:	4302      	orrs	r2, r0
100166c4:	f857 1033 	ldr.w	r1, [r7, r3, lsl #3]
100166c8:	607a      	str	r2, [r7, #4]
100166ca:	eb07 02c3 	add.w	r2, r7, r3, lsl #3
100166ce:	3a08      	subs	r2, #8
100166d0:	e9c5 1202 	strd	r1, r2, [r5, #8]
100166d4:	f847 5033 	str.w	r5, [r7, r3, lsl #3]
100166d8:	60cd      	str	r5, [r1, #12]
100166da:	4640      	mov	r0, r8
100166dc:	e8bd 41f0 	ldmia.w	sp!, {r4, r5, r6, r7, r8, lr}
100166e0:	f7fe baa8 	b.w	10014c34 <__malloc_unlock>
100166e4:	f8dc 3004 	ldr.w	r3, [ip, #4]
100166e8:	07db      	lsls	r3, r3, #31
100166ea:	d52b      	bpl.n	10016744 <_free_r+0x100>
100166ec:	f041 0301 	orr.w	r3, r1, #1
100166f0:	f5b1 7f00 	cmp.w	r1, #512	@ 0x200
100166f4:	f844 3c04 	str.w	r3, [r4, #-4]
100166f8:	6001      	str	r1, [r0, #0]
100166fa:	d3dc      	bcc.n	100166b6 <_free_r+0x72>
100166fc:	f5b1 6f20 	cmp.w	r1, #2560	@ 0xa00
10016700:	ea4f 2351 	mov.w	r3, r1, lsr #9
10016704:	d253      	bcs.n	100167ae <_free_r+0x16a>
10016706:	098b      	lsrs	r3, r1, #6
10016708:	f103 0039 	add.w	r0, r3, #57	@ 0x39
1001670c:	f103 0238 	add.w	r2, r3, #56	@ 0x38
10016710:	00c3      	lsls	r3, r0, #3
10016712:	18f8      	adds	r0, r7, r3
10016714:	58fb      	ldr	r3, [r7, r3]
10016716:	3808      	subs	r0, #8
10016718:	4298      	cmp	r0, r3
1001671a:	d103      	bne.n	10016724 <_free_r+0xe0>
1001671c:	e063      	b.n	100167e6 <_free_r+0x1a2>
1001671e:	689b      	ldr	r3, [r3, #8]
10016720:	4298      	cmp	r0, r3
10016722:	d004      	beq.n	1001672e <_free_r+0xea>
10016724:	685a      	ldr	r2, [r3, #4]
10016726:	f022 0203 	bic.w	r2, r2, #3
1001672a:	428a      	cmp	r2, r1
1001672c:	d8f7      	bhi.n	1001671e <_free_r+0xda>
1001672e:	68d8      	ldr	r0, [r3, #12]
10016730:	e9c5 3002 	strd	r3, r0, [r5, #8]
10016734:	6085      	str	r5, [r0, #8]
10016736:	60dd      	str	r5, [r3, #12]
10016738:	4640      	mov	r0, r8
1001673a:	e8bd 41f0 	ldmia.w	sp!, {r4, r5, r6, r7, r8, lr}
1001673e:	f7fe ba79 	b.w	10014c34 <__malloc_unlock>
10016742:	4770      	bx	lr
10016744:	4411      	add	r1, r2
10016746:	f107 0c08 	add.w	ip, r7, #8
1001674a:	6883      	ldr	r3, [r0, #8]
1001674c:	4563      	cmp	r3, ip
1001674e:	d03f      	beq.n	100167d0 <_free_r+0x18c>
10016750:	68c2      	ldr	r2, [r0, #12]
10016752:	60da      	str	r2, [r3, #12]
10016754:	6093      	str	r3, [r2, #8]
10016756:	f041 0301 	orr.w	r3, r1, #1
1001675a:	606b      	str	r3, [r5, #4]
1001675c:	5069      	str	r1, [r5, r1]
1001675e:	e7a7      	b.n	100166b0 <_free_r+0x6c>
10016760:	2b00      	cmp	r3, #0
10016762:	d161      	bne.n	10016828 <_free_r+0x1e4>
10016764:	440a      	add	r2, r1
10016766:	e9d0 1302 	ldrd	r1, r3, [r0, #8]
1001676a:	60cb      	str	r3, [r1, #12]
1001676c:	6099      	str	r1, [r3, #8]
1001676e:	f042 0301 	orr.w	r3, r2, #1
10016772:	606b      	str	r3, [r5, #4]
10016774:	50aa      	str	r2, [r5, r2]
10016776:	e7b0      	b.n	100166da <_free_r+0x96>
10016778:	07db      	lsls	r3, r3, #31
1001677a:	440a      	add	r2, r1
1001677c:	d407      	bmi.n	1001678e <_free_r+0x14a>
1001677e:	f854 3c08 	ldr.w	r3, [r4, #-8]
10016782:	1aed      	subs	r5, r5, r3
10016784:	441a      	add	r2, r3
10016786:	e9d5 1302 	ldrd	r1, r3, [r5, #8]
1001678a:	60cb      	str	r3, [r1, #12]
1001678c:	6099      	str	r1, [r3, #8]
1001678e:	f042 0301 	orr.w	r3, r2, #1
10016792:	606b      	str	r3, [r5, #4]
10016794:	4b28      	ldr	r3, [pc, #160]	@ (10016838 <_free_r+0x1f4>)
10016796:	60bd      	str	r5, [r7, #8]
10016798:	681b      	ldr	r3, [r3, #0]
1001679a:	4293      	cmp	r3, r2
1001679c:	d89d      	bhi.n	100166da <_free_r+0x96>
1001679e:	4b27      	ldr	r3, [pc, #156]	@ (1001683c <_free_r+0x1f8>)
100167a0:	4640      	mov	r0, r8
100167a2:	6819      	ldr	r1, [r3, #0]
100167a4:	f7ff fef2 	bl	1001658c <_malloc_trim_r>
100167a8:	e797      	b.n	100166da <_free_r+0x96>
100167aa:	4411      	add	r1, r2
100167ac:	e7cd      	b.n	1001674a <_free_r+0x106>
100167ae:	2b14      	cmp	r3, #20
100167b0:	d908      	bls.n	100167c4 <_free_r+0x180>
100167b2:	2b54      	cmp	r3, #84	@ 0x54
100167b4:	d81f      	bhi.n	100167f6 <_free_r+0x1b2>
100167b6:	0b0b      	lsrs	r3, r1, #12
100167b8:	f103 006f 	add.w	r0, r3, #111	@ 0x6f
100167bc:	f103 026e 	add.w	r2, r3, #110	@ 0x6e
100167c0:	00c3      	lsls	r3, r0, #3
100167c2:	e7a6      	b.n	10016712 <_free_r+0xce>
100167c4:	f103 005c 	add.w	r0, r3, #92	@ 0x5c
100167c8:	f103 025b 	add.w	r2, r3, #91	@ 0x5b
100167cc:	00c3      	lsls	r3, r0, #3
100167ce:	e7a0      	b.n	10016712 <_free_r+0xce>
100167d0:	f041 0301 	orr.w	r3, r1, #1
100167d4:	613d      	str	r5, [r7, #16]
100167d6:	617d      	str	r5, [r7, #20]
100167d8:	f8c5 c008 	str.w	ip, [r5, #8]
100167dc:	f8c5 c00c 	str.w	ip, [r5, #12]
100167e0:	606b      	str	r3, [r5, #4]
100167e2:	5069      	str	r1, [r5, r1]
100167e4:	e779      	b.n	100166da <_free_r+0x96>
100167e6:	6879      	ldr	r1, [r7, #4]
100167e8:	1092      	asrs	r2, r2, #2
100167ea:	2401      	movs	r4, #1
100167ec:	fa04 f202 	lsl.w	r2, r4, r2
100167f0:	430a      	orrs	r2, r1
100167f2:	607a      	str	r2, [r7, #4]
100167f4:	e79c      	b.n	10016730 <_free_r+0xec>
100167f6:	f5b3 7faa 	cmp.w	r3, #340	@ 0x154
100167fa:	d806      	bhi.n	1001680a <_free_r+0x1c6>
100167fc:	0bcb      	lsrs	r3, r1, #15
100167fe:	f103 0078 	add.w	r0, r3, #120	@ 0x78
10016802:	f103 0277 	add.w	r2, r3, #119	@ 0x77
10016806:	00c3      	lsls	r3, r0, #3
10016808:	e783      	b.n	10016712 <_free_r+0xce>
1001680a:	f240 5254 	movw	r2, #1364	@ 0x554
1001680e:	4293      	cmp	r3, r2
10016810:	d806      	bhi.n	10016820 <_free_r+0x1dc>
10016812:	0c8b      	lsrs	r3, r1, #18
10016814:	f103 007d 	add.w	r0, r3, #125	@ 0x7d
10016818:	f103 027c 	add.w	r2, r3, #124	@ 0x7c
1001681c:	00c3      	lsls	r3, r0, #3
1001681e:	e778      	b.n	10016712 <_free_r+0xce>
10016820:	f44f 737e 	mov.w	r3, #1016	@ 0x3f8
10016824:	227e      	movs	r2, #126	@ 0x7e
10016826:	e774      	b.n	10016712 <_free_r+0xce>
10016828:	f041 0301 	orr.w	r3, r1, #1
1001682c:	606b      	str	r3, [r5, #4]
1001682e:	6001      	str	r1, [r0, #0]
10016830:	e753      	b.n	100166da <_free_r+0x96>
10016832:	bf00      	nop
10016834:	20000050 	.word	0x20000050
10016838:	2000004c 	.word	0x2000004c
1001683c:	2000166c 	.word	0x2000166c

10016840 <_fstat_r>:
10016840:	b570      	push	{r4, r5, r6, lr}
10016842:	460c      	mov	r4, r1
10016844:	4d08      	ldr	r5, [pc, #32]	@ (10016868 <_fstat_r+0x28>)
10016846:	4603      	mov	r3, r0
10016848:	2600      	movs	r6, #0
1001684a:	4620      	mov	r0, r4
1001684c:	4611      	mov	r1, r2
1001684e:	461c      	mov	r4, r3
10016850:	602e      	str	r6, [r5, #0]
10016852:	f7fa fa5b 	bl	10010d0c <_fstat>
10016856:	1c43      	adds	r3, r0, #1
10016858:	d000      	beq.n	1001685c <_fstat_r+0x1c>
1001685a:	bd70      	pop	{r4, r5, r6, pc}
1001685c:	682b      	ldr	r3, [r5, #0]
1001685e:	2b00      	cmp	r3, #0
10016860:	d0fb      	beq.n	1001685a <_fstat_r+0x1a>
10016862:	6023      	str	r3, [r4, #0]
10016864:	bd70      	pop	{r4, r5, r6, pc}
10016866:	bf00      	nop
10016868:	20001680 	.word	0x20001680

1001686c <_lseek_r>:
1001686c:	b538      	push	{r3, r4, r5, lr}
1001686e:	460c      	mov	r4, r1
10016870:	4d08      	ldr	r5, [pc, #32]	@ (10016894 <_lseek_r+0x28>)
10016872:	4684      	mov	ip, r0
10016874:	4611      	mov	r1, r2
10016876:	4620      	mov	r0, r4
10016878:	461a      	mov	r2, r3
1001687a:	2300      	movs	r3, #0
1001687c:	602b      	str	r3, [r5, #0]
1001687e:	4664      	mov	r4, ip
10016880:	f7fa fa40 	bl	10010d04 <_lseek>
10016884:	1c43      	adds	r3, r0, #1
10016886:	d000      	beq.n	1001688a <_lseek_r+0x1e>
10016888:	bd38      	pop	{r3, r4, r5, pc}
1001688a:	682b      	ldr	r3, [r5, #0]
1001688c:	2b00      	cmp	r3, #0
1001688e:	d0fb      	beq.n	10016888 <_lseek_r+0x1c>
10016890:	6023      	str	r3, [r4, #0]
10016892:	bd38      	pop	{r3, r4, r5, pc}
10016894:	20001680 	.word	0x20001680

10016898 <_read_r>:
10016898:	b538      	push	{r3, r4, r5, lr}
1001689a:	460c      	mov	r4, r1
1001689c:	4d08      	ldr	r5, [pc, #32]	@ (100168c0 <_read_r+0x28>)
1001689e:	4684      	mov	ip, r0
100168a0:	4611      	mov	r1, r2
100168a2:	4620      	mov	r0, r4
100168a4:	461a      	mov	r2, r3
100168a6:	2300      	movs	r3, #0
100168a8:	602b      	str	r3, [r5, #0]
100168aa:	4664      	mov	r4, ip
100168ac:	f7fa fa32 	bl	10010d14 <_read>
100168b0:	1c43      	adds	r3, r0, #1
100168b2:	d000      	beq.n	100168b6 <_read_r+0x1e>
100168b4:	bd38      	pop	{r3, r4, r5, pc}
100168b6:	682b      	ldr	r3, [r5, #0]
100168b8:	2b00      	cmp	r3, #0
100168ba:	d0fb      	beq.n	100168b4 <_read_r+0x1c>
100168bc:	6023      	str	r3, [r4, #0]
100168be:	bd38      	pop	{r3, r4, r5, pc}
100168c0:	20001680 	.word	0x20001680

100168c4 <__ascii_wctomb>:
100168c4:	b149      	cbz	r1, 100168da <__ascii_wctomb+0x16>
100168c6:	2aff      	cmp	r2, #255	@ 0xff
100168c8:	d802      	bhi.n	100168d0 <__ascii_wctomb+0xc>
100168ca:	700a      	strb	r2, [r1, #0]
100168cc:	2001      	movs	r0, #1
100168ce:	4770      	bx	lr
100168d0:	238a      	movs	r3, #138	@ 0x8a
100168d2:	6003      	str	r3, [r0, #0]
100168d4:	f04f 30ff 	mov.w	r0, #4294967295	@ 0xffffffff
100168d8:	4770      	bx	lr
100168da:	4608      	mov	r0, r1
100168dc:	4770      	bx	lr
100168de:	bf00      	nop

100168e0 <_sbrk_r>:
100168e0:	b538      	push	{r3, r4, r5, lr}
100168e2:	4d07      	ldr	r5, [pc, #28]	@ (10016900 <_sbrk_r+0x20>)
100168e4:	2200      	movs	r2, #0
100168e6:	4604      	mov	r4, r0
100168e8:	4608      	mov	r0, r1
100168ea:	602a      	str	r2, [r5, #0]
100168ec:	f7fa fb8a 	bl	10011004 <_sbrk>
100168f0:	1c43      	adds	r3, r0, #1
100168f2:	d000      	beq.n	100168f6 <_sbrk_r+0x16>
100168f4:	bd38      	pop	{r3, r4, r5, pc}
100168f6:	682b      	ldr	r3, [r5, #0]
100168f8:	2b00      	cmp	r3, #0
100168fa:	d0fb      	beq.n	100168f4 <_sbrk_r+0x14>
100168fc:	6023      	str	r3, [r4, #0]
100168fe:	bd38      	pop	{r3, r4, r5, pc}
10016900:	20001680 	.word	0x20001680

10016904 <__sfvwrite_r>:
10016904:	6893      	ldr	r3, [r2, #8]
10016906:	2b00      	cmp	r3, #0
10016908:	f000 80f8 	beq.w	10016afc <__sfvwrite_r+0x1f8>
1001690c:	e92d 4ff0 	stmdb	sp!, {r4, r5, r6, r7, r8, r9, sl, fp, lr}
10016910:	f9b1 c00c 	ldrsh.w	ip, [r1, #12]
10016914:	f01c 0f08 	tst.w	ip, #8
10016918:	b083      	sub	sp, #12
1001691a:	4690      	mov	r8, r2
1001691c:	4681      	mov	r9, r0
1001691e:	460c      	mov	r4, r1
10016920:	d031      	beq.n	10016986 <__sfvwrite_r+0x82>
10016922:	690b      	ldr	r3, [r1, #16]
10016924:	b37b      	cbz	r3, 10016986 <__sfvwrite_r+0x82>
10016926:	f01c 0702 	ands.w	r7, ip, #2
1001692a:	f8d8 6000 	ldr.w	r6, [r8]
1001692e:	d038      	beq.n	100169a2 <__sfvwrite_r+0x9e>
10016930:	2700      	movs	r7, #0
10016932:	f8d4 b024 	ldr.w	fp, [r4, #36]	@ 0x24
10016936:	69e1      	ldr	r1, [r4, #28]
10016938:	f8df a2c4 	ldr.w	sl, [pc, #708]	@ 10016c00 <__sfvwrite_r+0x2fc>
1001693c:	463d      	mov	r5, r7
1001693e:	4555      	cmp	r5, sl
10016940:	462b      	mov	r3, r5
10016942:	463a      	mov	r2, r7
10016944:	bf28      	it	cs
10016946:	4653      	movcs	r3, sl
10016948:	4648      	mov	r0, r9
1001694a:	b1c5      	cbz	r5, 1001697e <__sfvwrite_r+0x7a>
1001694c:	47d8      	blx	fp
1001694e:	2800      	cmp	r0, #0
10016950:	f340 80ca 	ble.w	10016ae8 <__sfvwrite_r+0x1e4>
10016954:	f8d8 3008 	ldr.w	r3, [r8, #8]
10016958:	1a1b      	subs	r3, r3, r0
1001695a:	4407      	add	r7, r0
1001695c:	1a2d      	subs	r5, r5, r0
1001695e:	f8c8 3008 	str.w	r3, [r8, #8]
10016962:	2b00      	cmp	r3, #0
10016964:	f000 80b6 	beq.w	10016ad4 <__sfvwrite_r+0x1d0>
10016968:	4555      	cmp	r5, sl
1001696a:	462b      	mov	r3, r5
1001696c:	f8d4 b024 	ldr.w	fp, [r4, #36]	@ 0x24
10016970:	69e1      	ldr	r1, [r4, #28]
10016972:	bf28      	it	cs
10016974:	4653      	movcs	r3, sl
10016976:	463a      	mov	r2, r7
10016978:	4648      	mov	r0, r9
1001697a:	2d00      	cmp	r5, #0
1001697c:	d1e6      	bne.n	1001694c <__sfvwrite_r+0x48>
1001697e:	e9d6 7500 	ldrd	r7, r5, [r6]
10016982:	3608      	adds	r6, #8
10016984:	e7db      	b.n	1001693e <__sfvwrite_r+0x3a>
10016986:	4621      	mov	r1, r4
10016988:	4648      	mov	r0, r9
1001698a:	f003 f91f 	bl	10019bcc <__swsetup_r>
1001698e:	2800      	cmp	r0, #0
10016990:	f040 80af 	bne.w	10016af2 <__sfvwrite_r+0x1ee>
10016994:	f9b4 c00c 	ldrsh.w	ip, [r4, #12]
10016998:	f8d8 6000 	ldr.w	r6, [r8]
1001699c:	f01c 0702 	ands.w	r7, ip, #2
100169a0:	d1c6      	bne.n	10016930 <__sfvwrite_r+0x2c>
100169a2:	f01c 0a01 	ands.w	sl, ip, #1
100169a6:	d163      	bne.n	10016a70 <__sfvwrite_r+0x16c>
100169a8:	6823      	ldr	r3, [r4, #0]
100169aa:	68a1      	ldr	r1, [r4, #8]
100169ac:	4657      	mov	r7, sl
100169ae:	4618      	mov	r0, r3
100169b0:	468b      	mov	fp, r1
100169b2:	2f00      	cmp	r7, #0
100169b4:	d058      	beq.n	10016a68 <__sfvwrite_r+0x164>
100169b6:	f41c 7f00 	tst.w	ip, #512	@ 0x200
100169ba:	f000 80b5 	beq.w	10016b28 <__sfvwrite_r+0x224>
100169be:	42b9      	cmp	r1, r7
100169c0:	460a      	mov	r2, r1
100169c2:	f200 80e1 	bhi.w	10016b88 <__sfvwrite_r+0x284>
100169c6:	f41c 6f90 	tst.w	ip, #1152	@ 0x480
100169ca:	d02f      	beq.n	10016a2c <__sfvwrite_r+0x128>
100169cc:	6921      	ldr	r1, [r4, #16]
100169ce:	6962      	ldr	r2, [r4, #20]
100169d0:	1a5d      	subs	r5, r3, r1
100169d2:	eb02 0242 	add.w	r2, r2, r2, lsl #1
100169d6:	eb02 72d2 	add.w	r2, r2, r2, lsr #31
100169da:	1c6b      	adds	r3, r5, #1
100169dc:	1052      	asrs	r2, r2, #1
100169de:	443b      	add	r3, r7
100169e0:	4293      	cmp	r3, r2
100169e2:	bf92      	itee	ls
100169e4:	4693      	movls	fp, r2
100169e6:	469b      	movhi	fp, r3
100169e8:	461a      	movhi	r2, r3
100169ea:	f41c 6f80 	tst.w	ip, #1024	@ 0x400
100169ee:	f000 80ea 	beq.w	10016bc6 <__sfvwrite_r+0x2c2>
100169f2:	4611      	mov	r1, r2
100169f4:	4648      	mov	r0, r9
100169f6:	f7fd fc37 	bl	10014268 <_malloc_r>
100169fa:	2800      	cmp	r0, #0
100169fc:	f000 80f9 	beq.w	10016bf2 <__sfvwrite_r+0x2ee>
10016a00:	462a      	mov	r2, r5
10016a02:	6921      	ldr	r1, [r4, #16]
10016a04:	9000      	str	r0, [sp, #0]
10016a06:	f7ff fadb 	bl	10015fc0 <memcpy>
10016a0a:	89a2      	ldrh	r2, [r4, #12]
10016a0c:	9b00      	ldr	r3, [sp, #0]
10016a0e:	f422 6290 	bic.w	r2, r2, #1152	@ 0x480
10016a12:	f042 0280 	orr.w	r2, r2, #128	@ 0x80
10016a16:	81a2      	strh	r2, [r4, #12]
10016a18:	1958      	adds	r0, r3, r5
10016a1a:	ebab 0505 	sub.w	r5, fp, r5
10016a1e:	f8c4 b014 	str.w	fp, [r4, #20]
10016a22:	6123      	str	r3, [r4, #16]
10016a24:	60a5      	str	r5, [r4, #8]
10016a26:	6020      	str	r0, [r4, #0]
10016a28:	46bb      	mov	fp, r7
10016a2a:	463a      	mov	r2, r7
10016a2c:	4651      	mov	r1, sl
10016a2e:	9200      	str	r2, [sp, #0]
10016a30:	f7fd fede 	bl	100147f0 <memmove>
10016a34:	68a1      	ldr	r1, [r4, #8]
10016a36:	6823      	ldr	r3, [r4, #0]
10016a38:	9a00      	ldr	r2, [sp, #0]
10016a3a:	eba1 010b 	sub.w	r1, r1, fp
10016a3e:	441a      	add	r2, r3
10016a40:	463d      	mov	r5, r7
10016a42:	60a1      	str	r1, [r4, #8]
10016a44:	6022      	str	r2, [r4, #0]
10016a46:	2700      	movs	r7, #0
10016a48:	f8d8 3008 	ldr.w	r3, [r8, #8]
10016a4c:	1b5b      	subs	r3, r3, r5
10016a4e:	44aa      	add	sl, r5
10016a50:	f8c8 3008 	str.w	r3, [r8, #8]
10016a54:	2b00      	cmp	r3, #0
10016a56:	d03d      	beq.n	10016ad4 <__sfvwrite_r+0x1d0>
10016a58:	6823      	ldr	r3, [r4, #0]
10016a5a:	68a1      	ldr	r1, [r4, #8]
10016a5c:	f9b4 c00c 	ldrsh.w	ip, [r4, #12]
10016a60:	4618      	mov	r0, r3
10016a62:	468b      	mov	fp, r1
10016a64:	2f00      	cmp	r7, #0
10016a66:	d1a6      	bne.n	100169b6 <__sfvwrite_r+0xb2>
10016a68:	e9d6 a700 	ldrd	sl, r7, [r6]
10016a6c:	3608      	adds	r6, #8
10016a6e:	e79e      	b.n	100169ae <__sfvwrite_r+0xaa>
10016a70:	4638      	mov	r0, r7
10016a72:	46bb      	mov	fp, r7
10016a74:	463d      	mov	r5, r7
10016a76:	9700      	str	r7, [sp, #0]
10016a78:	2d00      	cmp	r5, #0
10016a7a:	d041      	beq.n	10016b00 <__sfvwrite_r+0x1fc>
10016a7c:	2800      	cmp	r0, #0
10016a7e:	d046      	beq.n	10016b0e <__sfvwrite_r+0x20a>
10016a80:	9a00      	ldr	r2, [sp, #0]
10016a82:	6820      	ldr	r0, [r4, #0]
10016a84:	68a1      	ldr	r1, [r4, #8]
10016a86:	e9d4 7304 	ldrd	r7, r3, [r4, #16]
10016a8a:	42aa      	cmp	r2, r5
10016a8c:	bf28      	it	cs
10016a8e:	462a      	movcs	r2, r5
10016a90:	42b8      	cmp	r0, r7
10016a92:	d904      	bls.n	10016a9e <__sfvwrite_r+0x19a>
10016a94:	eb01 0a03 	add.w	sl, r1, r3
10016a98:	4552      	cmp	r2, sl
10016a9a:	f300 8085 	bgt.w	10016ba8 <__sfvwrite_r+0x2a4>
10016a9e:	4293      	cmp	r3, r2
10016aa0:	dc75      	bgt.n	10016b8e <__sfvwrite_r+0x28a>
10016aa2:	69e1      	ldr	r1, [r4, #28]
10016aa4:	6a67      	ldr	r7, [r4, #36]	@ 0x24
10016aa6:	465a      	mov	r2, fp
10016aa8:	4648      	mov	r0, r9
10016aaa:	47b8      	blx	r7
10016aac:	f1b0 0a00 	subs.w	sl, r0, #0
10016ab0:	dd1a      	ble.n	10016ae8 <__sfvwrite_r+0x1e4>
10016ab2:	9b00      	ldr	r3, [sp, #0]
10016ab4:	ebb3 030a 	subs.w	r3, r3, sl
10016ab8:	9300      	str	r3, [sp, #0]
10016aba:	d00f      	beq.n	10016adc <__sfvwrite_r+0x1d8>
10016abc:	2001      	movs	r0, #1
10016abe:	f8d8 3008 	ldr.w	r3, [r8, #8]
10016ac2:	eba3 030a 	sub.w	r3, r3, sl
10016ac6:	44d3      	add	fp, sl
10016ac8:	eba5 050a 	sub.w	r5, r5, sl
10016acc:	f8c8 3008 	str.w	r3, [r8, #8]
10016ad0:	2b00      	cmp	r3, #0
10016ad2:	d1d1      	bne.n	10016a78 <__sfvwrite_r+0x174>
10016ad4:	2000      	movs	r0, #0
10016ad6:	b003      	add	sp, #12
10016ad8:	e8bd 8ff0 	ldmia.w	sp!, {r4, r5, r6, r7, r8, r9, sl, fp, pc}
10016adc:	4621      	mov	r1, r4
10016ade:	4648      	mov	r0, r9
10016ae0:	f7ff f926 	bl	10015d30 <_fflush_r>
10016ae4:	2800      	cmp	r0, #0
10016ae6:	d0ea      	beq.n	10016abe <__sfvwrite_r+0x1ba>
10016ae8:	f9b4 300c 	ldrsh.w	r3, [r4, #12]
10016aec:	f043 0340 	orr.w	r3, r3, #64	@ 0x40
10016af0:	81a3      	strh	r3, [r4, #12]
10016af2:	f04f 30ff 	mov.w	r0, #4294967295	@ 0xffffffff
10016af6:	b003      	add	sp, #12
10016af8:	e8bd 8ff0 	ldmia.w	sp!, {r4, r5, r6, r7, r8, r9, sl, fp, pc}
10016afc:	2000      	movs	r0, #0
10016afe:	4770      	bx	lr
10016b00:	6875      	ldr	r5, [r6, #4]
10016b02:	4633      	mov	r3, r6
10016b04:	3608      	adds	r6, #8
10016b06:	2d00      	cmp	r5, #0
10016b08:	d0fa      	beq.n	10016b00 <__sfvwrite_r+0x1fc>
10016b0a:	f8d3 b000 	ldr.w	fp, [r3]
10016b0e:	462a      	mov	r2, r5
10016b10:	210a      	movs	r1, #10
10016b12:	4658      	mov	r0, fp
10016b14:	f7ff fa04 	bl	10015f20 <memchr>
10016b18:	2800      	cmp	r0, #0
10016b1a:	d067      	beq.n	10016bec <__sfvwrite_r+0x2e8>
10016b1c:	3001      	adds	r0, #1
10016b1e:	eba0 030b 	sub.w	r3, r0, fp
10016b22:	9300      	str	r3, [sp, #0]
10016b24:	461a      	mov	r2, r3
10016b26:	e7ac      	b.n	10016a82 <__sfvwrite_r+0x17e>
10016b28:	6922      	ldr	r2, [r4, #16]
10016b2a:	429a      	cmp	r2, r3
10016b2c:	d314      	bcc.n	10016b58 <__sfvwrite_r+0x254>
10016b2e:	6962      	ldr	r2, [r4, #20]
10016b30:	42ba      	cmp	r2, r7
10016b32:	d811      	bhi.n	10016b58 <__sfvwrite_r+0x254>
10016b34:	f06f 4300 	mvn.w	r3, #2147483648	@ 0x80000000
10016b38:	42bb      	cmp	r3, r7
10016b3a:	bf28      	it	cs
10016b3c:	463b      	movcs	r3, r7
10016b3e:	6a65      	ldr	r5, [r4, #36]	@ 0x24
10016b40:	fb93 f3f2 	sdiv	r3, r3, r2
10016b44:	69e1      	ldr	r1, [r4, #28]
10016b46:	fb02 f303 	mul.w	r3, r2, r3
10016b4a:	4648      	mov	r0, r9
10016b4c:	4652      	mov	r2, sl
10016b4e:	47a8      	blx	r5
10016b50:	1e05      	subs	r5, r0, #0
10016b52:	ddc9      	ble.n	10016ae8 <__sfvwrite_r+0x1e4>
10016b54:	1b7f      	subs	r7, r7, r5
10016b56:	e777      	b.n	10016a48 <__sfvwrite_r+0x144>
10016b58:	42b9      	cmp	r1, r7
10016b5a:	bf28      	it	cs
10016b5c:	4639      	movcs	r1, r7
10016b5e:	460d      	mov	r5, r1
10016b60:	4618      	mov	r0, r3
10016b62:	460a      	mov	r2, r1
10016b64:	4651      	mov	r1, sl
10016b66:	f7fd fe43 	bl	100147f0 <memmove>
10016b6a:	68a1      	ldr	r1, [r4, #8]
10016b6c:	6823      	ldr	r3, [r4, #0]
10016b6e:	1b49      	subs	r1, r1, r5
10016b70:	442b      	add	r3, r5
10016b72:	60a1      	str	r1, [r4, #8]
10016b74:	6023      	str	r3, [r4, #0]
10016b76:	2900      	cmp	r1, #0
10016b78:	d1ec      	bne.n	10016b54 <__sfvwrite_r+0x250>
10016b7a:	4621      	mov	r1, r4
10016b7c:	4648      	mov	r0, r9
10016b7e:	f7ff f8d7 	bl	10015d30 <_fflush_r>
10016b82:	2800      	cmp	r0, #0
10016b84:	d0e6      	beq.n	10016b54 <__sfvwrite_r+0x250>
10016b86:	e7af      	b.n	10016ae8 <__sfvwrite_r+0x1e4>
10016b88:	46bb      	mov	fp, r7
10016b8a:	463a      	mov	r2, r7
10016b8c:	e74e      	b.n	10016a2c <__sfvwrite_r+0x128>
10016b8e:	4659      	mov	r1, fp
10016b90:	9201      	str	r2, [sp, #4]
10016b92:	f7fd fe2d 	bl	100147f0 <memmove>
10016b96:	9a01      	ldr	r2, [sp, #4]
10016b98:	68a3      	ldr	r3, [r4, #8]
10016b9a:	1a9b      	subs	r3, r3, r2
10016b9c:	60a3      	str	r3, [r4, #8]
10016b9e:	6823      	ldr	r3, [r4, #0]
10016ba0:	4413      	add	r3, r2
10016ba2:	6023      	str	r3, [r4, #0]
10016ba4:	4692      	mov	sl, r2
10016ba6:	e784      	b.n	10016ab2 <__sfvwrite_r+0x1ae>
10016ba8:	4659      	mov	r1, fp
10016baa:	4652      	mov	r2, sl
10016bac:	f7fd fe20 	bl	100147f0 <memmove>
10016bb0:	6823      	ldr	r3, [r4, #0]
10016bb2:	4453      	add	r3, sl
10016bb4:	6023      	str	r3, [r4, #0]
10016bb6:	4621      	mov	r1, r4
10016bb8:	4648      	mov	r0, r9
10016bba:	f7ff f8b9 	bl	10015d30 <_fflush_r>
10016bbe:	2800      	cmp	r0, #0
10016bc0:	f43f af77 	beq.w	10016ab2 <__sfvwrite_r+0x1ae>
10016bc4:	e790      	b.n	10016ae8 <__sfvwrite_r+0x1e4>
10016bc6:	4648      	mov	r0, r9
10016bc8:	f7ff fb3e 	bl	10016248 <_realloc_r>
10016bcc:	4603      	mov	r3, r0
10016bce:	2800      	cmp	r0, #0
10016bd0:	f47f af22 	bne.w	10016a18 <__sfvwrite_r+0x114>
10016bd4:	6921      	ldr	r1, [r4, #16]
10016bd6:	4648      	mov	r0, r9
10016bd8:	f7ff fd34 	bl	10016644 <_free_r>
10016bdc:	f9b4 300c 	ldrsh.w	r3, [r4, #12]
10016be0:	220c      	movs	r2, #12
10016be2:	f023 0380 	bic.w	r3, r3, #128	@ 0x80
10016be6:	f8c9 2000 	str.w	r2, [r9]
10016bea:	e77f      	b.n	10016aec <__sfvwrite_r+0x1e8>
10016bec:	1c6a      	adds	r2, r5, #1
10016bee:	9200      	str	r2, [sp, #0]
10016bf0:	e747      	b.n	10016a82 <__sfvwrite_r+0x17e>
10016bf2:	220c      	movs	r2, #12
10016bf4:	f9b4 300c 	ldrsh.w	r3, [r4, #12]
10016bf8:	f8c9 2000 	str.w	r2, [r9]
10016bfc:	e776      	b.n	10016aec <__sfvwrite_r+0x1e8>
10016bfe:	bf00      	nop
10016c00:	7ffffc00 	.word	0x7ffffc00

10016c04 <_fwalk_sglue>:
10016c04:	e92d 43f8 	stmdb	sp!, {r3, r4, r5, r6, r7, r8, r9, lr}
10016c08:	4680      	mov	r8, r0
10016c0a:	460f      	mov	r7, r1
10016c0c:	4616      	mov	r6, r2
10016c0e:	f04f 0900 	mov.w	r9, #0
10016c12:	e9d6 5401 	ldrd	r5, r4, [r6, #4]
10016c16:	3d01      	subs	r5, #1
10016c18:	d411      	bmi.n	10016c3e <_fwalk_sglue+0x3a>
10016c1a:	89a3      	ldrh	r3, [r4, #12]
10016c1c:	2b01      	cmp	r3, #1
10016c1e:	f105 35ff 	add.w	r5, r5, #4294967295	@ 0xffffffff
10016c22:	d908      	bls.n	10016c36 <_fwalk_sglue+0x32>
10016c24:	f9b4 300e 	ldrsh.w	r3, [r4, #14]
10016c28:	3301      	adds	r3, #1
10016c2a:	4621      	mov	r1, r4
10016c2c:	d003      	beq.n	10016c36 <_fwalk_sglue+0x32>
10016c2e:	4640      	mov	r0, r8
10016c30:	47b8      	blx	r7
10016c32:	ea49 0900 	orr.w	r9, r9, r0
10016c36:	1c6b      	adds	r3, r5, #1
10016c38:	f104 0468 	add.w	r4, r4, #104	@ 0x68
10016c3c:	d1ed      	bne.n	10016c1a <_fwalk_sglue+0x16>
10016c3e:	6836      	ldr	r6, [r6, #0]
10016c40:	2e00      	cmp	r6, #0
10016c42:	d1e6      	bne.n	10016c12 <_fwalk_sglue+0xe>
10016c44:	4648      	mov	r0, r9
10016c46:	e8bd 83f8 	ldmia.w	sp!, {r3, r4, r5, r6, r7, r8, r9, pc}
10016c4a:	bf00      	nop

10016c4c <__ssprint_r>:
10016c4c:	e92d 4ff0 	stmdb	sp!, {r4, r5, r6, r7, r8, r9, sl, fp, lr}
10016c50:	6893      	ldr	r3, [r2, #8]
10016c52:	6817      	ldr	r7, [r2, #0]
10016c54:	b083      	sub	sp, #12
10016c56:	4692      	mov	sl, r2
10016c58:	2b00      	cmp	r3, #0
10016c5a:	d074      	beq.n	10016d46 <__ssprint_r+0xfa>
10016c5c:	f04f 0b00 	mov.w	fp, #0
10016c60:	688b      	ldr	r3, [r1, #8]
10016c62:	680a      	ldr	r2, [r1, #0]
10016c64:	4681      	mov	r9, r0
10016c66:	460c      	mov	r4, r1
10016c68:	465d      	mov	r5, fp
10016c6a:	e045      	b.n	10016cf8 <__ssprint_r+0xac>
10016c6c:	f9b4 300c 	ldrsh.w	r3, [r4, #12]
10016c70:	f413 6f90 	tst.w	r3, #1152	@ 0x480
10016c74:	d02c      	beq.n	10016cd0 <__ssprint_r+0x84>
10016c76:	e9d4 0104 	ldrd	r0, r1, [r4, #16]
10016c7a:	1a16      	subs	r6, r2, r0
10016c7c:	eb01 0241 	add.w	r2, r1, r1, lsl #1
10016c80:	eb02 72d2 	add.w	r2, r2, r2, lsr #31
10016c84:	1c71      	adds	r1, r6, #1
10016c86:	1052      	asrs	r2, r2, #1
10016c88:	4429      	add	r1, r5
10016c8a:	4291      	cmp	r1, r2
10016c8c:	bf92      	itee	ls
10016c8e:	4690      	movls	r8, r2
10016c90:	4688      	movhi	r8, r1
10016c92:	460a      	movhi	r2, r1
10016c94:	055b      	lsls	r3, r3, #21
10016c96:	d539      	bpl.n	10016d0c <__ssprint_r+0xc0>
10016c98:	4611      	mov	r1, r2
10016c9a:	4648      	mov	r0, r9
10016c9c:	f7fd fae4 	bl	10014268 <_malloc_r>
10016ca0:	9001      	str	r0, [sp, #4]
10016ca2:	2800      	cmp	r0, #0
10016ca4:	d03d      	beq.n	10016d22 <__ssprint_r+0xd6>
10016ca6:	4632      	mov	r2, r6
10016ca8:	6921      	ldr	r1, [r4, #16]
10016caa:	f7ff f989 	bl	10015fc0 <memcpy>
10016cae:	89a2      	ldrh	r2, [r4, #12]
10016cb0:	9b01      	ldr	r3, [sp, #4]
10016cb2:	f422 6290 	bic.w	r2, r2, #1152	@ 0x480
10016cb6:	f042 0280 	orr.w	r2, r2, #128	@ 0x80
10016cba:	81a2      	strh	r2, [r4, #12]
10016cbc:	1998      	adds	r0, r3, r6
10016cbe:	eba8 0606 	sub.w	r6, r8, r6
10016cc2:	60a6      	str	r6, [r4, #8]
10016cc4:	f8c4 8014 	str.w	r8, [r4, #20]
10016cc8:	6123      	str	r3, [r4, #16]
10016cca:	6020      	str	r0, [r4, #0]
10016ccc:	46a8      	mov	r8, r5
10016cce:	462e      	mov	r6, r5
10016cd0:	4632      	mov	r2, r6
10016cd2:	4659      	mov	r1, fp
10016cd4:	f7fd fd8c 	bl	100147f0 <memmove>
10016cd8:	f8da 1008 	ldr.w	r1, [sl, #8]
10016cdc:	68a3      	ldr	r3, [r4, #8]
10016cde:	6822      	ldr	r2, [r4, #0]
10016ce0:	eba3 0308 	sub.w	r3, r3, r8
10016ce4:	4432      	add	r2, r6
10016ce6:	1b49      	subs	r1, r1, r5
10016ce8:	60a3      	str	r3, [r4, #8]
10016cea:	6022      	str	r2, [r4, #0]
10016cec:	f8ca 1008 	str.w	r1, [sl, #8]
10016cf0:	b349      	cbz	r1, 10016d46 <__ssprint_r+0xfa>
10016cf2:	e9d7 b500 	ldrd	fp, r5, [r7]
10016cf6:	3708      	adds	r7, #8
10016cf8:	4698      	mov	r8, r3
10016cfa:	4610      	mov	r0, r2
10016cfc:	2d00      	cmp	r5, #0
10016cfe:	d0f8      	beq.n	10016cf2 <__ssprint_r+0xa6>
10016d00:	429d      	cmp	r5, r3
10016d02:	461e      	mov	r6, r3
10016d04:	d2b2      	bcs.n	10016c6c <__ssprint_r+0x20>
10016d06:	46a8      	mov	r8, r5
10016d08:	462e      	mov	r6, r5
10016d0a:	e7e1      	b.n	10016cd0 <__ssprint_r+0x84>
10016d0c:	4601      	mov	r1, r0
10016d0e:	4648      	mov	r0, r9
10016d10:	f7ff fa9a 	bl	10016248 <_realloc_r>
10016d14:	4603      	mov	r3, r0
10016d16:	2800      	cmp	r0, #0
10016d18:	d1d0      	bne.n	10016cbc <__ssprint_r+0x70>
10016d1a:	6921      	ldr	r1, [r4, #16]
10016d1c:	4648      	mov	r0, r9
10016d1e:	f7ff fc91 	bl	10016644 <_free_r>
10016d22:	89a3      	ldrh	r3, [r4, #12]
10016d24:	220c      	movs	r2, #12
10016d26:	f043 0340 	orr.w	r3, r3, #64	@ 0x40
10016d2a:	f8c9 2000 	str.w	r2, [r9]
10016d2e:	f04f 30ff 	mov.w	r0, #4294967295	@ 0xffffffff
10016d32:	81a3      	strh	r3, [r4, #12]
10016d34:	2200      	movs	r2, #0
10016d36:	2300      	movs	r3, #0
10016d38:	f8ca 2008 	str.w	r2, [sl, #8]
10016d3c:	f8ca 3004 	str.w	r3, [sl, #4]
10016d40:	b003      	add	sp, #12
10016d42:	e8bd 8ff0 	ldmia.w	sp!, {r4, r5, r6, r7, r8, r9, sl, fp, pc}
10016d46:	2000      	movs	r0, #0
10016d48:	2300      	movs	r3, #0
10016d4a:	f8ca 3004 	str.w	r3, [sl, #4]
10016d4e:	b003      	add	sp, #12
10016d50:	e8bd 8ff0 	ldmia.w	sp!, {r4, r5, r6, r7, r8, r9, sl, fp, pc}
10016d54:	0000      	movs	r0, r0
	...

10016d58 <_vfprintf_r>:
10016d58:	e92d 4ff0 	stmdb	sp!, {r4, r5, r6, r7, r8, r9, sl, fp, lr}
10016d5c:	b0df      	sub	sp, #380	@ 0x17c
10016d5e:	461c      	mov	r4, r3
10016d60:	9107      	str	r1, [sp, #28]
10016d62:	4691      	mov	r9, r2
10016d64:	4683      	mov	fp, r0
10016d66:	f7fd fe85 	bl	10014a74 <_localeconv_r>
10016d6a:	6803      	ldr	r3, [r0, #0]
10016d6c:	9319      	str	r3, [sp, #100]	@ 0x64
10016d6e:	4618      	mov	r0, r3
10016d70:	f7ff f9c6 	bl	10016100 <strlen>
10016d74:	2208      	movs	r2, #8
10016d76:	9018      	str	r0, [sp, #96]	@ 0x60
10016d78:	2100      	movs	r1, #0
10016d7a:	a82e      	add	r0, sp, #184	@ 0xb8
10016d7c:	940d      	str	r4, [sp, #52]	@ 0x34
10016d7e:	f7fd fdb7 	bl	100148f0 <memset>
10016d82:	f1bb 0f00 	cmp.w	fp, #0
10016d86:	d004      	beq.n	10016d92 <_vfprintf_r+0x3a>
10016d88:	f8db 3034 	ldr.w	r3, [fp, #52]	@ 0x34
10016d8c:	2b00      	cmp	r3, #0
10016d8e:	f001 8087 	beq.w	10017ea0 <_vfprintf_r+0x1148>
10016d92:	9b07      	ldr	r3, [sp, #28]
10016d94:	6e5a      	ldr	r2, [r3, #100]	@ 0x64
10016d96:	f9b3 300c 	ldrsh.w	r3, [r3, #12]
10016d9a:	07d1      	lsls	r1, r2, #31
10016d9c:	d402      	bmi.n	10016da4 <_vfprintf_r+0x4c>
10016d9e:	059a      	lsls	r2, r3, #22
10016da0:	f140 86a7 	bpl.w	10017af2 <_vfprintf_r+0xd9a>
10016da4:	049f      	lsls	r7, r3, #18
10016da6:	d407      	bmi.n	10016db8 <_vfprintf_r+0x60>
10016da8:	9907      	ldr	r1, [sp, #28]
10016daa:	6e4a      	ldr	r2, [r1, #100]	@ 0x64
10016dac:	f443 5300 	orr.w	r3, r3, #8192	@ 0x2000
10016db0:	f422 5200 	bic.w	r2, r2, #8192	@ 0x2000
10016db4:	818b      	strh	r3, [r1, #12]
10016db6:	664a      	str	r2, [r1, #100]	@ 0x64
10016db8:	071e      	lsls	r6, r3, #28
10016dba:	f140 80cc 	bpl.w	10016f56 <_vfprintf_r+0x1fe>
10016dbe:	9a07      	ldr	r2, [sp, #28]
10016dc0:	6912      	ldr	r2, [r2, #16]
10016dc2:	2a00      	cmp	r2, #0
10016dc4:	f000 80c7 	beq.w	10016f56 <_vfprintf_r+0x1fe>
10016dc8:	f003 021a 	and.w	r2, r3, #26
10016dcc:	2a0a      	cmp	r2, #10
10016dce:	f000 80d1 	beq.w	10016f74 <_vfprintf_r+0x21c>
10016dd2:	ed9f 7b99 	vldr	d7, [pc, #612]	@ 10017038 <_vfprintf_r+0x2e0>
10016dd6:	2300      	movs	r3, #0
10016dd8:	e9cd 3333 	strd	r3, r3, [sp, #204]	@ 0xcc
10016ddc:	e9cd 331b 	strd	r3, r3, [sp, #108]	@ 0x6c
10016de0:	e9cd 331d 	strd	r3, r3, [sp, #116]	@ 0x74
10016de4:	ed8d 7b16 	vstr	d7, [sp, #88]	@ 0x58
10016de8:	aa35      	add	r2, sp, #212	@ 0xd4
10016dea:	9313      	str	r3, [sp, #76]	@ 0x4c
10016dec:	9232      	str	r2, [sp, #200]	@ 0xc8
10016dee:	4690      	mov	r8, r2
10016df0:	931a      	str	r3, [sp, #104]	@ 0x68
10016df2:	930a      	str	r3, [sp, #40]	@ 0x28
10016df4:	f8cd b020 	str.w	fp, [sp, #32]
10016df8:	464d      	mov	r5, r9
10016dfa:	9f08      	ldr	r7, [sp, #32]
10016dfc:	462e      	mov	r6, r5
10016dfe:	4b90      	ldr	r3, [pc, #576]	@ (10017040 <_vfprintf_r+0x2e8>)
10016e00:	f8d3 40e4 	ldr.w	r4, [r3, #228]	@ 0xe4
10016e04:	f7fd fe30 	bl	10014a68 <__locale_mb_cur_max>
10016e08:	4603      	mov	r3, r0
10016e0a:	a82e      	add	r0, sp, #184	@ 0xb8
10016e0c:	9000      	str	r0, [sp, #0]
10016e0e:	4632      	mov	r2, r6
10016e10:	a92a      	add	r1, sp, #168	@ 0xa8
10016e12:	4638      	mov	r0, r7
10016e14:	47a0      	blx	r4
10016e16:	2800      	cmp	r0, #0
10016e18:	f000 80cb 	beq.w	10016fb2 <_vfprintf_r+0x25a>
10016e1c:	f2c0 80c1 	blt.w	10016fa2 <_vfprintf_r+0x24a>
10016e20:	9a2a      	ldr	r2, [sp, #168]	@ 0xa8
10016e22:	2a25      	cmp	r2, #37	@ 0x25
10016e24:	4603      	mov	r3, r0
10016e26:	d001      	beq.n	10016e2c <_vfprintf_r+0xd4>
10016e28:	441e      	add	r6, r3
10016e2a:	e7e8      	b.n	10016dfe <_vfprintf_r+0xa6>
10016e2c:	1b77      	subs	r7, r6, r5
10016e2e:	4604      	mov	r4, r0
10016e30:	f040 80c2 	bne.w	10016fb8 <_vfprintf_r+0x260>
10016e34:	2300      	movs	r3, #0
10016e36:	f88d 309f 	strb.w	r3, [sp, #159]	@ 0x9f
10016e3a:	4699      	mov	r9, r3
10016e3c:	930b      	str	r3, [sp, #44]	@ 0x2c
10016e3e:	f04f 32ff 	mov.w	r2, #4294967295	@ 0xffffffff
10016e42:	7873      	ldrb	r3, [r6, #1]
10016e44:	9209      	str	r2, [sp, #36]	@ 0x24
10016e46:	1c74      	adds	r4, r6, #1
10016e48:	3401      	adds	r4, #1
10016e4a:	f1a3 0220 	sub.w	r2, r3, #32
10016e4e:	2a5a      	cmp	r2, #90	@ 0x5a
10016e50:	f200 80f8 	bhi.w	10017044 <_vfprintf_r+0x2ec>
10016e54:	e8df f012 	tbh	[pc, r2, lsl #1]
10016e58:	00f602d0 	.word	0x00f602d0
10016e5c:	02cc00f6 	.word	0x02cc00f6
10016e60:	00f600f6 	.word	0x00f600f6
10016e64:	006a00f6 	.word	0x006a00f6
10016e68:	00f600f6 	.word	0x00f600f6
10016e6c:	02a90286 	.word	0x02a90286
10016e70:	029100f6 	.word	0x029100f6
10016e74:	00f602b2 	.word	0x00f602b2
10016e78:	005b02ae 	.word	0x005b02ae
10016e7c:	005b005b 	.word	0x005b005b
10016e80:	005b005b 	.word	0x005b005b
10016e84:	005b005b 	.word	0x005b005b
10016e88:	005b005b 	.word	0x005b005b
10016e8c:	00f600f6 	.word	0x00f600f6
10016e90:	00f600f6 	.word	0x00f600f6
10016e94:	00f600f6 	.word	0x00f600f6
10016e98:	017700f6 	.word	0x017700f6
10016e9c:	021100f6 	.word	0x021100f6
10016ea0:	0177032a 	.word	0x0177032a
10016ea4:	01770177 	.word	0x01770177
10016ea8:	00f600f6 	.word	0x00f600f6
10016eac:	00f600f6 	.word	0x00f600f6
10016eb0:	00f60326 	.word	0x00f60326
10016eb4:	02e200f6 	.word	0x02e200f6
10016eb8:	00f600f6 	.word	0x00f600f6
10016ebc:	022f00f6 	.word	0x022f00f6
10016ec0:	031300f6 	.word	0x031300f6
10016ec4:	00f600f6 	.word	0x00f600f6
10016ec8:	00f6071f 	.word	0x00f6071f
10016ecc:	00f600f6 	.word	0x00f600f6
10016ed0:	00f600f6 	.word	0x00f600f6
10016ed4:	00f600f6 	.word	0x00f600f6
10016ed8:	017700f6 	.word	0x017700f6
10016edc:	021100f6 	.word	0x021100f6
10016ee0:	01770261 	.word	0x01770261
10016ee4:	01770177 	.word	0x01770177
10016ee8:	0261029f 	.word	0x0261029f
10016eec:	00f6020d 	.word	0x00f6020d
10016ef0:	00f60295 	.word	0x00f60295
10016ef4:	07470355 	.word	0x07470355
10016ef8:	020d0343 	.word	0x020d0343
10016efc:	022f00f6 	.word	0x022f00f6
10016f00:	0742007d 	.word	0x0742007d
10016f04:	00f600f6 	.word	0x00f600f6
10016f08:	00f6074b 	.word	0x00f6074b
10016f0c:	007d      	.short	0x007d
10016f0e:	f1a3 0230 	sub.w	r2, r3, #48	@ 0x30
10016f12:	2100      	movs	r1, #0
10016f14:	f814 3b01 	ldrb.w	r3, [r4], #1
10016f18:	eb01 0181 	add.w	r1, r1, r1, lsl #2
10016f1c:	eb02 0141 	add.w	r1, r2, r1, lsl #1
10016f20:	f1a3 0230 	sub.w	r2, r3, #48	@ 0x30
10016f24:	2a09      	cmp	r2, #9
10016f26:	d9f5      	bls.n	10016f14 <_vfprintf_r+0x1bc>
10016f28:	910b      	str	r1, [sp, #44]	@ 0x2c
10016f2a:	e78e      	b.n	10016e4a <_vfprintf_r+0xf2>
10016f2c:	9f08      	ldr	r7, [sp, #32]
10016f2e:	4638      	mov	r0, r7
10016f30:	f7fd fda0 	bl	10014a74 <_localeconv_r>
10016f34:	6843      	ldr	r3, [r0, #4]
10016f36:	931d      	str	r3, [sp, #116]	@ 0x74
10016f38:	4618      	mov	r0, r3
10016f3a:	f7ff f8e1 	bl	10016100 <strlen>
10016f3e:	901e      	str	r0, [sp, #120]	@ 0x78
10016f40:	4606      	mov	r6, r0
10016f42:	4638      	mov	r0, r7
10016f44:	f7fd fd96 	bl	10014a74 <_localeconv_r>
10016f48:	6883      	ldr	r3, [r0, #8]
10016f4a:	931b      	str	r3, [sp, #108]	@ 0x6c
10016f4c:	2e00      	cmp	r6, #0
10016f4e:	f040 8629 	bne.w	10017ba4 <_vfprintf_r+0xe4c>
10016f52:	7823      	ldrb	r3, [r4, #0]
10016f54:	e778      	b.n	10016e48 <_vfprintf_r+0xf0>
10016f56:	9d07      	ldr	r5, [sp, #28]
10016f58:	4658      	mov	r0, fp
10016f5a:	4629      	mov	r1, r5
10016f5c:	f002 fe36 	bl	10019bcc <__swsetup_r>
10016f60:	2800      	cmp	r0, #0
10016f62:	f041 83ac 	bne.w	100186be <_vfprintf_r+0x1966>
10016f66:	f9b5 300c 	ldrsh.w	r3, [r5, #12]
10016f6a:	f003 021a 	and.w	r2, r3, #26
10016f6e:	2a0a      	cmp	r2, #10
10016f70:	f47f af2f 	bne.w	10016dd2 <_vfprintf_r+0x7a>
10016f74:	9907      	ldr	r1, [sp, #28]
10016f76:	f9b1 200e 	ldrsh.w	r2, [r1, #14]
10016f7a:	2a00      	cmp	r2, #0
10016f7c:	f6ff af29 	blt.w	10016dd2 <_vfprintf_r+0x7a>
10016f80:	6e4a      	ldr	r2, [r1, #100]	@ 0x64
10016f82:	07d0      	lsls	r0, r2, #31
10016f84:	d402      	bmi.n	10016f8c <_vfprintf_r+0x234>
10016f86:	059a      	lsls	r2, r3, #22
10016f88:	f141 81c5 	bpl.w	10018316 <_vfprintf_r+0x15be>
10016f8c:	9907      	ldr	r1, [sp, #28]
10016f8e:	4623      	mov	r3, r4
10016f90:	464a      	mov	r2, r9
10016f92:	4658      	mov	r0, fp
10016f94:	f001 fd08 	bl	100189a8 <__sbprintf>
10016f98:	900a      	str	r0, [sp, #40]	@ 0x28
10016f9a:	980a      	ldr	r0, [sp, #40]	@ 0x28
10016f9c:	b05f      	add	sp, #380	@ 0x17c
10016f9e:	e8bd 8ff0 	ldmia.w	sp!, {r4, r5, r6, r7, r8, r9, sl, fp, pc}
10016fa2:	2208      	movs	r2, #8
10016fa4:	2100      	movs	r1, #0
10016fa6:	a82e      	add	r0, sp, #184	@ 0xb8
10016fa8:	f7fd fca2 	bl	100148f0 <memset>
10016fac:	2301      	movs	r3, #1
10016fae:	441e      	add	r6, r3
10016fb0:	e725      	b.n	10016dfe <_vfprintf_r+0xa6>
10016fb2:	1b77      	subs	r7, r6, r5
10016fb4:	4604      	mov	r4, r0
10016fb6:	d011      	beq.n	10016fdc <_vfprintf_r+0x284>
10016fb8:	9b34      	ldr	r3, [sp, #208]	@ 0xd0
10016fba:	443b      	add	r3, r7
10016fbc:	9334      	str	r3, [sp, #208]	@ 0xd0
10016fbe:	9b33      	ldr	r3, [sp, #204]	@ 0xcc
10016fc0:	3301      	adds	r3, #1
10016fc2:	2b07      	cmp	r3, #7
10016fc4:	e9c8 5700 	strd	r5, r7, [r8]
10016fc8:	9333      	str	r3, [sp, #204]	@ 0xcc
10016fca:	dc13      	bgt.n	10016ff4 <_vfprintf_r+0x29c>
10016fcc:	f108 0808 	add.w	r8, r8, #8
10016fd0:	9b0a      	ldr	r3, [sp, #40]	@ 0x28
10016fd2:	443b      	add	r3, r7
10016fd4:	930a      	str	r3, [sp, #40]	@ 0x28
10016fd6:	2c00      	cmp	r4, #0
10016fd8:	f47f af2c 	bne.w	10016e34 <_vfprintf_r+0xdc>
10016fdc:	9b34      	ldr	r3, [sp, #208]	@ 0xd0
10016fde:	f8dd b020 	ldr.w	fp, [sp, #32]
10016fe2:	2b00      	cmp	r3, #0
10016fe4:	f041 80dc 	bne.w	100181a0 <_vfprintf_r+0x1448>
10016fe8:	9b07      	ldr	r3, [sp, #28]
10016fea:	2200      	movs	r2, #0
10016fec:	f9b3 300c 	ldrsh.w	r3, [r3, #12]
10016ff0:	9233      	str	r2, [sp, #204]	@ 0xcc
10016ff2:	e012      	b.n	1001701a <_vfprintf_r+0x2c2>
10016ff4:	e9dd 1007 	ldrd	r1, r0, [sp, #28]
10016ff8:	aa32      	add	r2, sp, #200	@ 0xc8
10016ffa:	f001 fd51 	bl	10018aa0 <__sprint_r>
10016ffe:	b948      	cbnz	r0, 10017014 <_vfprintf_r+0x2bc>
10017000:	f10d 08d4 	add.w	r8, sp, #212	@ 0xd4
10017004:	e7e4      	b.n	10016fd0 <_vfprintf_r+0x278>
10017006:	46bb      	mov	fp, r7
10017008:	9b0c      	ldr	r3, [sp, #48]	@ 0x30
1001700a:	b11b      	cbz	r3, 10017014 <_vfprintf_r+0x2bc>
1001700c:	990c      	ldr	r1, [sp, #48]	@ 0x30
1001700e:	4658      	mov	r0, fp
10017010:	f7ff fb18 	bl	10016644 <_free_r>
10017014:	9b07      	ldr	r3, [sp, #28]
10017016:	f9b3 300c 	ldrsh.w	r3, [r3, #12]
1001701a:	9a07      	ldr	r2, [sp, #28]
1001701c:	6e52      	ldr	r2, [r2, #100]	@ 0x64
1001701e:	07d4      	lsls	r4, r2, #31
10017020:	f140 811d 	bpl.w	1001725e <_vfprintf_r+0x506>
10017024:	0659      	lsls	r1, r3, #25
10017026:	f101 8356 	bmi.w	100186d6 <_vfprintf_r+0x197e>
1001702a:	980a      	ldr	r0, [sp, #40]	@ 0x28
1001702c:	b05f      	add	sp, #380	@ 0x17c
1001702e:	e8bd 8ff0 	ldmia.w	sp!, {r4, r5, r6, r7, r8, r9, sl, fp, pc}
10017032:	bf00      	nop
10017034:	f3af 8000 	nop.w
	...
10017040:	2000045c 	.word	0x2000045c
10017044:	e9cd 340e 	strd	r3, r4, [sp, #56]	@ 0x38
10017048:	2b00      	cmp	r3, #0
1001704a:	d0c7      	beq.n	10016fdc <_vfprintf_r+0x284>
1001704c:	2200      	movs	r2, #0
1001704e:	f88d 3114 	strb.w	r3, [sp, #276]	@ 0x114
10017052:	2301      	movs	r3, #1
10017054:	f88d 209f 	strb.w	r2, [sp, #159]	@ 0x9f
10017058:	9306      	str	r3, [sp, #24]
1001705a:	920c      	str	r2, [sp, #48]	@ 0x30
1001705c:	469b      	mov	fp, r3
1001705e:	9209      	str	r2, [sp, #36]	@ 0x24
10017060:	9214      	str	r2, [sp, #80]	@ 0x50
10017062:	9210      	str	r2, [sp, #64]	@ 0x40
10017064:	9212      	str	r2, [sp, #72]	@ 0x48
10017066:	ad45      	add	r5, sp, #276	@ 0x114
10017068:	f019 0302 	ands.w	r3, r9, #2
1001706c:	d002      	beq.n	10017074 <_vfprintf_r+0x31c>
1001706e:	9906      	ldr	r1, [sp, #24]
10017070:	3102      	adds	r1, #2
10017072:	9106      	str	r1, [sp, #24]
10017074:	f019 0784 	ands.w	r7, r9, #132	@ 0x84
10017078:	9c34      	ldr	r4, [sp, #208]	@ 0xd0
1001707a:	d105      	bne.n	10017088 <_vfprintf_r+0x330>
1001707c:	990b      	ldr	r1, [sp, #44]	@ 0x2c
1001707e:	9806      	ldr	r0, [sp, #24]
10017080:	1a0e      	subs	r6, r1, r0
10017082:	2e00      	cmp	r6, #0
10017084:	f300 80aa 	bgt.w	100171dc <_vfprintf_r+0x484>
10017088:	b182      	cbz	r2, 100170ac <_vfprintf_r+0x354>
1001708a:	2201      	movs	r2, #1
1001708c:	f8c8 2004 	str.w	r2, [r8, #4]
10017090:	9a33      	ldr	r2, [sp, #204]	@ 0xcc
10017092:	3201      	adds	r2, #1
10017094:	3401      	adds	r4, #1
10017096:	f10d 019f 	add.w	r1, sp, #159	@ 0x9f
1001709a:	2a07      	cmp	r2, #7
1001709c:	9434      	str	r4, [sp, #208]	@ 0xd0
1001709e:	9233      	str	r2, [sp, #204]	@ 0xcc
100170a0:	f8c8 1000 	str.w	r1, [r8]
100170a4:	f300 83e3 	bgt.w	1001786e <_vfprintf_r+0xb16>
100170a8:	f108 0808 	add.w	r8, r8, #8
100170ac:	b183      	cbz	r3, 100170d0 <_vfprintf_r+0x378>
100170ae:	9b33      	ldr	r3, [sp, #204]	@ 0xcc
100170b0:	aa28      	add	r2, sp, #160	@ 0xa0
100170b2:	3301      	adds	r3, #1
100170b4:	3402      	adds	r4, #2
100170b6:	f8c8 2000 	str.w	r2, [r8]
100170ba:	2b07      	cmp	r3, #7
100170bc:	f04f 0202 	mov.w	r2, #2
100170c0:	9434      	str	r4, [sp, #208]	@ 0xd0
100170c2:	9333      	str	r3, [sp, #204]	@ 0xcc
100170c4:	f8c8 2004 	str.w	r2, [r8, #4]
100170c8:	f300 83df 	bgt.w	1001788a <_vfprintf_r+0xb32>
100170cc:	f108 0808 	add.w	r8, r8, #8
100170d0:	2f80      	cmp	r7, #128	@ 0x80
100170d2:	f000 82c0 	beq.w	10017656 <_vfprintf_r+0x8fe>
100170d6:	9b09      	ldr	r3, [sp, #36]	@ 0x24
100170d8:	eba3 060b 	sub.w	r6, r3, fp
100170dc:	2e00      	cmp	r6, #0
100170de:	f300 82ff 	bgt.w	100176e0 <_vfprintf_r+0x988>
100170e2:	f419 7f80 	tst.w	r9, #256	@ 0x100
100170e6:	f040 821b 	bne.w	10017520 <_vfprintf_r+0x7c8>
100170ea:	9b33      	ldr	r3, [sp, #204]	@ 0xcc
100170ec:	f8c8 5000 	str.w	r5, [r8]
100170f0:	3301      	adds	r3, #1
100170f2:	445c      	add	r4, fp
100170f4:	2b07      	cmp	r3, #7
100170f6:	f8c8 b004 	str.w	fp, [r8, #4]
100170fa:	9434      	str	r4, [sp, #208]	@ 0xd0
100170fc:	9333      	str	r3, [sp, #204]	@ 0xcc
100170fe:	f300 834f 	bgt.w	100177a0 <_vfprintf_r+0xa48>
10017102:	f108 0808 	add.w	r8, r8, #8
10017106:	f019 0f04 	tst.w	r9, #4
1001710a:	d005      	beq.n	10017118 <_vfprintf_r+0x3c0>
1001710c:	9b0b      	ldr	r3, [sp, #44]	@ 0x2c
1001710e:	9a06      	ldr	r2, [sp, #24]
10017110:	1a9d      	subs	r5, r3, r2
10017112:	2d00      	cmp	r5, #0
10017114:	f300 83c5 	bgt.w	100178a2 <_vfprintf_r+0xb4a>
10017118:	e9dd 320a 	ldrd	r3, r2, [sp, #40]	@ 0x28
1001711c:	9906      	ldr	r1, [sp, #24]
1001711e:	428a      	cmp	r2, r1
10017120:	bfac      	ite	ge
10017122:	189b      	addge	r3, r3, r2
10017124:	185b      	addlt	r3, r3, r1
10017126:	930a      	str	r3, [sp, #40]	@ 0x28
10017128:	2c00      	cmp	r4, #0
1001712a:	f040 8311 	bne.w	10017750 <_vfprintf_r+0x9f8>
1001712e:	2300      	movs	r3, #0
10017130:	9333      	str	r3, [sp, #204]	@ 0xcc
10017132:	9b0c      	ldr	r3, [sp, #48]	@ 0x30
10017134:	b11b      	cbz	r3, 1001713e <_vfprintf_r+0x3e6>
10017136:	990c      	ldr	r1, [sp, #48]	@ 0x30
10017138:	9808      	ldr	r0, [sp, #32]
1001713a:	f7ff fa83 	bl	10016644 <_free_r>
1001713e:	f10d 08d4 	add.w	r8, sp, #212	@ 0xd4
10017142:	9d0f      	ldr	r5, [sp, #60]	@ 0x3c
10017144:	e659      	b.n	10016dfa <_vfprintf_r+0xa2>
10017146:	e9cd 340e 	strd	r3, r4, [sp, #56]	@ 0x38
1001714a:	9b0d      	ldr	r3, [sp, #52]	@ 0x34
1001714c:	3307      	adds	r3, #7
1001714e:	f023 0307 	bic.w	r3, r3, #7
10017152:	ecb3 7b02 	vldmia	r3!, {d7}
10017156:	ec57 6b17 	vmov	r6, r7, d7
1001715a:	930d      	str	r3, [sp, #52]	@ 0x34
1001715c:	f027 4300 	bic.w	r3, r7, #2147483648	@ 0x80000000
10017160:	9323      	str	r3, [sp, #140]	@ 0x8c
10017162:	ed8d 7a22 	vstr	s14, [sp, #136]	@ 0x88
10017166:	e9dd ab22 	ldrd	sl, fp, [sp, #136]	@ 0x88
1001716a:	4ba8      	ldr	r3, [pc, #672]	@ (1001740c <_vfprintf_r+0x6b4>)
1001716c:	f04f 32ff 	mov.w	r2, #4294967295	@ 0xffffffff
10017170:	4650      	mov	r0, sl
10017172:	4659      	mov	r1, fp
10017174:	ed8d 7b16 	vstr	d7, [sp, #88]	@ 0x58
10017178:	f004 f814 	bl	1001b1a4 <__aeabi_dcmpun>
1001717c:	2800      	cmp	r0, #0
1001717e:	f040 852f 	bne.w	10017be0 <_vfprintf_r+0xe88>
10017182:	4ba2      	ldr	r3, [pc, #648]	@ (1001740c <_vfprintf_r+0x6b4>)
10017184:	f04f 32ff 	mov.w	r2, #4294967295	@ 0xffffffff
10017188:	4650      	mov	r0, sl
1001718a:	4659      	mov	r1, fp
1001718c:	f003 ffec 	bl	1001b168 <__aeabi_dcmple>
10017190:	2800      	cmp	r0, #0
10017192:	f040 8525 	bne.w	10017be0 <_vfprintf_r+0xe88>
10017196:	2200      	movs	r2, #0
10017198:	2300      	movs	r3, #0
1001719a:	4630      	mov	r0, r6
1001719c:	4639      	mov	r1, r7
1001719e:	f003 ffd9 	bl	1001b154 <__aeabi_dcmplt>
100171a2:	2800      	cmp	r0, #0
100171a4:	f041 810c 	bne.w	100183c0 <_vfprintf_r+0x1668>
100171a8:	f89d 209f 	ldrb.w	r2, [sp, #159]	@ 0x9f
100171ac:	4d98      	ldr	r5, [pc, #608]	@ (10017410 <_vfprintf_r+0x6b8>)
100171ae:	4b99      	ldr	r3, [pc, #612]	@ (10017414 <_vfprintf_r+0x6bc>)
100171b0:	f029 0980 	bic.w	r9, r9, #128	@ 0x80
100171b4:	990e      	ldr	r1, [sp, #56]	@ 0x38
100171b6:	2947      	cmp	r1, #71	@ 0x47
100171b8:	bfc8      	it	gt
100171ba:	461d      	movgt	r5, r3
100171bc:	2300      	movs	r3, #0
100171be:	2103      	movs	r1, #3
100171c0:	930c      	str	r3, [sp, #48]	@ 0x30
100171c2:	9106      	str	r1, [sp, #24]
100171c4:	468b      	mov	fp, r1
100171c6:	9309      	str	r3, [sp, #36]	@ 0x24
100171c8:	9314      	str	r3, [sp, #80]	@ 0x50
100171ca:	9310      	str	r3, [sp, #64]	@ 0x40
100171cc:	9312      	str	r3, [sp, #72]	@ 0x48
100171ce:	2a00      	cmp	r2, #0
100171d0:	f43f af4a 	beq.w	10017068 <_vfprintf_r+0x310>
100171d4:	9b06      	ldr	r3, [sp, #24]
100171d6:	3301      	adds	r3, #1
100171d8:	9306      	str	r3, [sp, #24]
100171da:	e745      	b.n	10017068 <_vfprintf_r+0x310>
100171dc:	2e10      	cmp	r6, #16
100171de:	9a33      	ldr	r2, [sp, #204]	@ 0xcc
100171e0:	f341 823a 	ble.w	10018658 <_vfprintf_r+0x1900>
100171e4:	488c      	ldr	r0, [pc, #560]	@ (10017418 <_vfprintf_r+0x6c0>)
100171e6:	9521      	str	r5, [sp, #132]	@ 0x84
100171e8:	e9cd 371f 	strd	r3, r7, [sp, #124]	@ 0x7c
100171ec:	4621      	mov	r1, r4
100171ee:	9d07      	ldr	r5, [sp, #28]
100171f0:	9c08      	ldr	r4, [sp, #32]
100171f2:	9015      	str	r0, [sp, #84]	@ 0x54
100171f4:	f04f 0a10 	mov.w	sl, #16
100171f8:	4607      	mov	r7, r0
100171fa:	e004      	b.n	10017206 <_vfprintf_r+0x4ae>
100171fc:	3e10      	subs	r6, #16
100171fe:	2e10      	cmp	r6, #16
10017200:	f108 0808 	add.w	r8, r8, #8
10017204:	dd16      	ble.n	10017234 <_vfprintf_r+0x4dc>
10017206:	3201      	adds	r2, #1
10017208:	3110      	adds	r1, #16
1001720a:	2a07      	cmp	r2, #7
1001720c:	e9c8 7a00 	strd	r7, sl, [r8]
10017210:	e9cd 2133 	strd	r2, r1, [sp, #204]	@ 0xcc
10017214:	ddf2      	ble.n	100171fc <_vfprintf_r+0x4a4>
10017216:	aa32      	add	r2, sp, #200	@ 0xc8
10017218:	4629      	mov	r1, r5
1001721a:	4620      	mov	r0, r4
1001721c:	f10d 08d4 	add.w	r8, sp, #212	@ 0xd4
10017220:	f001 fc3e 	bl	10018aa0 <__sprint_r>
10017224:	2800      	cmp	r0, #0
10017226:	f040 8635 	bne.w	10017e94 <_vfprintf_r+0x113c>
1001722a:	3e10      	subs	r6, #16
1001722c:	2e10      	cmp	r6, #16
1001722e:	e9dd 2133 	ldrd	r2, r1, [sp, #204]	@ 0xcc
10017232:	dce8      	bgt.n	10017206 <_vfprintf_r+0x4ae>
10017234:	e9dd 371f 	ldrd	r3, r7, [sp, #124]	@ 0x7c
10017238:	9d21      	ldr	r5, [sp, #132]	@ 0x84
1001723a:	460c      	mov	r4, r1
1001723c:	3201      	adds	r2, #1
1001723e:	9915      	ldr	r1, [sp, #84]	@ 0x54
10017240:	f8c8 1000 	str.w	r1, [r8]
10017244:	4434      	add	r4, r6
10017246:	2a07      	cmp	r2, #7
10017248:	e9cd 2433 	strd	r2, r4, [sp, #204]	@ 0xcc
1001724c:	f8c8 6004 	str.w	r6, [r8, #4]
10017250:	f300 860f 	bgt.w	10017e72 <_vfprintf_r+0x111a>
10017254:	f89d 209f 	ldrb.w	r2, [sp, #159]	@ 0x9f
10017258:	f108 0808 	add.w	r8, r8, #8
1001725c:	e714      	b.n	10017088 <_vfprintf_r+0x330>
1001725e:	0598      	lsls	r0, r3, #22
10017260:	f53f aee0 	bmi.w	10017024 <_vfprintf_r+0x2cc>
10017264:	9c07      	ldr	r4, [sp, #28]
10017266:	6da0      	ldr	r0, [r4, #88]	@ 0x58
10017268:	f7fd fbfc 	bl	10014a64 <__retarget_lock_release_recursive>
1001726c:	f9b4 300c 	ldrsh.w	r3, [r4, #12]
10017270:	e6d8      	b.n	10017024 <_vfprintf_r+0x2cc>
10017272:	7823      	ldrb	r3, [r4, #0]
10017274:	f049 0920 	orr.w	r9, r9, #32
10017278:	e5e6      	b.n	10016e48 <_vfprintf_r+0xf0>
1001727a:	9a0d      	ldr	r2, [sp, #52]	@ 0x34
1001727c:	2b43      	cmp	r3, #67	@ 0x43
1001727e:	e9cd 340e 	strd	r3, r4, [sp, #56]	@ 0x38
10017282:	f102 0404 	add.w	r4, r2, #4
10017286:	f000 8561 	beq.w	10017d4c <_vfprintf_r+0xff4>
1001728a:	f019 0f10 	tst.w	r9, #16
1001728e:	f040 855d 	bne.w	10017d4c <_vfprintf_r+0xff4>
10017292:	9b0d      	ldr	r3, [sp, #52]	@ 0x34
10017294:	681b      	ldr	r3, [r3, #0]
10017296:	f88d 3114 	strb.w	r3, [sp, #276]	@ 0x114
1001729a:	2301      	movs	r3, #1
1001729c:	9306      	str	r3, [sp, #24]
1001729e:	469b      	mov	fp, r3
100172a0:	ad45      	add	r5, sp, #276	@ 0x114
100172a2:	2200      	movs	r2, #0
100172a4:	940d      	str	r4, [sp, #52]	@ 0x34
100172a6:	f88d 209f 	strb.w	r2, [sp, #159]	@ 0x9f
100172aa:	920c      	str	r2, [sp, #48]	@ 0x30
100172ac:	9209      	str	r2, [sp, #36]	@ 0x24
100172ae:	9214      	str	r2, [sp, #80]	@ 0x50
100172b0:	9210      	str	r2, [sp, #64]	@ 0x40
100172b2:	9212      	str	r2, [sp, #72]	@ 0x48
100172b4:	e6d8      	b.n	10017068 <_vfprintf_r+0x310>
100172b6:	9e0d      	ldr	r6, [sp, #52]	@ 0x34
100172b8:	f856 5b04 	ldr.w	r5, [r6], #4
100172bc:	e9cd 340e 	strd	r3, r4, [sp, #56]	@ 0x38
100172c0:	2300      	movs	r3, #0
100172c2:	f88d 309f 	strb.w	r3, [sp, #159]	@ 0x9f
100172c6:	2d00      	cmp	r5, #0
100172c8:	f000 852f 	beq.w	10017d2a <_vfprintf_r+0xfd2>
100172cc:	9b0e      	ldr	r3, [sp, #56]	@ 0x38
100172ce:	2b53      	cmp	r3, #83	@ 0x53
100172d0:	f000 8600 	beq.w	10017ed4 <_vfprintf_r+0x117c>
100172d4:	f019 0310 	ands.w	r3, r9, #16
100172d8:	9312      	str	r3, [sp, #72]	@ 0x48
100172da:	f040 85fb 	bne.w	10017ed4 <_vfprintf_r+0x117c>
100172de:	9b09      	ldr	r3, [sp, #36]	@ 0x24
100172e0:	1c5a      	adds	r2, r3, #1
100172e2:	f000 8767 	beq.w	100181b4 <_vfprintf_r+0x145c>
100172e6:	9912      	ldr	r1, [sp, #72]	@ 0x48
100172e8:	461a      	mov	r2, r3
100172ea:	4628      	mov	r0, r5
100172ec:	f7fe fe18 	bl	10015f20 <memchr>
100172f0:	900c      	str	r0, [sp, #48]	@ 0x30
100172f2:	2800      	cmp	r0, #0
100172f4:	f001 82c2 	beq.w	1001887c <_vfprintf_r+0x1b24>
100172f8:	9b0c      	ldr	r3, [sp, #48]	@ 0x30
100172fa:	960d      	str	r6, [sp, #52]	@ 0x34
100172fc:	eba3 0b05 	sub.w	fp, r3, r5
10017300:	9b12      	ldr	r3, [sp, #72]	@ 0x48
10017302:	9309      	str	r3, [sp, #36]	@ 0x24
10017304:	ea2b 71eb 	bic.w	r1, fp, fp, asr #31
10017308:	9314      	str	r3, [sp, #80]	@ 0x50
1001730a:	9310      	str	r3, [sp, #64]	@ 0x40
1001730c:	930c      	str	r3, [sp, #48]	@ 0x30
1001730e:	2373      	movs	r3, #115	@ 0x73
10017310:	f89d 209f 	ldrb.w	r2, [sp, #159]	@ 0x9f
10017314:	9106      	str	r1, [sp, #24]
10017316:	930e      	str	r3, [sp, #56]	@ 0x38
10017318:	e759      	b.n	100171ce <_vfprintf_r+0x476>
1001731a:	f019 0f20 	tst.w	r9, #32
1001731e:	e9cd 340e 	strd	r3, r4, [sp, #56]	@ 0x38
10017322:	f000 80cb 	beq.w	100174bc <_vfprintf_r+0x764>
10017326:	9b0d      	ldr	r3, [sp, #52]	@ 0x34
10017328:	3307      	adds	r3, #7
1001732a:	f023 0307 	bic.w	r3, r3, #7
1001732e:	461a      	mov	r2, r3
10017330:	6859      	ldr	r1, [r3, #4]
10017332:	f852 3b08 	ldr.w	r3, [r2], #8
10017336:	920d      	str	r2, [sp, #52]	@ 0x34
10017338:	460a      	mov	r2, r1
1001733a:	2900      	cmp	r1, #0
1001733c:	f2c0 8424 	blt.w	10017b88 <_vfprintf_r+0xe30>
10017340:	9909      	ldr	r1, [sp, #36]	@ 0x24
10017342:	3101      	adds	r1, #1
10017344:	f000 8284 	beq.w	10017850 <_vfprintf_r+0xaf8>
10017348:	ea53 0102 	orrs.w	r1, r3, r2
1001734c:	f029 0480 	bic.w	r4, r9, #128	@ 0x80
10017350:	f040 827f 	bne.w	10017852 <_vfprintf_r+0xafa>
10017354:	9a09      	ldr	r2, [sp, #36]	@ 0x24
10017356:	2a00      	cmp	r2, #0
10017358:	f040 8280 	bne.w	1001785c <_vfprintf_r+0xb04>
1001735c:	46a1      	mov	r9, r4
1001735e:	4693      	mov	fp, r2
10017360:	ad5e      	add	r5, sp, #376	@ 0x178
10017362:	e14f      	b.n	10017604 <_vfprintf_r+0x8ac>
10017364:	9b0d      	ldr	r3, [sp, #52]	@ 0x34
10017366:	f853 2b04 	ldr.w	r2, [r3], #4
1001736a:	920b      	str	r2, [sp, #44]	@ 0x2c
1001736c:	2a00      	cmp	r2, #0
1001736e:	f280 83cd 	bge.w	10017b0c <_vfprintf_r+0xdb4>
10017372:	9a0b      	ldr	r2, [sp, #44]	@ 0x2c
10017374:	930d      	str	r3, [sp, #52]	@ 0x34
10017376:	4252      	negs	r2, r2
10017378:	920b      	str	r2, [sp, #44]	@ 0x2c
1001737a:	7823      	ldrb	r3, [r4, #0]
1001737c:	f049 0904 	orr.w	r9, r9, #4
10017380:	e562      	b.n	10016e48 <_vfprintf_r+0xf0>
10017382:	7823      	ldrb	r3, [r4, #0]
10017384:	2b6c      	cmp	r3, #108	@ 0x6c
10017386:	bf03      	ittte	eq
10017388:	7863      	ldrbeq	r3, [r4, #1]
1001738a:	f049 0920 	orreq.w	r9, r9, #32
1001738e:	3401      	addeq	r4, #1
10017390:	f049 0910 	orrne.w	r9, r9, #16
10017394:	e558      	b.n	10016e48 <_vfprintf_r+0xf0>
10017396:	7823      	ldrb	r3, [r4, #0]
10017398:	2b68      	cmp	r3, #104	@ 0x68
1001739a:	bf03      	ittte	eq
1001739c:	7863      	ldrbeq	r3, [r4, #1]
1001739e:	f449 7900 	orreq.w	r9, r9, #512	@ 0x200
100173a2:	3401      	addeq	r4, #1
100173a4:	f049 0940 	orrne.w	r9, r9, #64	@ 0x40
100173a8:	e54e      	b.n	10016e48 <_vfprintf_r+0xf0>
100173aa:	232b      	movs	r3, #43	@ 0x2b
100173ac:	f88d 309f 	strb.w	r3, [sp, #159]	@ 0x9f
100173b0:	7823      	ldrb	r3, [r4, #0]
100173b2:	e549      	b.n	10016e48 <_vfprintf_r+0xf0>
100173b4:	7823      	ldrb	r3, [r4, #0]
100173b6:	f049 0980 	orr.w	r9, r9, #128	@ 0x80
100173ba:	e545      	b.n	10016e48 <_vfprintf_r+0xf0>
100173bc:	4621      	mov	r1, r4
100173be:	f811 3b01 	ldrb.w	r3, [r1], #1
100173c2:	2b2a      	cmp	r3, #42	@ 0x2a
100173c4:	f001 82d7 	beq.w	10018976 <_vfprintf_r+0x1c1e>
100173c8:	f1a3 0230 	sub.w	r2, r3, #48	@ 0x30
100173cc:	2a09      	cmp	r2, #9
100173ce:	460c      	mov	r4, r1
100173d0:	bf98      	it	ls
100173d2:	2100      	movls	r1, #0
100173d4:	f201 816f 	bhi.w	100186b6 <_vfprintf_r+0x195e>
100173d8:	f814 3b01 	ldrb.w	r3, [r4], #1
100173dc:	eb01 0181 	add.w	r1, r1, r1, lsl #2
100173e0:	eb02 0141 	add.w	r1, r2, r1, lsl #1
100173e4:	f1a3 0230 	sub.w	r2, r3, #48	@ 0x30
100173e8:	2a09      	cmp	r2, #9
100173ea:	d9f5      	bls.n	100173d8 <_vfprintf_r+0x680>
100173ec:	9109      	str	r1, [sp, #36]	@ 0x24
100173ee:	e52c      	b.n	10016e4a <_vfprintf_r+0xf2>
100173f0:	7823      	ldrb	r3, [r4, #0]
100173f2:	f049 0901 	orr.w	r9, r9, #1
100173f6:	e527      	b.n	10016e48 <_vfprintf_r+0xf0>
100173f8:	f89d 209f 	ldrb.w	r2, [sp, #159]	@ 0x9f
100173fc:	7823      	ldrb	r3, [r4, #0]
100173fe:	2a00      	cmp	r2, #0
10017400:	f47f ad22 	bne.w	10016e48 <_vfprintf_r+0xf0>
10017404:	2220      	movs	r2, #32
10017406:	f88d 209f 	strb.w	r2, [sp, #159]	@ 0x9f
1001740a:	e51d      	b.n	10016e48 <_vfprintf_r+0xf0>
1001740c:	7fefffff 	.word	0x7fefffff
10017410:	1001d91c 	.word	0x1001d91c
10017414:	1001d920 	.word	0x1001d920
10017418:	1001db5c 	.word	0x1001db5c
1001741c:	e9cd 340e 	strd	r3, r4, [sp, #56]	@ 0x38
10017420:	f049 0910 	orr.w	r9, r9, #16
10017424:	f019 0220 	ands.w	r2, r9, #32
10017428:	f000 8354 	beq.w	10017ad4 <_vfprintf_r+0xd7c>
1001742c:	9b0d      	ldr	r3, [sp, #52]	@ 0x34
1001742e:	3307      	adds	r3, #7
10017430:	f023 0307 	bic.w	r3, r3, #7
10017434:	4619      	mov	r1, r3
10017436:	685a      	ldr	r2, [r3, #4]
10017438:	f851 3b08 	ldr.w	r3, [r1], #8
1001743c:	910d      	str	r1, [sp, #52]	@ 0x34
1001743e:	f429 6480 	bic.w	r4, r9, #1024	@ 0x400
10017442:	2100      	movs	r1, #0
10017444:	2000      	movs	r0, #0
10017446:	9d09      	ldr	r5, [sp, #36]	@ 0x24
10017448:	f88d 009f 	strb.w	r0, [sp, #159]	@ 0x9f
1001744c:	1c6f      	adds	r7, r5, #1
1001744e:	f000 80c2 	beq.w	100175d6 <_vfprintf_r+0x87e>
10017452:	ea53 0002 	orrs.w	r0, r3, r2
10017456:	f024 0980 	bic.w	r9, r4, #128	@ 0x80
1001745a:	f040 80bb 	bne.w	100175d4 <_vfprintf_r+0x87c>
1001745e:	2d00      	cmp	r5, #0
10017460:	f040 8523 	bne.w	10017eaa <_vfprintf_r+0x1152>
10017464:	2900      	cmp	r1, #0
10017466:	f040 8496 	bne.w	10017d96 <_vfprintf_r+0x103e>
1001746a:	f014 0b01 	ands.w	fp, r4, #1
1001746e:	f000 8351 	beq.w	10017b14 <_vfprintf_r+0xdbc>
10017472:	2330      	movs	r3, #48	@ 0x30
10017474:	f88d 3177 	strb.w	r3, [sp, #375]	@ 0x177
10017478:	f20d 1577 	addw	r5, sp, #375	@ 0x177
1001747c:	e0c2      	b.n	10017604 <_vfprintf_r+0x8ac>
1001747e:	e9cd 340e 	strd	r3, r4, [sp, #56]	@ 0x38
10017482:	f049 0410 	orr.w	r4, r9, #16
10017486:	f014 0220 	ands.w	r2, r4, #32
1001748a:	f000 8315 	beq.w	10017ab8 <_vfprintf_r+0xd60>
1001748e:	9b0d      	ldr	r3, [sp, #52]	@ 0x34
10017490:	3307      	adds	r3, #7
10017492:	f023 0307 	bic.w	r3, r3, #7
10017496:	4619      	mov	r1, r3
10017498:	685a      	ldr	r2, [r3, #4]
1001749a:	f851 3b08 	ldr.w	r3, [r1], #8
1001749e:	910d      	str	r1, [sp, #52]	@ 0x34
100174a0:	2101      	movs	r1, #1
100174a2:	e7cf      	b.n	10017444 <_vfprintf_r+0x6ec>
100174a4:	7823      	ldrb	r3, [r4, #0]
100174a6:	f049 0908 	orr.w	r9, r9, #8
100174aa:	e4cd      	b.n	10016e48 <_vfprintf_r+0xf0>
100174ac:	f049 0910 	orr.w	r9, r9, #16
100174b0:	f019 0f20 	tst.w	r9, #32
100174b4:	e9cd 340e 	strd	r3, r4, [sp, #56]	@ 0x38
100174b8:	f47f af35 	bne.w	10017326 <_vfprintf_r+0x5ce>
100174bc:	9a0d      	ldr	r2, [sp, #52]	@ 0x34
100174be:	f019 0f10 	tst.w	r9, #16
100174c2:	f852 3b04 	ldr.w	r3, [r2], #4
100174c6:	920d      	str	r2, [sp, #52]	@ 0x34
100174c8:	f040 8359 	bne.w	10017b7e <_vfprintf_r+0xe26>
100174cc:	f019 0f40 	tst.w	r9, #64	@ 0x40
100174d0:	f000 8351 	beq.w	10017b76 <_vfprintf_r+0xe1e>
100174d4:	f343 32c0 	sbfx	r2, r3, #15, #1
100174d8:	4611      	mov	r1, r2
100174da:	b21b      	sxth	r3, r3
100174dc:	e72d      	b.n	1001733a <_vfprintf_r+0x5e2>
100174de:	9a0d      	ldr	r2, [sp, #52]	@ 0x34
100174e0:	940f      	str	r4, [sp, #60]	@ 0x3c
100174e2:	f852 3b04 	ldr.w	r3, [r2], #4
100174e6:	920d      	str	r2, [sp, #52]	@ 0x34
100174e8:	f647 0230 	movw	r2, #30768	@ 0x7830
100174ec:	f8ad 20a0 	strh.w	r2, [sp, #160]	@ 0xa0
100174f0:	2078      	movs	r0, #120	@ 0x78
100174f2:	4ab1      	ldr	r2, [pc, #708]	@ (100177b8 <_vfprintf_r+0xa60>)
100174f4:	921a      	str	r2, [sp, #104]	@ 0x68
100174f6:	f049 0402 	orr.w	r4, r9, #2
100174fa:	2200      	movs	r2, #0
100174fc:	2102      	movs	r1, #2
100174fe:	900e      	str	r0, [sp, #56]	@ 0x38
10017500:	e7a0      	b.n	10017444 <_vfprintf_r+0x6ec>
10017502:	f019 0f20 	tst.w	r9, #32
10017506:	940f      	str	r4, [sp, #60]	@ 0x3c
10017508:	f000 8359 	beq.w	10017bbe <_vfprintf_r+0xe66>
1001750c:	9b0d      	ldr	r3, [sp, #52]	@ 0x34
1001750e:	9a0a      	ldr	r2, [sp, #40]	@ 0x28
10017510:	681b      	ldr	r3, [r3, #0]
10017512:	601a      	str	r2, [r3, #0]
10017514:	17d2      	asrs	r2, r2, #31
10017516:	605a      	str	r2, [r3, #4]
10017518:	9b0d      	ldr	r3, [sp, #52]	@ 0x34
1001751a:	3304      	adds	r3, #4
1001751c:	930d      	str	r3, [sp, #52]	@ 0x34
1001751e:	e610      	b.n	10017142 <_vfprintf_r+0x3ea>
10017520:	9b0e      	ldr	r3, [sp, #56]	@ 0x38
10017522:	2b65      	cmp	r3, #101	@ 0x65
10017524:	f340 814e 	ble.w	100177c4 <_vfprintf_r+0xa6c>
10017528:	e9dd 0116 	ldrd	r0, r1, [sp, #88]	@ 0x58
1001752c:	2200      	movs	r2, #0
1001752e:	2300      	movs	r3, #0
10017530:	f003 fe06 	bl	1001b140 <__aeabi_dcmpeq>
10017534:	2800      	cmp	r0, #0
10017536:	f000 81ee 	beq.w	10017916 <_vfprintf_r+0xbbe>
1001753a:	9b33      	ldr	r3, [sp, #204]	@ 0xcc
1001753c:	4a9f      	ldr	r2, [pc, #636]	@ (100177bc <_vfprintf_r+0xa64>)
1001753e:	f8c8 2000 	str.w	r2, [r8]
10017542:	3301      	adds	r3, #1
10017544:	3401      	adds	r4, #1
10017546:	2201      	movs	r2, #1
10017548:	2b07      	cmp	r3, #7
1001754a:	9434      	str	r4, [sp, #208]	@ 0xd0
1001754c:	9333      	str	r3, [sp, #204]	@ 0xcc
1001754e:	f8c8 2004 	str.w	r2, [r8, #4]
10017552:	f300 84af 	bgt.w	10017eb4 <_vfprintf_r+0x115c>
10017556:	f108 0808 	add.w	r8, r8, #8
1001755a:	9b29      	ldr	r3, [sp, #164]	@ 0xa4
1001755c:	9a13      	ldr	r2, [sp, #76]	@ 0x4c
1001755e:	4293      	cmp	r3, r2
10017560:	f280 82cf 	bge.w	10017b02 <_vfprintf_r+0xdaa>
10017564:	9b18      	ldr	r3, [sp, #96]	@ 0x60
10017566:	9a19      	ldr	r2, [sp, #100]	@ 0x64
10017568:	441c      	add	r4, r3
1001756a:	e9c8 2300 	strd	r2, r3, [r8]
1001756e:	9b33      	ldr	r3, [sp, #204]	@ 0xcc
10017570:	9434      	str	r4, [sp, #208]	@ 0xd0
10017572:	3301      	adds	r3, #1
10017574:	2b07      	cmp	r3, #7
10017576:	9333      	str	r3, [sp, #204]	@ 0xcc
10017578:	f300 83cb 	bgt.w	10017d12 <_vfprintf_r+0xfba>
1001757c:	f108 0808 	add.w	r8, r8, #8
10017580:	9b13      	ldr	r3, [sp, #76]	@ 0x4c
10017582:	1e5d      	subs	r5, r3, #1
10017584:	2d00      	cmp	r5, #0
10017586:	f77f adbe 	ble.w	10017106 <_vfprintf_r+0x3ae>
1001758a:	2d10      	cmp	r5, #16
1001758c:	9b33      	ldr	r3, [sp, #204]	@ 0xcc
1001758e:	f340 84f9 	ble.w	10017f84 <_vfprintf_r+0x122c>
10017592:	4f8b      	ldr	r7, [pc, #556]	@ (100177c0 <_vfprintf_r+0xa68>)
10017594:	9715      	str	r7, [sp, #84]	@ 0x54
10017596:	e9dd ab07 	ldrd	sl, fp, [sp, #28]
1001759a:	2610      	movs	r6, #16
1001759c:	e005      	b.n	100175aa <_vfprintf_r+0x852>
1001759e:	f108 0808 	add.w	r8, r8, #8
100175a2:	3d10      	subs	r5, #16
100175a4:	2d10      	cmp	r5, #16
100175a6:	f340 84ef 	ble.w	10017f88 <_vfprintf_r+0x1230>
100175aa:	3301      	adds	r3, #1
100175ac:	3410      	adds	r4, #16
100175ae:	2b07      	cmp	r3, #7
100175b0:	e9c8 7600 	strd	r7, r6, [r8]
100175b4:	e9cd 3433 	strd	r3, r4, [sp, #204]	@ 0xcc
100175b8:	ddf1      	ble.n	1001759e <_vfprintf_r+0x846>
100175ba:	aa32      	add	r2, sp, #200	@ 0xc8
100175bc:	4651      	mov	r1, sl
100175be:	4658      	mov	r0, fp
100175c0:	f001 fa6e 	bl	10018aa0 <__sprint_r>
100175c4:	2800      	cmp	r0, #0
100175c6:	f47f ad1f 	bne.w	10017008 <_vfprintf_r+0x2b0>
100175ca:	e9dd 3433 	ldrd	r3, r4, [sp, #204]	@ 0xcc
100175ce:	f10d 08d4 	add.w	r8, sp, #212	@ 0xd4
100175d2:	e7e6      	b.n	100175a2 <_vfprintf_r+0x84a>
100175d4:	464c      	mov	r4, r9
100175d6:	2901      	cmp	r1, #1
100175d8:	f000 813b 	beq.w	10017852 <_vfprintf_r+0xafa>
100175dc:	2902      	cmp	r1, #2
100175de:	ad5e      	add	r5, sp, #376	@ 0x178
100175e0:	d11e      	bne.n	10017620 <_vfprintf_r+0x8c8>
100175e2:	981a      	ldr	r0, [sp, #104]	@ 0x68
100175e4:	f003 010f 	and.w	r1, r3, #15
100175e8:	091b      	lsrs	r3, r3, #4
100175ea:	5c41      	ldrb	r1, [r0, r1]
100175ec:	f805 1d01 	strb.w	r1, [r5, #-1]!
100175f0:	ea43 7302 	orr.w	r3, r3, r2, lsl #28
100175f4:	0912      	lsrs	r2, r2, #4
100175f6:	ea53 0102 	orrs.w	r1, r3, r2
100175fa:	d1f3      	bne.n	100175e4 <_vfprintf_r+0x88c>
100175fc:	ab5e      	add	r3, sp, #376	@ 0x178
100175fe:	46a1      	mov	r9, r4
10017600:	eba3 0b05 	sub.w	fp, r3, r5
10017604:	9909      	ldr	r1, [sp, #36]	@ 0x24
10017606:	f89d 209f 	ldrb.w	r2, [sp, #159]	@ 0x9f
1001760a:	4559      	cmp	r1, fp
1001760c:	f04f 0300 	mov.w	r3, #0
10017610:	bfb8      	it	lt
10017612:	4659      	movlt	r1, fp
10017614:	930c      	str	r3, [sp, #48]	@ 0x30
10017616:	9106      	str	r1, [sp, #24]
10017618:	9314      	str	r3, [sp, #80]	@ 0x50
1001761a:	9310      	str	r3, [sp, #64]	@ 0x40
1001761c:	9312      	str	r3, [sp, #72]	@ 0x48
1001761e:	e5d6      	b.n	100171ce <_vfprintf_r+0x476>
10017620:	f003 0107 	and.w	r1, r3, #7
10017624:	08db      	lsrs	r3, r3, #3
10017626:	ea43 7342 	orr.w	r3, r3, r2, lsl #29
1001762a:	08d2      	lsrs	r2, r2, #3
1001762c:	3130      	adds	r1, #48	@ 0x30
1001762e:	ea53 0602 	orrs.w	r6, r3, r2
10017632:	4628      	mov	r0, r5
10017634:	f805 1d01 	strb.w	r1, [r5, #-1]!
10017638:	d1f2      	bne.n	10017620 <_vfprintf_r+0x8c8>
1001763a:	07e6      	lsls	r6, r4, #31
1001763c:	d5de      	bpl.n	100175fc <_vfprintf_r+0x8a4>
1001763e:	2930      	cmp	r1, #48	@ 0x30
10017640:	d0dc      	beq.n	100175fc <_vfprintf_r+0x8a4>
10017642:	2330      	movs	r3, #48	@ 0x30
10017644:	3802      	subs	r0, #2
10017646:	f805 3c01 	strb.w	r3, [r5, #-1]
1001764a:	ab5e      	add	r3, sp, #376	@ 0x178
1001764c:	46a1      	mov	r9, r4
1001764e:	eba3 0b00 	sub.w	fp, r3, r0
10017652:	4605      	mov	r5, r0
10017654:	e7d6      	b.n	10017604 <_vfprintf_r+0x8ac>
10017656:	9b0b      	ldr	r3, [sp, #44]	@ 0x2c
10017658:	9a06      	ldr	r2, [sp, #24]
1001765a:	1a9e      	subs	r6, r3, r2
1001765c:	2e00      	cmp	r6, #0
1001765e:	f77f ad3a 	ble.w	100170d6 <_vfprintf_r+0x37e>
10017662:	2e10      	cmp	r6, #16
10017664:	9b33      	ldr	r3, [sp, #204]	@ 0xcc
10017666:	f341 80ab 	ble.w	100187c0 <_vfprintf_r+0x1a68>
1001766a:	4855      	ldr	r0, [pc, #340]	@ (100177c0 <_vfprintf_r+0xa68>)
1001766c:	f8dd a020 	ldr.w	sl, [sp, #32]
10017670:	9015      	str	r0, [sp, #84]	@ 0x54
10017672:	4621      	mov	r1, r4
10017674:	2710      	movs	r7, #16
10017676:	461a      	mov	r2, r3
10017678:	4604      	mov	r4, r0
1001767a:	e004      	b.n	10017686 <_vfprintf_r+0x92e>
1001767c:	3e10      	subs	r6, #16
1001767e:	2e10      	cmp	r6, #16
10017680:	f108 0808 	add.w	r8, r8, #8
10017684:	dd16      	ble.n	100176b4 <_vfprintf_r+0x95c>
10017686:	3201      	adds	r2, #1
10017688:	3110      	adds	r1, #16
1001768a:	2a07      	cmp	r2, #7
1001768c:	e9c8 4700 	strd	r4, r7, [r8]
10017690:	e9cd 2133 	strd	r2, r1, [sp, #204]	@ 0xcc
10017694:	ddf2      	ble.n	1001767c <_vfprintf_r+0x924>
10017696:	9907      	ldr	r1, [sp, #28]
10017698:	aa32      	add	r2, sp, #200	@ 0xc8
1001769a:	4650      	mov	r0, sl
1001769c:	f10d 08d4 	add.w	r8, sp, #212	@ 0xd4
100176a0:	f001 f9fe 	bl	10018aa0 <__sprint_r>
100176a4:	2800      	cmp	r0, #0
100176a6:	f040 83f8 	bne.w	10017e9a <_vfprintf_r+0x1142>
100176aa:	3e10      	subs	r6, #16
100176ac:	2e10      	cmp	r6, #16
100176ae:	e9dd 2133 	ldrd	r2, r1, [sp, #204]	@ 0xcc
100176b2:	dce8      	bgt.n	10017686 <_vfprintf_r+0x92e>
100176b4:	460c      	mov	r4, r1
100176b6:	4613      	mov	r3, r2
100176b8:	3301      	adds	r3, #1
100176ba:	9a15      	ldr	r2, [sp, #84]	@ 0x54
100176bc:	f8c8 2000 	str.w	r2, [r8]
100176c0:	4434      	add	r4, r6
100176c2:	2b07      	cmp	r3, #7
100176c4:	e9cd 3433 	strd	r3, r4, [sp, #204]	@ 0xcc
100176c8:	f8c8 6004 	str.w	r6, [r8, #4]
100176cc:	f300 8314 	bgt.w	10017cf8 <_vfprintf_r+0xfa0>
100176d0:	9b09      	ldr	r3, [sp, #36]	@ 0x24
100176d2:	eba3 060b 	sub.w	r6, r3, fp
100176d6:	2e00      	cmp	r6, #0
100176d8:	f108 0808 	add.w	r8, r8, #8
100176dc:	f77f ad01 	ble.w	100170e2 <_vfprintf_r+0x38a>
100176e0:	4a37      	ldr	r2, [pc, #220]	@ (100177c0 <_vfprintf_r+0xa68>)
100176e2:	9b33      	ldr	r3, [sp, #204]	@ 0xcc
100176e4:	9215      	str	r2, [sp, #84]	@ 0x54
100176e6:	2e10      	cmp	r6, #16
100176e8:	dd23      	ble.n	10017732 <_vfprintf_r+0x9da>
100176ea:	4622      	mov	r2, r4
100176ec:	f04f 0a10 	mov.w	sl, #16
100176f0:	e9dd 4707 	ldrd	r4, r7, [sp, #28]
100176f4:	e004      	b.n	10017700 <_vfprintf_r+0x9a8>
100176f6:	3e10      	subs	r6, #16
100176f8:	2e10      	cmp	r6, #16
100176fa:	f108 0808 	add.w	r8, r8, #8
100176fe:	dd17      	ble.n	10017730 <_vfprintf_r+0x9d8>
10017700:	3301      	adds	r3, #1
10017702:	492f      	ldr	r1, [pc, #188]	@ (100177c0 <_vfprintf_r+0xa68>)
10017704:	3210      	adds	r2, #16
10017706:	2b07      	cmp	r3, #7
10017708:	e9c8 1a00 	strd	r1, sl, [r8]
1001770c:	e9cd 3233 	strd	r3, r2, [sp, #204]	@ 0xcc
10017710:	ddf1      	ble.n	100176f6 <_vfprintf_r+0x99e>
10017712:	aa32      	add	r2, sp, #200	@ 0xc8
10017714:	4621      	mov	r1, r4
10017716:	4638      	mov	r0, r7
10017718:	f001 f9c2 	bl	10018aa0 <__sprint_r>
1001771c:	2800      	cmp	r0, #0
1001771e:	f47f ac72 	bne.w	10017006 <_vfprintf_r+0x2ae>
10017722:	3e10      	subs	r6, #16
10017724:	2e10      	cmp	r6, #16
10017726:	e9dd 3233 	ldrd	r3, r2, [sp, #204]	@ 0xcc
1001772a:	f10d 08d4 	add.w	r8, sp, #212	@ 0xd4
1001772e:	dce7      	bgt.n	10017700 <_vfprintf_r+0x9a8>
10017730:	4614      	mov	r4, r2
10017732:	3301      	adds	r3, #1
10017734:	9a15      	ldr	r2, [sp, #84]	@ 0x54
10017736:	f8c8 2000 	str.w	r2, [r8]
1001773a:	4434      	add	r4, r6
1001773c:	2b07      	cmp	r3, #7
1001773e:	e9cd 3433 	strd	r3, r4, [sp, #204]	@ 0xcc
10017742:	f8c8 6004 	str.w	r6, [r8, #4]
10017746:	f300 81aa 	bgt.w	10017a9e <_vfprintf_r+0xd46>
1001774a:	f108 0808 	add.w	r8, r8, #8
1001774e:	e4c8      	b.n	100170e2 <_vfprintf_r+0x38a>
10017750:	e9dd 1007 	ldrd	r1, r0, [sp, #28]
10017754:	aa32      	add	r2, sp, #200	@ 0xc8
10017756:	f001 f9a3 	bl	10018aa0 <__sprint_r>
1001775a:	2800      	cmp	r0, #0
1001775c:	f43f ace7 	beq.w	1001712e <_vfprintf_r+0x3d6>
10017760:	f8dd b020 	ldr.w	fp, [sp, #32]
10017764:	e450      	b.n	10017008 <_vfprintf_r+0x2b0>
10017766:	9b18      	ldr	r3, [sp, #96]	@ 0x60
10017768:	9919      	ldr	r1, [sp, #100]	@ 0x64
1001776a:	441c      	add	r4, r3
1001776c:	e9c8 1300 	strd	r1, r3, [r8]
10017770:	9b33      	ldr	r3, [sp, #204]	@ 0xcc
10017772:	9434      	str	r4, [sp, #208]	@ 0xd0
10017774:	3301      	adds	r3, #1
10017776:	2b07      	cmp	r3, #7
10017778:	9333      	str	r3, [sp, #204]	@ 0xcc
1001777a:	f300 85bd 	bgt.w	100182f8 <_vfprintf_r+0x15a0>
1001777e:	f108 0808 	add.w	r8, r8, #8
10017782:	2a00      	cmp	r2, #0
10017784:	f2c0 87ac 	blt.w	100186e0 <_vfprintf_r+0x1988>
10017788:	9a13      	ldr	r2, [sp, #76]	@ 0x4c
1001778a:	f8c8 5000 	str.w	r5, [r8]
1001778e:	3301      	adds	r3, #1
10017790:	4414      	add	r4, r2
10017792:	2b07      	cmp	r3, #7
10017794:	e9cd 3433 	strd	r3, r4, [sp, #204]	@ 0xcc
10017798:	f8c8 2004 	str.w	r2, [r8, #4]
1001779c:	f77f acb1 	ble.w	10017102 <_vfprintf_r+0x3aa>
100177a0:	e9dd 1007 	ldrd	r1, r0, [sp, #28]
100177a4:	aa32      	add	r2, sp, #200	@ 0xc8
100177a6:	f001 f97b 	bl	10018aa0 <__sprint_r>
100177aa:	2800      	cmp	r0, #0
100177ac:	d1d8      	bne.n	10017760 <_vfprintf_r+0xa08>
100177ae:	9c34      	ldr	r4, [sp, #208]	@ 0xd0
100177b0:	f10d 08d4 	add.w	r8, sp, #212	@ 0xd4
100177b4:	e4a7      	b.n	10017106 <_vfprintf_r+0x3ae>
100177b6:	bf00      	nop
100177b8:	1001d92c 	.word	0x1001d92c
100177bc:	1001d95c 	.word	0x1001d95c
100177c0:	1001db4c 	.word	0x1001db4c
100177c4:	9b13      	ldr	r3, [sp, #76]	@ 0x4c
100177c6:	9e33      	ldr	r6, [sp, #204]	@ 0xcc
100177c8:	2b01      	cmp	r3, #1
100177ca:	f104 0401 	add.w	r4, r4, #1
100177ce:	f106 0601 	add.w	r6, r6, #1
100177d2:	f108 0708 	add.w	r7, r8, #8
100177d6:	f340 811d 	ble.w	10017a14 <_vfprintf_r+0xcbc>
100177da:	2301      	movs	r3, #1
100177dc:	2e07      	cmp	r6, #7
100177de:	e9cd 6433 	strd	r6, r4, [sp, #204]	@ 0xcc
100177e2:	f8c8 5000 	str.w	r5, [r8]
100177e6:	f8c8 3004 	str.w	r3, [r8, #4]
100177ea:	f300 82e4 	bgt.w	10017db6 <_vfprintf_r+0x105e>
100177ee:	9b18      	ldr	r3, [sp, #96]	@ 0x60
100177f0:	9a19      	ldr	r2, [sp, #100]	@ 0x64
100177f2:	3601      	adds	r6, #1
100177f4:	441c      	add	r4, r3
100177f6:	2e07      	cmp	r6, #7
100177f8:	e9c7 2300 	strd	r2, r3, [r7]
100177fc:	e9cd 6433 	strd	r6, r4, [sp, #204]	@ 0xcc
10017800:	f300 82cd 	bgt.w	10017d9e <_vfprintf_r+0x1046>
10017804:	3708      	adds	r7, #8
10017806:	9b13      	ldr	r3, [sp, #76]	@ 0x4c
10017808:	e9dd 0116 	ldrd	r0, r1, [sp, #88]	@ 0x58
1001780c:	f103 38ff 	add.w	r8, r3, #4294967295	@ 0xffffffff
10017810:	2200      	movs	r2, #0
10017812:	2300      	movs	r3, #0
10017814:	f003 fc94 	bl	1001b140 <__aeabi_dcmpeq>
10017818:	2800      	cmp	r0, #0
1001781a:	f040 8115 	bne.w	10017a48 <_vfprintf_r+0xcf0>
1001781e:	3601      	adds	r6, #1
10017820:	3501      	adds	r5, #1
10017822:	4444      	add	r4, r8
10017824:	2e07      	cmp	r6, #7
10017826:	e9cd 6433 	strd	r6, r4, [sp, #204]	@ 0xcc
1001782a:	603d      	str	r5, [r7, #0]
1001782c:	f8c7 8004 	str.w	r8, [r7, #4]
10017830:	f300 80fe 	bgt.w	10017a30 <_vfprintf_r+0xcd8>
10017834:	3708      	adds	r7, #8
10017836:	9b1c      	ldr	r3, [sp, #112]	@ 0x70
10017838:	607b      	str	r3, [r7, #4]
1001783a:	3601      	adds	r6, #1
1001783c:	441c      	add	r4, r3
1001783e:	2e07      	cmp	r6, #7
10017840:	ab2c      	add	r3, sp, #176	@ 0xb0
10017842:	e9cd 6433 	strd	r6, r4, [sp, #204]	@ 0xcc
10017846:	603b      	str	r3, [r7, #0]
10017848:	dcaa      	bgt.n	100177a0 <_vfprintf_r+0xa48>
1001784a:	f107 0808 	add.w	r8, r7, #8
1001784e:	e45a      	b.n	10017106 <_vfprintf_r+0x3ae>
10017850:	464c      	mov	r4, r9
10017852:	2b0a      	cmp	r3, #10
10017854:	f172 0100 	sbcs.w	r1, r2, #0
10017858:	f080 82b9 	bcs.w	10017dce <_vfprintf_r+0x1076>
1001785c:	3330      	adds	r3, #48	@ 0x30
1001785e:	f88d 3177 	strb.w	r3, [sp, #375]	@ 0x177
10017862:	46a1      	mov	r9, r4
10017864:	f04f 0b01 	mov.w	fp, #1
10017868:	f20d 1577 	addw	r5, sp, #375	@ 0x177
1001786c:	e6ca      	b.n	10017604 <_vfprintf_r+0x8ac>
1001786e:	e9dd 1007 	ldrd	r1, r0, [sp, #28]
10017872:	aa32      	add	r2, sp, #200	@ 0xc8
10017874:	9315      	str	r3, [sp, #84]	@ 0x54
10017876:	f001 f913 	bl	10018aa0 <__sprint_r>
1001787a:	2800      	cmp	r0, #0
1001787c:	f47f af70 	bne.w	10017760 <_vfprintf_r+0xa08>
10017880:	9c34      	ldr	r4, [sp, #208]	@ 0xd0
10017882:	9b15      	ldr	r3, [sp, #84]	@ 0x54
10017884:	f10d 08d4 	add.w	r8, sp, #212	@ 0xd4
10017888:	e410      	b.n	100170ac <_vfprintf_r+0x354>
1001788a:	e9dd 1007 	ldrd	r1, r0, [sp, #28]
1001788e:	aa32      	add	r2, sp, #200	@ 0xc8
10017890:	f001 f906 	bl	10018aa0 <__sprint_r>
10017894:	2800      	cmp	r0, #0
10017896:	f47f af63 	bne.w	10017760 <_vfprintf_r+0xa08>
1001789a:	9c34      	ldr	r4, [sp, #208]	@ 0xd0
1001789c:	f10d 08d4 	add.w	r8, sp, #212	@ 0xd4
100178a0:	e416      	b.n	100170d0 <_vfprintf_r+0x378>
100178a2:	2d10      	cmp	r5, #16
100178a4:	9b33      	ldr	r3, [sp, #204]	@ 0xcc
100178a6:	f340 8750 	ble.w	1001874a <_vfprintf_r+0x19f2>
100178aa:	4fbb      	ldr	r7, [pc, #748]	@ (10017b98 <_vfprintf_r+0xe40>)
100178ac:	9715      	str	r7, [sp, #84]	@ 0x54
100178ae:	e9dd a907 	ldrd	sl, r9, [sp, #28]
100178b2:	2610      	movs	r6, #16
100178b4:	e004      	b.n	100178c0 <_vfprintf_r+0xb68>
100178b6:	3d10      	subs	r5, #16
100178b8:	2d10      	cmp	r5, #16
100178ba:	f108 0808 	add.w	r8, r8, #8
100178be:	dd16      	ble.n	100178ee <_vfprintf_r+0xb96>
100178c0:	3301      	adds	r3, #1
100178c2:	3410      	adds	r4, #16
100178c4:	2b07      	cmp	r3, #7
100178c6:	e9c8 7600 	strd	r7, r6, [r8]
100178ca:	e9cd 3433 	strd	r3, r4, [sp, #204]	@ 0xcc
100178ce:	ddf2      	ble.n	100178b6 <_vfprintf_r+0xb5e>
100178d0:	aa32      	add	r2, sp, #200	@ 0xc8
100178d2:	4651      	mov	r1, sl
100178d4:	4648      	mov	r0, r9
100178d6:	f10d 08d4 	add.w	r8, sp, #212	@ 0xd4
100178da:	f001 f8e1 	bl	10018aa0 <__sprint_r>
100178de:	2800      	cmp	r0, #0
100178e0:	f040 82f5 	bne.w	10017ece <_vfprintf_r+0x1176>
100178e4:	3d10      	subs	r5, #16
100178e6:	2d10      	cmp	r5, #16
100178e8:	e9dd 3433 	ldrd	r3, r4, [sp, #204]	@ 0xcc
100178ec:	dce8      	bgt.n	100178c0 <_vfprintf_r+0xb68>
100178ee:	3301      	adds	r3, #1
100178f0:	9a15      	ldr	r2, [sp, #84]	@ 0x54
100178f2:	442c      	add	r4, r5
100178f4:	2b07      	cmp	r3, #7
100178f6:	e9c8 2500 	strd	r2, r5, [r8]
100178fa:	e9cd 3433 	strd	r3, r4, [sp, #204]	@ 0xcc
100178fe:	f77f ac0b 	ble.w	10017118 <_vfprintf_r+0x3c0>
10017902:	e9dd 1007 	ldrd	r1, r0, [sp, #28]
10017906:	aa32      	add	r2, sp, #200	@ 0xc8
10017908:	f001 f8ca 	bl	10018aa0 <__sprint_r>
1001790c:	2800      	cmp	r0, #0
1001790e:	f47f af27 	bne.w	10017760 <_vfprintf_r+0xa08>
10017912:	9c34      	ldr	r4, [sp, #208]	@ 0xd0
10017914:	e400      	b.n	10017118 <_vfprintf_r+0x3c0>
10017916:	9a29      	ldr	r2, [sp, #164]	@ 0xa4
10017918:	2a00      	cmp	r2, #0
1001791a:	f340 80fd 	ble.w	10017b18 <_vfprintf_r+0xdc0>
1001791e:	e9dd 7312 	ldrd	r7, r3, [sp, #72]	@ 0x48
10017922:	429f      	cmp	r7, r3
10017924:	bfa8      	it	ge
10017926:	461f      	movge	r7, r3
10017928:	2f00      	cmp	r7, #0
1001792a:	eb05 0b03 	add.w	fp, r5, r3
1001792e:	dd0b      	ble.n	10017948 <_vfprintf_r+0xbf0>
10017930:	9b33      	ldr	r3, [sp, #204]	@ 0xcc
10017932:	3301      	adds	r3, #1
10017934:	443c      	add	r4, r7
10017936:	2b07      	cmp	r3, #7
10017938:	e9c8 5700 	strd	r5, r7, [r8]
1001793c:	9434      	str	r4, [sp, #208]	@ 0xd0
1001793e:	9333      	str	r3, [sp, #204]	@ 0xcc
10017940:	f300 866d 	bgt.w	1001861e <_vfprintf_r+0x18c6>
10017944:	f108 0808 	add.w	r8, r8, #8
10017948:	9e12      	ldr	r6, [sp, #72]	@ 0x48
1001794a:	2f00      	cmp	r7, #0
1001794c:	bfa8      	it	ge
1001794e:	1bf6      	subge	r6, r6, r7
10017950:	2e00      	cmp	r6, #0
10017952:	f300 8345 	bgt.w	10017fe0 <_vfprintf_r+0x1288>
10017956:	9b12      	ldr	r3, [sp, #72]	@ 0x48
10017958:	f419 6f80 	tst.w	r9, #1024	@ 0x400
1001795c:	442b      	add	r3, r5
1001795e:	469a      	mov	sl, r3
10017960:	f040 8578 	bne.w	10018454 <_vfprintf_r+0x16fc>
10017964:	9d29      	ldr	r5, [sp, #164]	@ 0xa4
10017966:	9b13      	ldr	r3, [sp, #76]	@ 0x4c
10017968:	429d      	cmp	r5, r3
1001796a:	db03      	blt.n	10017974 <_vfprintf_r+0xc1c>
1001796c:	f019 0f01 	tst.w	r9, #1
10017970:	f000 8402 	beq.w	10018178 <_vfprintf_r+0x1420>
10017974:	9b18      	ldr	r3, [sp, #96]	@ 0x60
10017976:	9a19      	ldr	r2, [sp, #100]	@ 0x64
10017978:	441c      	add	r4, r3
1001797a:	e9c8 2300 	strd	r2, r3, [r8]
1001797e:	9b33      	ldr	r3, [sp, #204]	@ 0xcc
10017980:	9434      	str	r4, [sp, #208]	@ 0xd0
10017982:	3301      	adds	r3, #1
10017984:	2b07      	cmp	r3, #7
10017986:	9333      	str	r3, [sp, #204]	@ 0xcc
10017988:	f300 8658 	bgt.w	1001863c <_vfprintf_r+0x18e4>
1001798c:	f108 0808 	add.w	r8, r8, #8
10017990:	9b13      	ldr	r3, [sp, #76]	@ 0x4c
10017992:	ebab 060a 	sub.w	r6, fp, sl
10017996:	1b5d      	subs	r5, r3, r5
10017998:	42ae      	cmp	r6, r5
1001799a:	bfa8      	it	ge
1001799c:	462e      	movge	r6, r5
1001799e:	2e00      	cmp	r6, #0
100179a0:	dd0d      	ble.n	100179be <_vfprintf_r+0xc66>
100179a2:	9b33      	ldr	r3, [sp, #204]	@ 0xcc
100179a4:	f8c8 a000 	str.w	sl, [r8]
100179a8:	3301      	adds	r3, #1
100179aa:	4434      	add	r4, r6
100179ac:	2b07      	cmp	r3, #7
100179ae:	f8c8 6004 	str.w	r6, [r8, #4]
100179b2:	9434      	str	r4, [sp, #208]	@ 0xd0
100179b4:	9333      	str	r3, [sp, #204]	@ 0xcc
100179b6:	f300 8653 	bgt.w	10018660 <_vfprintf_r+0x1908>
100179ba:	f108 0808 	add.w	r8, r8, #8
100179be:	2e00      	cmp	r6, #0
100179c0:	bfa8      	it	ge
100179c2:	1bad      	subge	r5, r5, r6
100179c4:	2d00      	cmp	r5, #0
100179c6:	f77f ab9e 	ble.w	10017106 <_vfprintf_r+0x3ae>
100179ca:	2d10      	cmp	r5, #16
100179cc:	9b33      	ldr	r3, [sp, #204]	@ 0xcc
100179ce:	f340 82d9 	ble.w	10017f84 <_vfprintf_r+0x122c>
100179d2:	4f72      	ldr	r7, [pc, #456]	@ (10017b9c <_vfprintf_r+0xe44>)
100179d4:	9715      	str	r7, [sp, #84]	@ 0x54
100179d6:	e9dd ab07 	ldrd	sl, fp, [sp, #28]
100179da:	2610      	movs	r6, #16
100179dc:	e005      	b.n	100179ea <_vfprintf_r+0xc92>
100179de:	f108 0808 	add.w	r8, r8, #8
100179e2:	3d10      	subs	r5, #16
100179e4:	2d10      	cmp	r5, #16
100179e6:	f340 82cf 	ble.w	10017f88 <_vfprintf_r+0x1230>
100179ea:	3301      	adds	r3, #1
100179ec:	3410      	adds	r4, #16
100179ee:	2b07      	cmp	r3, #7
100179f0:	e9c8 7600 	strd	r7, r6, [r8]
100179f4:	e9cd 3433 	strd	r3, r4, [sp, #204]	@ 0xcc
100179f8:	ddf1      	ble.n	100179de <_vfprintf_r+0xc86>
100179fa:	aa32      	add	r2, sp, #200	@ 0xc8
100179fc:	4651      	mov	r1, sl
100179fe:	4658      	mov	r0, fp
10017a00:	f001 f84e 	bl	10018aa0 <__sprint_r>
10017a04:	2800      	cmp	r0, #0
10017a06:	f47f aaff 	bne.w	10017008 <_vfprintf_r+0x2b0>
10017a0a:	e9dd 3433 	ldrd	r3, r4, [sp, #204]	@ 0xcc
10017a0e:	f10d 08d4 	add.w	r8, sp, #212	@ 0xd4
10017a12:	e7e6      	b.n	100179e2 <_vfprintf_r+0xc8a>
10017a14:	f019 0f01 	tst.w	r9, #1
10017a18:	f47f aedf 	bne.w	100177da <_vfprintf_r+0xa82>
10017a1c:	2301      	movs	r3, #1
10017a1e:	2e07      	cmp	r6, #7
10017a20:	e9cd 6433 	strd	r6, r4, [sp, #204]	@ 0xcc
10017a24:	f8c8 5000 	str.w	r5, [r8]
10017a28:	f8c8 3004 	str.w	r3, [r8, #4]
10017a2c:	f77f af03 	ble.w	10017836 <_vfprintf_r+0xade>
10017a30:	e9dd 1007 	ldrd	r1, r0, [sp, #28]
10017a34:	aa32      	add	r2, sp, #200	@ 0xc8
10017a36:	f001 f833 	bl	10018aa0 <__sprint_r>
10017a3a:	2800      	cmp	r0, #0
10017a3c:	f47f ae90 	bne.w	10017760 <_vfprintf_r+0xa08>
10017a40:	e9dd 6433 	ldrd	r6, r4, [sp, #204]	@ 0xcc
10017a44:	af35      	add	r7, sp, #212	@ 0xd4
10017a46:	e6f6      	b.n	10017836 <_vfprintf_r+0xade>
10017a48:	9b13      	ldr	r3, [sp, #76]	@ 0x4c
10017a4a:	2b01      	cmp	r3, #1
10017a4c:	f77f aef3 	ble.w	10017836 <_vfprintf_r+0xade>
10017a50:	2b11      	cmp	r3, #17
10017a52:	4b52      	ldr	r3, [pc, #328]	@ (10017b9c <_vfprintf_r+0xe44>)
10017a54:	9315      	str	r3, [sp, #84]	@ 0x54
10017a56:	f340 82b7 	ble.w	10017fc8 <_vfprintf_r+0x1270>
10017a5a:	f8cd 9024 	str.w	r9, [sp, #36]	@ 0x24
10017a5e:	e9dd ba07 	ldrd	fp, sl, [sp, #28]
10017a62:	2510      	movs	r5, #16
10017a64:	4699      	mov	r9, r3
10017a66:	e006      	b.n	10017a76 <_vfprintf_r+0xd1e>
10017a68:	3708      	adds	r7, #8
10017a6a:	f1a8 0810 	sub.w	r8, r8, #16
10017a6e:	f1b8 0f10 	cmp.w	r8, #16
10017a72:	f340 82a7 	ble.w	10017fc4 <_vfprintf_r+0x126c>
10017a76:	3601      	adds	r6, #1
10017a78:	3410      	adds	r4, #16
10017a7a:	2e07      	cmp	r6, #7
10017a7c:	e9c7 9500 	strd	r9, r5, [r7]
10017a80:	e9cd 6433 	strd	r6, r4, [sp, #204]	@ 0xcc
10017a84:	ddf0      	ble.n	10017a68 <_vfprintf_r+0xd10>
10017a86:	aa32      	add	r2, sp, #200	@ 0xc8
10017a88:	4659      	mov	r1, fp
10017a8a:	4650      	mov	r0, sl
10017a8c:	f001 f808 	bl	10018aa0 <__sprint_r>
10017a90:	2800      	cmp	r0, #0
10017a92:	f040 8202 	bne.w	10017e9a <_vfprintf_r+0x1142>
10017a96:	e9dd 6433 	ldrd	r6, r4, [sp, #204]	@ 0xcc
10017a9a:	af35      	add	r7, sp, #212	@ 0xd4
10017a9c:	e7e5      	b.n	10017a6a <_vfprintf_r+0xd12>
10017a9e:	e9dd 1007 	ldrd	r1, r0, [sp, #28]
10017aa2:	aa32      	add	r2, sp, #200	@ 0xc8
10017aa4:	f000 fffc 	bl	10018aa0 <__sprint_r>
10017aa8:	2800      	cmp	r0, #0
10017aaa:	f47f ae59 	bne.w	10017760 <_vfprintf_r+0xa08>
10017aae:	9c34      	ldr	r4, [sp, #208]	@ 0xd0
10017ab0:	f10d 08d4 	add.w	r8, sp, #212	@ 0xd4
10017ab4:	f7ff bb15 	b.w	100170e2 <_vfprintf_r+0x38a>
10017ab8:	990d      	ldr	r1, [sp, #52]	@ 0x34
10017aba:	f851 3b04 	ldr.w	r3, [r1], #4
10017abe:	910d      	str	r1, [sp, #52]	@ 0x34
10017ac0:	f014 0110 	ands.w	r1, r4, #16
10017ac4:	d155      	bne.n	10017b72 <_vfprintf_r+0xe1a>
10017ac6:	f014 0040 	ands.w	r0, r4, #64	@ 0x40
10017aca:	d04d      	beq.n	10017b68 <_vfprintf_r+0xe10>
10017acc:	460a      	mov	r2, r1
10017ace:	b29b      	uxth	r3, r3
10017ad0:	2101      	movs	r1, #1
10017ad2:	e4b7      	b.n	10017444 <_vfprintf_r+0x6ec>
10017ad4:	990d      	ldr	r1, [sp, #52]	@ 0x34
10017ad6:	f851 3b04 	ldr.w	r3, [r1], #4
10017ada:	910d      	str	r1, [sp, #52]	@ 0x34
10017adc:	f019 0110 	ands.w	r1, r9, #16
10017ae0:	f47f acad 	bne.w	1001743e <_vfprintf_r+0x6e6>
10017ae4:	f019 0040 	ands.w	r0, r9, #64	@ 0x40
10017ae8:	f000 82a7 	beq.w	1001803a <_vfprintf_r+0x12e2>
10017aec:	b29b      	uxth	r3, r3
10017aee:	460a      	mov	r2, r1
10017af0:	e4a5      	b.n	1001743e <_vfprintf_r+0x6e6>
10017af2:	9d07      	ldr	r5, [sp, #28]
10017af4:	6da8      	ldr	r0, [r5, #88]	@ 0x58
10017af6:	f7fc ffb3 	bl	10014a60 <__retarget_lock_acquire_recursive>
10017afa:	f9b5 300c 	ldrsh.w	r3, [r5, #12]
10017afe:	f7ff b951 	b.w	10016da4 <_vfprintf_r+0x4c>
10017b02:	f019 0f01 	tst.w	r9, #1
10017b06:	f43f aafe 	beq.w	10017106 <_vfprintf_r+0x3ae>
10017b0a:	e52b      	b.n	10017564 <_vfprintf_r+0x80c>
10017b0c:	930d      	str	r3, [sp, #52]	@ 0x34
10017b0e:	7823      	ldrb	r3, [r4, #0]
10017b10:	f7ff b99a 	b.w	10016e48 <_vfprintf_r+0xf0>
10017b14:	ad5e      	add	r5, sp, #376	@ 0x178
10017b16:	e575      	b.n	10017604 <_vfprintf_r+0x8ac>
10017b18:	9b33      	ldr	r3, [sp, #204]	@ 0xcc
10017b1a:	4921      	ldr	r1, [pc, #132]	@ (10017ba0 <_vfprintf_r+0xe48>)
10017b1c:	f8c8 1000 	str.w	r1, [r8]
10017b20:	3301      	adds	r3, #1
10017b22:	3401      	adds	r4, #1
10017b24:	2101      	movs	r1, #1
10017b26:	2b07      	cmp	r3, #7
10017b28:	9434      	str	r4, [sp, #208]	@ 0xd0
10017b2a:	9333      	str	r3, [sp, #204]	@ 0xcc
10017b2c:	f8c8 1004 	str.w	r1, [r8, #4]
10017b30:	f300 854f 	bgt.w	100185d2 <_vfprintf_r+0x187a>
10017b34:	f108 0808 	add.w	r8, r8, #8
10017b38:	2a00      	cmp	r2, #0
10017b3a:	f47f ae14 	bne.w	10017766 <_vfprintf_r+0xa0e>
10017b3e:	9a13      	ldr	r2, [sp, #76]	@ 0x4c
10017b40:	f009 0301 	and.w	r3, r9, #1
10017b44:	4313      	orrs	r3, r2
10017b46:	f43f aade 	beq.w	10017106 <_vfprintf_r+0x3ae>
10017b4a:	9b18      	ldr	r3, [sp, #96]	@ 0x60
10017b4c:	9a19      	ldr	r2, [sp, #100]	@ 0x64
10017b4e:	441c      	add	r4, r3
10017b50:	e9c8 2300 	strd	r2, r3, [r8]
10017b54:	9b33      	ldr	r3, [sp, #204]	@ 0xcc
10017b56:	9434      	str	r4, [sp, #208]	@ 0xd0
10017b58:	3301      	adds	r3, #1
10017b5a:	2b07      	cmp	r3, #7
10017b5c:	9333      	str	r3, [sp, #204]	@ 0xcc
10017b5e:	f300 83cb 	bgt.w	100182f8 <_vfprintf_r+0x15a0>
10017b62:	f108 0808 	add.w	r8, r8, #8
10017b66:	e60f      	b.n	10017788 <_vfprintf_r+0xa30>
10017b68:	f414 7200 	ands.w	r2, r4, #512	@ 0x200
10017b6c:	bf1c      	itt	ne
10017b6e:	b2db      	uxtbne	r3, r3
10017b70:	4602      	movne	r2, r0
10017b72:	2101      	movs	r1, #1
10017b74:	e466      	b.n	10017444 <_vfprintf_r+0x6ec>
10017b76:	f419 7f00 	tst.w	r9, #512	@ 0x200
10017b7a:	f040 8305 	bne.w	10018188 <_vfprintf_r+0x1430>
10017b7e:	17da      	asrs	r2, r3, #31
10017b80:	4611      	mov	r1, r2
10017b82:	2900      	cmp	r1, #0
10017b84:	f6bf abdc 	bge.w	10017340 <_vfprintf_r+0x5e8>
10017b88:	425b      	negs	r3, r3
10017b8a:	eb62 0242 	sbc.w	r2, r2, r2, lsl #1
10017b8e:	464c      	mov	r4, r9
10017b90:	202d      	movs	r0, #45	@ 0x2d
10017b92:	2101      	movs	r1, #1
10017b94:	e457      	b.n	10017446 <_vfprintf_r+0x6ee>
10017b96:	bf00      	nop
10017b98:	1001db5c 	.word	0x1001db5c
10017b9c:	1001db4c 	.word	0x1001db4c
10017ba0:	1001d95c 	.word	0x1001d95c
10017ba4:	9a1b      	ldr	r2, [sp, #108]	@ 0x6c
10017ba6:	7823      	ldrb	r3, [r4, #0]
10017ba8:	2a00      	cmp	r2, #0
10017baa:	f43f a94d 	beq.w	10016e48 <_vfprintf_r+0xf0>
10017bae:	7812      	ldrb	r2, [r2, #0]
10017bb0:	2a00      	cmp	r2, #0
10017bb2:	f43f a949 	beq.w	10016e48 <_vfprintf_r+0xf0>
10017bb6:	f449 6980 	orr.w	r9, r9, #1024	@ 0x400
10017bba:	f7ff b945 	b.w	10016e48 <_vfprintf_r+0xf0>
10017bbe:	f019 0f10 	tst.w	r9, #16
10017bc2:	f040 81f9 	bne.w	10017fb8 <_vfprintf_r+0x1260>
10017bc6:	f019 0f40 	tst.w	r9, #64	@ 0x40
10017bca:	f040 82e3 	bne.w	10018194 <_vfprintf_r+0x143c>
10017bce:	f419 7f00 	tst.w	r9, #512	@ 0x200
10017bd2:	f000 81f1 	beq.w	10017fb8 <_vfprintf_r+0x1260>
10017bd6:	9b0d      	ldr	r3, [sp, #52]	@ 0x34
10017bd8:	9a0a      	ldr	r2, [sp, #40]	@ 0x28
10017bda:	681b      	ldr	r3, [r3, #0]
10017bdc:	701a      	strb	r2, [r3, #0]
10017bde:	e49b      	b.n	10017518 <_vfprintf_r+0x7c0>
10017be0:	e9dd 0116 	ldrd	r0, r1, [sp, #88]	@ 0x58
10017be4:	4602      	mov	r2, r0
10017be6:	460b      	mov	r3, r1
10017be8:	f003 fadc 	bl	1001b1a4 <__aeabi_dcmpun>
10017bec:	2800      	cmp	r0, #0
10017bee:	f040 8636 	bne.w	1001885e <_vfprintf_r+0x1b06>
10017bf2:	9b0e      	ldr	r3, [sp, #56]	@ 0x38
10017bf4:	2b61      	cmp	r3, #97	@ 0x61
10017bf6:	f000 851f 	beq.w	10018638 <_vfprintf_r+0x18e0>
10017bfa:	2b41      	cmp	r3, #65	@ 0x41
10017bfc:	f000 82e1 	beq.w	100181c2 <_vfprintf_r+0x146a>
10017c00:	9b09      	ldr	r3, [sp, #36]	@ 0x24
10017c02:	3301      	adds	r3, #1
10017c04:	f000 8615 	beq.w	10018832 <_vfprintf_r+0x1ada>
10017c08:	9b0e      	ldr	r3, [sp, #56]	@ 0x38
10017c0a:	f023 0320 	bic.w	r3, r3, #32
10017c0e:	2b47      	cmp	r3, #71	@ 0x47
10017c10:	d104      	bne.n	10017c1c <_vfprintf_r+0xec4>
10017c12:	9b09      	ldr	r3, [sp, #36]	@ 0x24
10017c14:	2b00      	cmp	r3, #0
10017c16:	bf08      	it	eq
10017c18:	2301      	moveq	r3, #1
10017c1a:	9309      	str	r3, [sp, #36]	@ 0x24
10017c1c:	e9dd 0116 	ldrd	r0, r1, [sp, #88]	@ 0x58
10017c20:	f449 7280 	orr.w	r2, r9, #256	@ 0x100
10017c24:	2900      	cmp	r1, #0
10017c26:	9215      	str	r2, [sp, #84]	@ 0x54
10017c28:	f8cd 9018 	str.w	r9, [sp, #24]
10017c2c:	f04f 0300 	mov.w	r3, #0
10017c30:	f2c0 84dd 	blt.w	100185ee <_vfprintf_r+0x1896>
10017c34:	e9cd 0124 	strd	r0, r1, [sp, #144]	@ 0x90
10017c38:	931f      	str	r3, [sp, #124]	@ 0x7c
10017c3a:	930c      	str	r3, [sp, #48]	@ 0x30
10017c3c:	9b0e      	ldr	r3, [sp, #56]	@ 0x38
10017c3e:	3b41      	subs	r3, #65	@ 0x41
10017c40:	2b25      	cmp	r3, #37	@ 0x25
10017c42:	f200 8201 	bhi.w	10018048 <_vfprintf_r+0x12f0>
10017c46:	e8df f013 	tbh	[pc, r3, lsl #1]
10017c4a:	0372      	.short	0x0372
10017c4c:	01ff01ff 	.word	0x01ff01ff
10017c50:	036b01ff 	.word	0x036b01ff
10017c54:	01ff036f 	.word	0x01ff036f
10017c58:	01ff01ff 	.word	0x01ff01ff
10017c5c:	01ff01ff 	.word	0x01ff01ff
10017c60:	01ff01ff 	.word	0x01ff01ff
10017c64:	01ff01ff 	.word	0x01ff01ff
10017c68:	01ff01ff 	.word	0x01ff01ff
10017c6c:	01ff01ff 	.word	0x01ff01ff
10017c70:	01ff01ff 	.word	0x01ff01ff
10017c74:	01ff01ff 	.word	0x01ff01ff
10017c78:	01ff01ff 	.word	0x01ff01ff
10017c7c:	01ff01ff 	.word	0x01ff01ff
10017c80:	01ff01ff 	.word	0x01ff01ff
10017c84:	01ff01ff 	.word	0x01ff01ff
10017c88:	01ff01ff 	.word	0x01ff01ff
10017c8c:	01ff01ff 	.word	0x01ff01ff
10017c90:	036b01ff 	.word	0x036b01ff
10017c94:	036f      	.short	0x036f
10017c96:	e9cd 340e 	strd	r3, r4, [sp, #56]	@ 0x38
10017c9a:	4bc2      	ldr	r3, [pc, #776]	@ (10017fa4 <_vfprintf_r+0x124c>)
10017c9c:	931a      	str	r3, [sp, #104]	@ 0x68
10017c9e:	f019 0220 	ands.w	r2, r9, #32
10017ca2:	d06a      	beq.n	10017d7a <_vfprintf_r+0x1022>
10017ca4:	9b0d      	ldr	r3, [sp, #52]	@ 0x34
10017ca6:	3307      	adds	r3, #7
10017ca8:	f023 0307 	bic.w	r3, r3, #7
10017cac:	4619      	mov	r1, r3
10017cae:	685a      	ldr	r2, [r3, #4]
10017cb0:	f851 3b08 	ldr.w	r3, [r1], #8
10017cb4:	910d      	str	r1, [sp, #52]	@ 0x34
10017cb6:	f019 0f01 	tst.w	r9, #1
10017cba:	d00a      	beq.n	10017cd2 <_vfprintf_r+0xf7a>
10017cbc:	ea53 0102 	orrs.w	r1, r3, r2
10017cc0:	d007      	beq.n	10017cd2 <_vfprintf_r+0xf7a>
10017cc2:	990e      	ldr	r1, [sp, #56]	@ 0x38
10017cc4:	f88d 10a1 	strb.w	r1, [sp, #161]	@ 0xa1
10017cc8:	2130      	movs	r1, #48	@ 0x30
10017cca:	f049 0902 	orr.w	r9, r9, #2
10017cce:	f88d 10a0 	strb.w	r1, [sp, #160]	@ 0xa0
10017cd2:	f429 6480 	bic.w	r4, r9, #1024	@ 0x400
10017cd6:	2102      	movs	r1, #2
10017cd8:	f7ff bbb4 	b.w	10017444 <_vfprintf_r+0x6ec>
10017cdc:	e9cd 340e 	strd	r3, r4, [sp, #56]	@ 0x38
10017ce0:	464c      	mov	r4, r9
10017ce2:	f7ff bbd0 	b.w	10017486 <_vfprintf_r+0x72e>
10017ce6:	e9cd 340e 	strd	r3, r4, [sp, #56]	@ 0x38
10017cea:	f7ff bb9b 	b.w	10017424 <_vfprintf_r+0x6cc>
10017cee:	e9cd 340e 	strd	r3, r4, [sp, #56]	@ 0x38
10017cf2:	4bad      	ldr	r3, [pc, #692]	@ (10017fa8 <_vfprintf_r+0x1250>)
10017cf4:	931a      	str	r3, [sp, #104]	@ 0x68
10017cf6:	e7d2      	b.n	10017c9e <_vfprintf_r+0xf46>
10017cf8:	e9dd 1007 	ldrd	r1, r0, [sp, #28]
10017cfc:	aa32      	add	r2, sp, #200	@ 0xc8
10017cfe:	f000 fecf 	bl	10018aa0 <__sprint_r>
10017d02:	2800      	cmp	r0, #0
10017d04:	f47f ad2c 	bne.w	10017760 <_vfprintf_r+0xa08>
10017d08:	9c34      	ldr	r4, [sp, #208]	@ 0xd0
10017d0a:	f10d 08d4 	add.w	r8, sp, #212	@ 0xd4
10017d0e:	f7ff b9e2 	b.w	100170d6 <_vfprintf_r+0x37e>
10017d12:	e9dd 1007 	ldrd	r1, r0, [sp, #28]
10017d16:	aa32      	add	r2, sp, #200	@ 0xc8
10017d18:	f000 fec2 	bl	10018aa0 <__sprint_r>
10017d1c:	2800      	cmp	r0, #0
10017d1e:	f47f ad1f 	bne.w	10017760 <_vfprintf_r+0xa08>
10017d22:	9c34      	ldr	r4, [sp, #208]	@ 0xd0
10017d24:	f10d 08d4 	add.w	r8, sp, #212	@ 0xd4
10017d28:	e42a      	b.n	10017580 <_vfprintf_r+0x828>
10017d2a:	9b09      	ldr	r3, [sp, #36]	@ 0x24
10017d2c:	950c      	str	r5, [sp, #48]	@ 0x30
10017d2e:	2b06      	cmp	r3, #6
10017d30:	4629      	mov	r1, r5
10017d32:	bf28      	it	cs
10017d34:	2306      	movcs	r3, #6
10017d36:	9509      	str	r5, [sp, #36]	@ 0x24
10017d38:	462a      	mov	r2, r5
10017d3a:	9306      	str	r3, [sp, #24]
10017d3c:	4d9b      	ldr	r5, [pc, #620]	@ (10017fac <_vfprintf_r+0x1254>)
10017d3e:	960d      	str	r6, [sp, #52]	@ 0x34
10017d40:	469b      	mov	fp, r3
10017d42:	9114      	str	r1, [sp, #80]	@ 0x50
10017d44:	9110      	str	r1, [sp, #64]	@ 0x40
10017d46:	9112      	str	r1, [sp, #72]	@ 0x48
10017d48:	f7ff ba41 	b.w	100171ce <_vfprintf_r+0x476>
10017d4c:	2208      	movs	r2, #8
10017d4e:	2100      	movs	r1, #0
10017d50:	a830      	add	r0, sp, #192	@ 0xc0
10017d52:	f7fc fdcd 	bl	100148f0 <memset>
10017d56:	9b0d      	ldr	r3, [sp, #52]	@ 0x34
10017d58:	9808      	ldr	r0, [sp, #32]
10017d5a:	681a      	ldr	r2, [r3, #0]
10017d5c:	ad45      	add	r5, sp, #276	@ 0x114
10017d5e:	ab30      	add	r3, sp, #192	@ 0xc0
10017d60:	4629      	mov	r1, r5
10017d62:	f7fc fe17 	bl	10014994 <_wcrtomb_r>
10017d66:	f1b0 3fff 	cmp.w	r0, #4294967295	@ 0xffffffff
10017d6a:	4683      	mov	fp, r0
10017d6c:	f000 8542 	beq.w	100187f4 <_vfprintf_r+0x1a9c>
10017d70:	ea20 73e0 	bic.w	r3, r0, r0, asr #31
10017d74:	9306      	str	r3, [sp, #24]
10017d76:	f7ff ba94 	b.w	100172a2 <_vfprintf_r+0x54a>
10017d7a:	990d      	ldr	r1, [sp, #52]	@ 0x34
10017d7c:	f851 3b04 	ldr.w	r3, [r1], #4
10017d80:	910d      	str	r1, [sp, #52]	@ 0x34
10017d82:	f019 0110 	ands.w	r1, r9, #16
10017d86:	d196      	bne.n	10017cb6 <_vfprintf_r+0xf5e>
10017d88:	f019 0040 	ands.w	r0, r9, #64	@ 0x40
10017d8c:	f000 814f 	beq.w	1001802e <_vfprintf_r+0x12d6>
10017d90:	b29b      	uxth	r3, r3
10017d92:	460a      	mov	r2, r1
10017d94:	e78f      	b.n	10017cb6 <_vfprintf_r+0xf5e>
10017d96:	f8dd b024 	ldr.w	fp, [sp, #36]	@ 0x24
10017d9a:	ad5e      	add	r5, sp, #376	@ 0x178
10017d9c:	e432      	b.n	10017604 <_vfprintf_r+0x8ac>
10017d9e:	e9dd 1007 	ldrd	r1, r0, [sp, #28]
10017da2:	aa32      	add	r2, sp, #200	@ 0xc8
10017da4:	f000 fe7c 	bl	10018aa0 <__sprint_r>
10017da8:	2800      	cmp	r0, #0
10017daa:	f47f acd9 	bne.w	10017760 <_vfprintf_r+0xa08>
10017dae:	e9dd 6433 	ldrd	r6, r4, [sp, #204]	@ 0xcc
10017db2:	af35      	add	r7, sp, #212	@ 0xd4
10017db4:	e527      	b.n	10017806 <_vfprintf_r+0xaae>
10017db6:	e9dd 1007 	ldrd	r1, r0, [sp, #28]
10017dba:	aa32      	add	r2, sp, #200	@ 0xc8
10017dbc:	f000 fe70 	bl	10018aa0 <__sprint_r>
10017dc0:	2800      	cmp	r0, #0
10017dc2:	f47f accd 	bne.w	10017760 <_vfprintf_r+0xa08>
10017dc6:	e9dd 6433 	ldrd	r6, r4, [sp, #204]	@ 0xcc
10017dca:	af35      	add	r7, sp, #212	@ 0xd4
10017dcc:	e50f      	b.n	100177ee <_vfprintf_r+0xa96>
10017dce:	f404 6b80 	and.w	fp, r4, #1024	@ 0x400
10017dd2:	2100      	movs	r1, #0
10017dd4:	f8cd 8030 	str.w	r8, [sp, #48]	@ 0x30
10017dd8:	f8df 91d8 	ldr.w	r9, [pc, #472]	@ 10017fb4 <_vfprintf_r+0x125c>
10017ddc:	f8dd 806c 	ldr.w	r8, [sp, #108]	@ 0x6c
10017de0:	9406      	str	r4, [sp, #24]
10017de2:	ad5e      	add	r5, sp, #376	@ 0x178
10017de4:	f04f 3acc 	mov.w	sl, #3435973836	@ 0xcccccccc
10017de8:	2705      	movs	r7, #5
10017dea:	468c      	mov	ip, r1
10017dec:	465e      	mov	r6, fp
10017dee:	e005      	b.n	10017dfc <_vfprintf_r+0x10a4>
10017df0:	2b0a      	cmp	r3, #10
10017df2:	f172 0200 	sbcs.w	r2, r2, #0
10017df6:	d333      	bcc.n	10017e60 <_vfprintf_r+0x1108>
10017df8:	465b      	mov	r3, fp
10017dfa:	4622      	mov	r2, r4
10017dfc:	1899      	adds	r1, r3, r2
10017dfe:	f141 0100 	adc.w	r1, r1, #0
10017e02:	fba9 0401 	umull	r0, r4, r9, r1
10017e06:	f024 0003 	bic.w	r0, r4, #3
10017e0a:	eb00 0094 	add.w	r0, r0, r4, lsr #2
10017e0e:	1a09      	subs	r1, r1, r0
10017e10:	1a58      	subs	r0, r3, r1
10017e12:	f162 0e00 	sbc.w	lr, r2, #0
10017e16:	fb0a f400 	mul.w	r4, sl, r0
10017e1a:	fba0 b009 	umull	fp, r0, r0, r9
10017e1e:	fb09 440e 	mla	r4, r9, lr, r4
10017e22:	f00b 0e01 	and.w	lr, fp, #1
10017e26:	4404      	add	r4, r0
10017e28:	fbae 0e07 	umull	r0, lr, lr, r7
10017e2c:	1840      	adds	r0, r0, r1
10017e2e:	ea4f 0b5b 	mov.w	fp, fp, lsr #1
10017e32:	3030      	adds	r0, #48	@ 0x30
10017e34:	f805 0c01 	strb.w	r0, [r5, #-1]
10017e38:	ea4b 7bc4 	orr.w	fp, fp, r4, lsl #31
10017e3c:	f10c 0c01 	add.w	ip, ip, #1
10017e40:	3d01      	subs	r5, #1
10017e42:	0864      	lsrs	r4, r4, #1
10017e44:	2e00      	cmp	r6, #0
10017e46:	d0d3      	beq.n	10017df0 <_vfprintf_r+0x1098>
10017e48:	f898 1000 	ldrb.w	r1, [r8]
10017e4c:	458c      	cmp	ip, r1
10017e4e:	d1cf      	bne.n	10017df0 <_vfprintf_r+0x1098>
10017e50:	f1bc 0fff 	cmp.w	ip, #255	@ 0xff
10017e54:	d0cc      	beq.n	10017df0 <_vfprintf_r+0x1098>
10017e56:	2b0a      	cmp	r3, #10
10017e58:	f172 0200 	sbcs.w	r2, r2, #0
10017e5c:	f080 82c3 	bcs.w	100183e6 <_vfprintf_r+0x168e>
10017e60:	f8cd 806c 	str.w	r8, [sp, #108]	@ 0x6c
10017e64:	9c06      	ldr	r4, [sp, #24]
10017e66:	f8dd 8030 	ldr.w	r8, [sp, #48]	@ 0x30
10017e6a:	f8cd c04c 	str.w	ip, [sp, #76]	@ 0x4c
10017e6e:	f7ff bbc5 	b.w	100175fc <_vfprintf_r+0x8a4>
10017e72:	e9dd 1007 	ldrd	r1, r0, [sp, #28]
10017e76:	aa32      	add	r2, sp, #200	@ 0xc8
10017e78:	9315      	str	r3, [sp, #84]	@ 0x54
10017e7a:	f000 fe11 	bl	10018aa0 <__sprint_r>
10017e7e:	2800      	cmp	r0, #0
10017e80:	f47f ac6e 	bne.w	10017760 <_vfprintf_r+0xa08>
10017e84:	f89d 209f 	ldrb.w	r2, [sp, #159]	@ 0x9f
10017e88:	9c34      	ldr	r4, [sp, #208]	@ 0xd0
10017e8a:	9b15      	ldr	r3, [sp, #84]	@ 0x54
10017e8c:	f10d 08d4 	add.w	r8, sp, #212	@ 0xd4
10017e90:	f7ff b8fa 	b.w	10017088 <_vfprintf_r+0x330>
10017e94:	46a3      	mov	fp, r4
10017e96:	f7ff b8b7 	b.w	10017008 <_vfprintf_r+0x2b0>
10017e9a:	46d3      	mov	fp, sl
10017e9c:	f7ff b8b4 	b.w	10017008 <_vfprintf_r+0x2b0>
10017ea0:	4658      	mov	r0, fp
10017ea2:	f7fe f813 	bl	10015ecc <__sinit>
10017ea6:	f7fe bf74 	b.w	10016d92 <_vfprintf_r+0x3a>
10017eaa:	2901      	cmp	r1, #1
10017eac:	464c      	mov	r4, r9
10017eae:	f47f ab95 	bne.w	100175dc <_vfprintf_r+0x884>
10017eb2:	e4d3      	b.n	1001785c <_vfprintf_r+0xb04>
10017eb4:	e9dd 1007 	ldrd	r1, r0, [sp, #28]
10017eb8:	aa32      	add	r2, sp, #200	@ 0xc8
10017eba:	f000 fdf1 	bl	10018aa0 <__sprint_r>
10017ebe:	2800      	cmp	r0, #0
10017ec0:	f47f ac4e 	bne.w	10017760 <_vfprintf_r+0xa08>
10017ec4:	9c34      	ldr	r4, [sp, #208]	@ 0xd0
10017ec6:	f10d 08d4 	add.w	r8, sp, #212	@ 0xd4
10017eca:	f7ff bb46 	b.w	1001755a <_vfprintf_r+0x802>
10017ece:	46cb      	mov	fp, r9
10017ed0:	f7ff b89a 	b.w	10017008 <_vfprintf_r+0x2b0>
10017ed4:	af30      	add	r7, sp, #192	@ 0xc0
10017ed6:	2208      	movs	r2, #8
10017ed8:	2100      	movs	r1, #0
10017eda:	4638      	mov	r0, r7
10017edc:	952b      	str	r5, [sp, #172]	@ 0xac
10017ede:	f7fc fd07 	bl	100148f0 <memset>
10017ee2:	9b09      	ldr	r3, [sp, #36]	@ 0x24
10017ee4:	1c58      	adds	r0, r3, #1
10017ee6:	f000 8270 	beq.w	100183ca <_vfprintf_r+0x1672>
10017eea:	2400      	movs	r4, #0
10017eec:	f8cd 9018 	str.w	r9, [sp, #24]
10017ef0:	46a3      	mov	fp, r4
10017ef2:	f8dd 9020 	ldr.w	r9, [sp, #32]
10017ef6:	469a      	mov	sl, r3
10017ef8:	e00c      	b.n	10017f14 <_vfprintf_r+0x11bc>
10017efa:	a945      	add	r1, sp, #276	@ 0x114
10017efc:	4648      	mov	r0, r9
10017efe:	f7fc fd49 	bl	10014994 <_wcrtomb_r>
10017f02:	1c41      	adds	r1, r0, #1
10017f04:	4458      	add	r0, fp
10017f06:	f000 8475 	beq.w	100187f4 <_vfprintf_r+0x1a9c>
10017f0a:	4550      	cmp	r0, sl
10017f0c:	dc08      	bgt.n	10017f20 <_vfprintf_r+0x11c8>
10017f0e:	f000 84c2 	beq.w	10018896 <_vfprintf_r+0x1b3e>
10017f12:	4683      	mov	fp, r0
10017f14:	9a2b      	ldr	r2, [sp, #172]	@ 0xac
10017f16:	5912      	ldr	r2, [r2, r4]
10017f18:	463b      	mov	r3, r7
10017f1a:	3404      	adds	r4, #4
10017f1c:	2a00      	cmp	r2, #0
10017f1e:	d1ec      	bne.n	10017efa <_vfprintf_r+0x11a2>
10017f20:	f8dd 9018 	ldr.w	r9, [sp, #24]
10017f24:	f1bb 0f00 	cmp.w	fp, #0
10017f28:	f000 8342 	beq.w	100185b0 <_vfprintf_r+0x1858>
10017f2c:	f1bb 0f63 	cmp.w	fp, #99	@ 0x63
10017f30:	f340 83f9 	ble.w	10018726 <_vfprintf_r+0x19ce>
10017f34:	9808      	ldr	r0, [sp, #32]
10017f36:	f10b 0101 	add.w	r1, fp, #1
10017f3a:	f7fc f995 	bl	10014268 <_malloc_r>
10017f3e:	4605      	mov	r5, r0
10017f40:	2800      	cmp	r0, #0
10017f42:	f000 8457 	beq.w	100187f4 <_vfprintf_r+0x1a9c>
10017f46:	900c      	str	r0, [sp, #48]	@ 0x30
10017f48:	2208      	movs	r2, #8
10017f4a:	2100      	movs	r1, #0
10017f4c:	4638      	mov	r0, r7
10017f4e:	f7fc fccf 	bl	100148f0 <memset>
10017f52:	9808      	ldr	r0, [sp, #32]
10017f54:	9700      	str	r7, [sp, #0]
10017f56:	465b      	mov	r3, fp
10017f58:	aa2b      	add	r2, sp, #172	@ 0xac
10017f5a:	4629      	mov	r1, r5
10017f5c:	f7fc fe76 	bl	10014c4c <_wcsrtombs_r>
10017f60:	4583      	cmp	fp, r0
10017f62:	f040 8517 	bne.w	10018994 <_vfprintf_r+0x1c3c>
10017f66:	2300      	movs	r3, #0
10017f68:	f805 300b 	strb.w	r3, [r5, fp]
10017f6c:	ea2b 71eb 	bic.w	r1, fp, fp, asr #31
10017f70:	f89d 209f 	ldrb.w	r2, [sp, #159]	@ 0x9f
10017f74:	960d      	str	r6, [sp, #52]	@ 0x34
10017f76:	9309      	str	r3, [sp, #36]	@ 0x24
10017f78:	9106      	str	r1, [sp, #24]
10017f7a:	9314      	str	r3, [sp, #80]	@ 0x50
10017f7c:	9310      	str	r3, [sp, #64]	@ 0x40
10017f7e:	9312      	str	r3, [sp, #72]	@ 0x48
10017f80:	f7ff b925 	b.w	100171ce <_vfprintf_r+0x476>
10017f84:	4a0a      	ldr	r2, [pc, #40]	@ (10017fb0 <_vfprintf_r+0x1258>)
10017f86:	9215      	str	r2, [sp, #84]	@ 0x54
10017f88:	3301      	adds	r3, #1
10017f8a:	9a15      	ldr	r2, [sp, #84]	@ 0x54
10017f8c:	f8c8 2000 	str.w	r2, [r8]
10017f90:	442c      	add	r4, r5
10017f92:	2b07      	cmp	r3, #7
10017f94:	f8c8 5004 	str.w	r5, [r8, #4]
10017f98:	e9cd 3433 	strd	r3, r4, [sp, #204]	@ 0xcc
10017f9c:	f77f a8b1 	ble.w	10017102 <_vfprintf_r+0x3aa>
10017fa0:	f7ff bbfe 	b.w	100177a0 <_vfprintf_r+0xa48>
10017fa4:	1001d940 	.word	0x1001d940
10017fa8:	1001d92c 	.word	0x1001d92c
10017fac:	1001d954 	.word	0x1001d954
10017fb0:	1001db4c 	.word	0x1001db4c
10017fb4:	cccccccd 	.word	0xcccccccd
10017fb8:	9b0d      	ldr	r3, [sp, #52]	@ 0x34
10017fba:	9a0a      	ldr	r2, [sp, #40]	@ 0x28
10017fbc:	681b      	ldr	r3, [r3, #0]
10017fbe:	601a      	str	r2, [r3, #0]
10017fc0:	f7ff baaa 	b.w	10017518 <_vfprintf_r+0x7c0>
10017fc4:	f8dd 9024 	ldr.w	r9, [sp, #36]	@ 0x24
10017fc8:	9b15      	ldr	r3, [sp, #84]	@ 0x54
10017fca:	603b      	str	r3, [r7, #0]
10017fcc:	3601      	adds	r6, #1
10017fce:	4444      	add	r4, r8
10017fd0:	2e07      	cmp	r6, #7
10017fd2:	e9cd 6433 	strd	r6, r4, [sp, #204]	@ 0xcc
10017fd6:	f8c7 8004 	str.w	r8, [r7, #4]
10017fda:	f77f ac2b 	ble.w	10017834 <_vfprintf_r+0xadc>
10017fde:	e527      	b.n	10017a30 <_vfprintf_r+0xcd8>
10017fe0:	2e10      	cmp	r6, #16
10017fe2:	9b33      	ldr	r3, [sp, #204]	@ 0xcc
10017fe4:	f340 84ad 	ble.w	10018942 <_vfprintf_r+0x1bea>
10017fe8:	4898      	ldr	r0, [pc, #608]	@ (1001824c <_vfprintf_r+0x14f4>)
10017fea:	9015      	str	r0, [sp, #84]	@ 0x54
10017fec:	4642      	mov	r2, r8
10017fee:	4621      	mov	r1, r4
10017ff0:	46a8      	mov	r8, r5
10017ff2:	e9dd 4a07 	ldrd	r4, sl, [sp, #28]
10017ff6:	2710      	movs	r7, #16
10017ff8:	4605      	mov	r5, r0
10017ffa:	e004      	b.n	10018006 <_vfprintf_r+0x12ae>
10017ffc:	3208      	adds	r2, #8
10017ffe:	3e10      	subs	r6, #16
10018000:	2e10      	cmp	r6, #16
10018002:	f340 81ca 	ble.w	1001839a <_vfprintf_r+0x1642>
10018006:	3301      	adds	r3, #1
10018008:	3110      	adds	r1, #16
1001800a:	2b07      	cmp	r3, #7
1001800c:	e9c2 5700 	strd	r5, r7, [r2]
10018010:	e9cd 3133 	strd	r3, r1, [sp, #204]	@ 0xcc
10018014:	ddf2      	ble.n	10017ffc <_vfprintf_r+0x12a4>
10018016:	aa32      	add	r2, sp, #200	@ 0xc8
10018018:	4621      	mov	r1, r4
1001801a:	4650      	mov	r0, sl
1001801c:	f000 fd40 	bl	10018aa0 <__sprint_r>
10018020:	2800      	cmp	r0, #0
10018022:	f47f af3a 	bne.w	10017e9a <_vfprintf_r+0x1142>
10018026:	e9dd 3133 	ldrd	r3, r1, [sp, #204]	@ 0xcc
1001802a:	aa35      	add	r2, sp, #212	@ 0xd4
1001802c:	e7e7      	b.n	10017ffe <_vfprintf_r+0x12a6>
1001802e:	f419 7200 	ands.w	r2, r9, #512	@ 0x200
10018032:	bf1c      	itt	ne
10018034:	b2db      	uxtbne	r3, r3
10018036:	4602      	movne	r2, r0
10018038:	e63d      	b.n	10017cb6 <_vfprintf_r+0xf5e>
1001803a:	f419 7200 	ands.w	r2, r9, #512	@ 0x200
1001803e:	bf1c      	itt	ne
10018040:	b2db      	uxtbne	r3, r3
10018042:	4602      	movne	r2, r0
10018044:	f7ff b9fb 	b.w	1001743e <_vfprintf_r+0x6e6>
10018048:	9e09      	ldr	r6, [sp, #36]	@ 0x24
1001804a:	2302      	movs	r3, #2
1001804c:	e9cd 3600 	strd	r3, r6, [sp]
10018050:	ab30      	add	r3, sp, #192	@ 0xc0
10018052:	9304      	str	r3, [sp, #16]
10018054:	ab2b      	add	r3, sp, #172	@ 0xac
10018056:	9303      	str	r3, [sp, #12]
10018058:	ab29      	add	r3, sp, #164	@ 0xa4
1001805a:	9302      	str	r3, [sp, #8]
1001805c:	9808      	ldr	r0, [sp, #32]
1001805e:	e9dd 2324 	ldrd	r2, r3, [sp, #144]	@ 0x90
10018062:	f7fc fe95 	bl	10014d90 <_dtoa_r>
10018066:	9b0e      	ldr	r3, [sp, #56]	@ 0x38
10018068:	2b67      	cmp	r3, #103	@ 0x67
1001806a:	4605      	mov	r5, r0
1001806c:	f000 8177 	beq.w	1001835e <_vfprintf_r+0x1606>
10018070:	9b0e      	ldr	r3, [sp, #56]	@ 0x38
10018072:	2b47      	cmp	r3, #71	@ 0x47
10018074:	f000 8173 	beq.w	1001835e <_vfprintf_r+0x1606>
10018078:	9b0e      	ldr	r3, [sp, #56]	@ 0x38
1001807a:	f023 0720 	bic.w	r7, r3, #32
1001807e:	2f46      	cmp	r7, #70	@ 0x46
10018080:	eb00 0406 	add.w	r4, r0, r6
10018084:	d105      	bne.n	10018092 <_vfprintf_r+0x133a>
10018086:	7803      	ldrb	r3, [r0, #0]
10018088:	2b30      	cmp	r3, #48	@ 0x30
1001808a:	f000 83db 	beq.w	10018844 <_vfprintf_r+0x1aec>
1001808e:	9e29      	ldr	r6, [sp, #164]	@ 0xa4
10018090:	4434      	add	r4, r6
10018092:	e9dd 0124 	ldrd	r0, r1, [sp, #144]	@ 0x90
10018096:	2200      	movs	r2, #0
10018098:	2300      	movs	r3, #0
1001809a:	f003 f851 	bl	1001b140 <__aeabi_dcmpeq>
1001809e:	2800      	cmp	r0, #0
100180a0:	f000 81cc 	beq.w	1001843c <_vfprintf_r+0x16e4>
100180a4:	4623      	mov	r3, r4
100180a6:	1b5b      	subs	r3, r3, r5
100180a8:	9313      	str	r3, [sp, #76]	@ 0x4c
100180aa:	9a29      	ldr	r2, [sp, #164]	@ 0xa4
100180ac:	9212      	str	r2, [sp, #72]	@ 0x48
100180ae:	2f47      	cmp	r7, #71	@ 0x47
100180b0:	f000 815d 	beq.w	1001836e <_vfprintf_r+0x1616>
100180b4:	2f46      	cmp	r7, #70	@ 0x46
100180b6:	f000 82e3 	beq.w	10018680 <_vfprintf_r+0x1928>
100180ba:	990e      	ldr	r1, [sp, #56]	@ 0x38
100180bc:	1e53      	subs	r3, r2, #1
100180be:	2961      	cmp	r1, #97	@ 0x61
100180c0:	9329      	str	r3, [sp, #164]	@ 0xa4
100180c2:	f000 8441 	beq.w	10018948 <_vfprintf_r+0x1bf0>
100180c6:	2941      	cmp	r1, #65	@ 0x41
100180c8:	f040 815c 	bne.w	10018384 <_vfprintf_r+0x162c>
100180cc:	2150      	movs	r1, #80	@ 0x50
100180ce:	2001      	movs	r0, #1
100180d0:	2b00      	cmp	r3, #0
100180d2:	bfb6      	itet	lt
100180d4:	f1c2 0301 	rsblt	r3, r2, #1
100180d8:	222b      	movge	r2, #43	@ 0x2b
100180da:	222d      	movlt	r2, #45	@ 0x2d
100180dc:	2b09      	cmp	r3, #9
100180de:	f88d 10b0 	strb.w	r1, [sp, #176]	@ 0xb0
100180e2:	f88d 20b1 	strb.w	r2, [sp, #177]	@ 0xb1
100180e6:	f340 8377 	ble.w	100187d8 <_vfprintf_r+0x1a80>
100180ea:	f10d 04c7 	add.w	r4, sp, #199	@ 0xc7
100180ee:	4e58      	ldr	r6, [pc, #352]	@ (10018250 <_vfprintf_r+0x14f8>)
100180f0:	4622      	mov	r2, r4
100180f2:	4610      	mov	r0, r2
100180f4:	fba6 1203 	umull	r1, r2, r6, r3
100180f8:	08d2      	lsrs	r2, r2, #3
100180fa:	eb02 0182 	add.w	r1, r2, r2, lsl #2
100180fe:	eba3 0141 	sub.w	r1, r3, r1, lsl #1
10018102:	3130      	adds	r1, #48	@ 0x30
10018104:	f800 1c01 	strb.w	r1, [r0, #-1]
10018108:	4619      	mov	r1, r3
1001810a:	2963      	cmp	r1, #99	@ 0x63
1001810c:	4613      	mov	r3, r2
1001810e:	f100 32ff 	add.w	r2, r0, #4294967295	@ 0xffffffff
10018112:	dcee      	bgt.n	100180f2 <_vfprintf_r+0x139a>
10018114:	3330      	adds	r3, #48	@ 0x30
10018116:	f802 3c01 	strb.w	r3, [r2, #-1]
1001811a:	1e83      	subs	r3, r0, #2
1001811c:	42a3      	cmp	r3, r4
1001811e:	f080 840c 	bcs.w	1001893a <_vfprintf_r+0x1be2>
10018122:	f10d 02b1 	add.w	r2, sp, #177	@ 0xb1
10018126:	f813 1b01 	ldrb.w	r1, [r3], #1
1001812a:	f802 1f01 	strb.w	r1, [r2, #1]!
1001812e:	42a3      	cmp	r3, r4
10018130:	d1f9      	bne.n	10018126 <_vfprintf_r+0x13ce>
10018132:	ab5e      	add	r3, sp, #376	@ 0x178
10018134:	1a18      	subs	r0, r3, r0
10018136:	f1a0 03ad 	sub.w	r3, r0, #173	@ 0xad
1001813a:	931c      	str	r3, [sp, #112]	@ 0x70
1001813c:	9b13      	ldr	r3, [sp, #76]	@ 0x4c
1001813e:	9a1c      	ldr	r2, [sp, #112]	@ 0x70
10018140:	2b01      	cmp	r3, #1
10018142:	eb03 0b02 	add.w	fp, r3, r2
10018146:	f340 8378 	ble.w	1001883a <_vfprintf_r+0x1ae2>
1001814a:	9b18      	ldr	r3, [sp, #96]	@ 0x60
1001814c:	449b      	add	fp, r3
1001814e:	9b06      	ldr	r3, [sp, #24]
10018150:	f423 6380 	bic.w	r3, r3, #1024	@ 0x400
10018154:	f443 7980 	orr.w	r9, r3, #256	@ 0x100
10018158:	ea2b 72eb 	bic.w	r2, fp, fp, asr #31
1001815c:	2300      	movs	r3, #0
1001815e:	9314      	str	r3, [sp, #80]	@ 0x50
10018160:	9206      	str	r2, [sp, #24]
10018162:	9310      	str	r3, [sp, #64]	@ 0x40
10018164:	9312      	str	r3, [sp, #72]	@ 0x48
10018166:	9b1f      	ldr	r3, [sp, #124]	@ 0x7c
10018168:	2b00      	cmp	r3, #0
1001816a:	f040 810f 	bne.w	1001838c <_vfprintf_r+0x1634>
1001816e:	f89d 209f 	ldrb.w	r2, [sp, #159]	@ 0x9f
10018172:	9309      	str	r3, [sp, #36]	@ 0x24
10018174:	f7ff b82b 	b.w	100171ce <_vfprintf_r+0x476>
10018178:	9b13      	ldr	r3, [sp, #76]	@ 0x4c
1001817a:	ebab 060a 	sub.w	r6, fp, sl
1001817e:	1b5d      	subs	r5, r3, r5
10018180:	42ae      	cmp	r6, r5
10018182:	bfa8      	it	ge
10018184:	462e      	movge	r6, r5
10018186:	e41a      	b.n	100179be <_vfprintf_r+0xc66>
10018188:	f343 12c0 	sbfx	r2, r3, #7, #1
1001818c:	4611      	mov	r1, r2
1001818e:	b25b      	sxtb	r3, r3
10018190:	f7ff b8d3 	b.w	1001733a <_vfprintf_r+0x5e2>
10018194:	9b0d      	ldr	r3, [sp, #52]	@ 0x34
10018196:	9a0a      	ldr	r2, [sp, #40]	@ 0x28
10018198:	681b      	ldr	r3, [r3, #0]
1001819a:	801a      	strh	r2, [r3, #0]
1001819c:	f7ff b9bc 	b.w	10017518 <_vfprintf_r+0x7c0>
100181a0:	9907      	ldr	r1, [sp, #28]
100181a2:	aa32      	add	r2, sp, #200	@ 0xc8
100181a4:	4658      	mov	r0, fp
100181a6:	f000 fc7b 	bl	10018aa0 <__sprint_r>
100181aa:	2800      	cmp	r0, #0
100181ac:	f43e af1c 	beq.w	10016fe8 <_vfprintf_r+0x290>
100181b0:	f7fe bf30 	b.w	10017014 <_vfprintf_r+0x2bc>
100181b4:	4628      	mov	r0, r5
100181b6:	960d      	str	r6, [sp, #52]	@ 0x34
100181b8:	f7fd ffa2 	bl	10016100 <strlen>
100181bc:	4683      	mov	fp, r0
100181be:	f7ff b89f 	b.w	10017300 <_vfprintf_r+0x5a8>
100181c2:	2358      	movs	r3, #88	@ 0x58
100181c4:	f88d 30a1 	strb.w	r3, [sp, #161]	@ 0xa1
100181c8:	2330      	movs	r3, #48	@ 0x30
100181ca:	f88d 30a0 	strb.w	r3, [sp, #160]	@ 0xa0
100181ce:	f049 0302 	orr.w	r3, r9, #2
100181d2:	9306      	str	r3, [sp, #24]
100181d4:	9b09      	ldr	r3, [sp, #36]	@ 0x24
100181d6:	2b63      	cmp	r3, #99	@ 0x63
100181d8:	f300 82f6 	bgt.w	100187c8 <_vfprintf_r+0x1a70>
100181dc:	2300      	movs	r3, #0
100181de:	930c      	str	r3, [sp, #48]	@ 0x30
100181e0:	ad45      	add	r5, sp, #276	@ 0x114
100181e2:	f449 7381 	orr.w	r3, r9, #258	@ 0x102
100181e6:	9315      	str	r3, [sp, #84]	@ 0x54
100181e8:	9b17      	ldr	r3, [sp, #92]	@ 0x5c
100181ea:	2b00      	cmp	r3, #0
100181ec:	f2c0 8200 	blt.w	100185f0 <_vfprintf_r+0x1898>
100181f0:	ed9d 7b16 	vldr	d7, [sp, #88]	@ 0x58
100181f4:	ed8d 7b24 	vstr	d7, [sp, #144]	@ 0x90
100181f8:	2300      	movs	r3, #0
100181fa:	931f      	str	r3, [sp, #124]	@ 0x7c
100181fc:	9b0e      	ldr	r3, [sp, #56]	@ 0x38
100181fe:	2b61      	cmp	r3, #97	@ 0x61
10018200:	f47f ad1c 	bne.w	10017c3c <_vfprintf_r+0xee4>
10018204:	aa29      	add	r2, sp, #164	@ 0xa4
10018206:	e9dd 0124 	ldrd	r0, r1, [sp, #144]	@ 0x90
1001820a:	f7fd ffe5 	bl	100161d8 <frexp>
1001820e:	2200      	movs	r2, #0
10018210:	f04f 537f 	mov.w	r3, #1069547520	@ 0x3fc00000
10018214:	f002 fd2c 	bl	1001ac70 <__aeabi_dmul>
10018218:	4602      	mov	r2, r0
1001821a:	460b      	mov	r3, r1
1001821c:	e9cd 2310 	strd	r2, r3, [sp, #64]	@ 0x40
10018220:	2200      	movs	r2, #0
10018222:	2300      	movs	r3, #0
10018224:	f002 ff8c 	bl	1001b140 <__aeabi_dcmpeq>
10018228:	2800      	cmp	r0, #0
1001822a:	f040 82f8 	bne.w	1001881e <_vfprintf_r+0x1ac6>
1001822e:	4b09      	ldr	r3, [pc, #36]	@ (10018254 <_vfprintf_r+0x14fc>)
10018230:	9312      	str	r3, [sp, #72]	@ 0x48
10018232:	9b09      	ldr	r3, [sp, #36]	@ 0x24
10018234:	f8cd 804c 	str.w	r8, [sp, #76]	@ 0x4c
10018238:	f103 39ff 	add.w	r9, r3, #4294967295	@ 0xffffffff
1001823c:	462e      	mov	r6, r5
1001823e:	9514      	str	r5, [sp, #80]	@ 0x50
10018240:	f8dd b048 	ldr.w	fp, [sp, #72]	@ 0x48
10018244:	464d      	mov	r5, r9
10018246:	e9dd 8910 	ldrd	r8, r9, [sp, #64]	@ 0x40
1001824a:	e00b      	b.n	10018264 <_vfprintf_r+0x150c>
1001824c:	1001db4c 	.word	0x1001db4c
10018250:	cccccccd 	.word	0xcccccccd
10018254:	1001d92c 	.word	0x1001d92c
10018258:	2200      	movs	r2, #0
1001825a:	2300      	movs	r3, #0
1001825c:	f002 ff70 	bl	1001b140 <__aeabi_dcmpeq>
10018260:	b9f0      	cbnz	r0, 100182a0 <_vfprintf_r+0x1548>
10018262:	463d      	mov	r5, r7
10018264:	4ba9      	ldr	r3, [pc, #676]	@ (1001850c <_vfprintf_r+0x17b4>)
10018266:	2200      	movs	r2, #0
10018268:	4640      	mov	r0, r8
1001826a:	4649      	mov	r1, r9
1001826c:	f002 fd00 	bl	1001ac70 <__aeabi_dmul>
10018270:	4689      	mov	r9, r1
10018272:	4680      	mov	r8, r0
10018274:	f002 ffac 	bl	1001b1d0 <__aeabi_d2iz>
10018278:	4604      	mov	r4, r0
1001827a:	f002 fc8f 	bl	1001ab9c <__aeabi_i2d>
1001827e:	460b      	mov	r3, r1
10018280:	4602      	mov	r2, r0
10018282:	4649      	mov	r1, r9
10018284:	4640      	mov	r0, r8
10018286:	f002 fb3b 	bl	1001a900 <__aeabi_dsub>
1001828a:	f81b 3004 	ldrb.w	r3, [fp, r4]
1001828e:	46b2      	mov	sl, r6
10018290:	f806 3b01 	strb.w	r3, [r6], #1
10018294:	1c6b      	adds	r3, r5, #1
10018296:	f105 37ff 	add.w	r7, r5, #4294967295	@ 0xffffffff
1001829a:	4680      	mov	r8, r0
1001829c:	4689      	mov	r9, r1
1001829e:	d1db      	bne.n	10018258 <_vfprintf_r+0x1500>
100182a0:	46cb      	mov	fp, r9
100182a2:	4657      	mov	r7, sl
100182a4:	46c2      	mov	sl, r8
100182a6:	4b9a      	ldr	r3, [pc, #616]	@ (10018510 <_vfprintf_r+0x17b8>)
100182a8:	f8dd 804c 	ldr.w	r8, [sp, #76]	@ 0x4c
100182ac:	2200      	movs	r2, #0
100182ae:	4650      	mov	r0, sl
100182b0:	4659      	mov	r1, fp
100182b2:	46a9      	mov	r9, r5
100182b4:	9d14      	ldr	r5, [sp, #80]	@ 0x50
100182b6:	f002 ff6b 	bl	1001b190 <__aeabi_dcmpgt>
100182ba:	2800      	cmp	r0, #0
100182bc:	f040 8264 	bne.w	10018788 <_vfprintf_r+0x1a30>
100182c0:	4b93      	ldr	r3, [pc, #588]	@ (10018510 <_vfprintf_r+0x17b8>)
100182c2:	4650      	mov	r0, sl
100182c4:	4659      	mov	r1, fp
100182c6:	2200      	movs	r2, #0
100182c8:	f002 ff3a 	bl	1001b140 <__aeabi_dcmpeq>
100182cc:	b110      	cbz	r0, 100182d4 <_vfprintf_r+0x157c>
100182ce:	07e2      	lsls	r2, r4, #31
100182d0:	f100 825a 	bmi.w	10018788 <_vfprintf_r+0x1a30>
100182d4:	f1b9 0f00 	cmp.w	r9, #0
100182d8:	f2c0 8270 	blt.w	100187bc <_vfprintf_r+0x1a64>
100182dc:	f109 0301 	add.w	r3, r9, #1
100182e0:	4433      	add	r3, r6
100182e2:	2230      	movs	r2, #48	@ 0x30
100182e4:	f806 2b01 	strb.w	r2, [r6], #1
100182e8:	42b3      	cmp	r3, r6
100182ea:	d1fb      	bne.n	100182e4 <_vfprintf_r+0x158c>
100182ec:	1b5b      	subs	r3, r3, r5
100182ee:	9313      	str	r3, [sp, #76]	@ 0x4c
100182f0:	9b0e      	ldr	r3, [sp, #56]	@ 0x38
100182f2:	f023 0720 	bic.w	r7, r3, #32
100182f6:	e6d8      	b.n	100180aa <_vfprintf_r+0x1352>
100182f8:	e9dd 1007 	ldrd	r1, r0, [sp, #28]
100182fc:	aa32      	add	r2, sp, #200	@ 0xc8
100182fe:	f000 fbcf 	bl	10018aa0 <__sprint_r>
10018302:	2800      	cmp	r0, #0
10018304:	f47f aa2c 	bne.w	10017760 <_vfprintf_r+0xa08>
10018308:	e9dd 3433 	ldrd	r3, r4, [sp, #204]	@ 0xcc
1001830c:	9a29      	ldr	r2, [sp, #164]	@ 0xa4
1001830e:	f10d 08d4 	add.w	r8, sp, #212	@ 0xd4
10018312:	f7ff ba36 	b.w	10017782 <_vfprintf_r+0xa2a>
10018316:	6d88      	ldr	r0, [r1, #88]	@ 0x58
10018318:	f7fc fba4 	bl	10014a64 <__retarget_lock_release_recursive>
1001831c:	f7fe be36 	b.w	10016f8c <_vfprintf_r+0x234>
10018320:	9b09      	ldr	r3, [sp, #36]	@ 0x24
10018322:	1c5e      	adds	r6, r3, #1
10018324:	2302      	movs	r3, #2
10018326:	e691      	b.n	1001804c <_vfprintf_r+0x12f4>
10018328:	9e09      	ldr	r6, [sp, #36]	@ 0x24
1001832a:	2303      	movs	r3, #3
1001832c:	e68e      	b.n	1001804c <_vfprintf_r+0x12f4>
1001832e:	aa29      	add	r2, sp, #164	@ 0xa4
10018330:	e9dd 0124 	ldrd	r0, r1, [sp, #144]	@ 0x90
10018334:	f7fd ff50 	bl	100161d8 <frexp>
10018338:	2200      	movs	r2, #0
1001833a:	f04f 537f 	mov.w	r3, #1069547520	@ 0x3fc00000
1001833e:	f002 fc97 	bl	1001ac70 <__aeabi_dmul>
10018342:	4602      	mov	r2, r0
10018344:	460b      	mov	r3, r1
10018346:	e9cd 2310 	strd	r2, r3, [sp, #64]	@ 0x40
1001834a:	2200      	movs	r2, #0
1001834c:	2300      	movs	r3, #0
1001834e:	f002 fef7 	bl	1001b140 <__aeabi_dcmpeq>
10018352:	2800      	cmp	r0, #0
10018354:	f040 8263 	bne.w	1001881e <_vfprintf_r+0x1ac6>
10018358:	4b6e      	ldr	r3, [pc, #440]	@ (10018514 <_vfprintf_r+0x17bc>)
1001835a:	9312      	str	r3, [sp, #72]	@ 0x48
1001835c:	e769      	b.n	10018232 <_vfprintf_r+0x14da>
1001835e:	9b06      	ldr	r3, [sp, #24]
10018360:	07db      	lsls	r3, r3, #31
10018362:	f100 81e4 	bmi.w	1001872e <_vfprintf_r+0x19d6>
10018366:	9b30      	ldr	r3, [sp, #192]	@ 0xc0
10018368:	9a29      	ldr	r2, [sp, #164]	@ 0xa4
1001836a:	1b5b      	subs	r3, r3, r5
1001836c:	9313      	str	r3, [sp, #76]	@ 0x4c
1001836e:	1cd3      	adds	r3, r2, #3
10018370:	9212      	str	r2, [sp, #72]	@ 0x48
10018372:	db02      	blt.n	1001837a <_vfprintf_r+0x1622>
10018374:	9b09      	ldr	r3, [sp, #36]	@ 0x24
10018376:	4293      	cmp	r3, r2
10018378:	da44      	bge.n	10018404 <_vfprintf_r+0x16ac>
1001837a:	9b0e      	ldr	r3, [sp, #56]	@ 0x38
1001837c:	3b02      	subs	r3, #2
1001837e:	930e      	str	r3, [sp, #56]	@ 0x38
10018380:	1e53      	subs	r3, r2, #1
10018382:	9329      	str	r3, [sp, #164]	@ 0xa4
10018384:	f89d 1038 	ldrb.w	r1, [sp, #56]	@ 0x38
10018388:	2000      	movs	r0, #0
1001838a:	e6a1      	b.n	100180d0 <_vfprintf_r+0x1378>
1001838c:	222d      	movs	r2, #45	@ 0x2d
1001838e:	2300      	movs	r3, #0
10018390:	f88d 209f 	strb.w	r2, [sp, #159]	@ 0x9f
10018394:	9309      	str	r3, [sp, #36]	@ 0x24
10018396:	f7fe bf1d 	b.w	100171d4 <_vfprintf_r+0x47c>
1001839a:	4645      	mov	r5, r8
1001839c:	460c      	mov	r4, r1
1001839e:	4690      	mov	r8, r2
100183a0:	3301      	adds	r3, #1
100183a2:	9a15      	ldr	r2, [sp, #84]	@ 0x54
100183a4:	f8c8 2000 	str.w	r2, [r8]
100183a8:	4434      	add	r4, r6
100183aa:	2b07      	cmp	r3, #7
100183ac:	e9cd 3433 	strd	r3, r4, [sp, #204]	@ 0xcc
100183b0:	f8c8 6004 	str.w	r6, [r8, #4]
100183b4:	f300 8226 	bgt.w	10018804 <_vfprintf_r+0x1aac>
100183b8:	f108 0808 	add.w	r8, r8, #8
100183bc:	f7ff bacb 	b.w	10017956 <_vfprintf_r+0xbfe>
100183c0:	222d      	movs	r2, #45	@ 0x2d
100183c2:	f88d 209f 	strb.w	r2, [sp, #159]	@ 0x9f
100183c6:	f7fe bef1 	b.w	100171ac <_vfprintf_r+0x454>
100183ca:	2300      	movs	r3, #0
100183cc:	9808      	ldr	r0, [sp, #32]
100183ce:	9700      	str	r7, [sp, #0]
100183d0:	aa2b      	add	r2, sp, #172	@ 0xac
100183d2:	4619      	mov	r1, r3
100183d4:	f7fc fc3a 	bl	10014c4c <_wcsrtombs_r>
100183d8:	f1b0 3fff 	cmp.w	r0, #4294967295	@ 0xffffffff
100183dc:	4683      	mov	fp, r0
100183de:	f000 8209 	beq.w	100187f4 <_vfprintf_r+0x1a9c>
100183e2:	952b      	str	r5, [sp, #172]	@ 0xac
100183e4:	e59e      	b.n	10017f24 <_vfprintf_r+0x11cc>
100183e6:	9b1e      	ldr	r3, [sp, #120]	@ 0x78
100183e8:	991d      	ldr	r1, [sp, #116]	@ 0x74
100183ea:	1aed      	subs	r5, r5, r3
100183ec:	461a      	mov	r2, r3
100183ee:	4628      	mov	r0, r5
100183f0:	f7fa f8b2 	bl	10012558 <strncpy>
100183f4:	f898 3001 	ldrb.w	r3, [r8, #1]
100183f8:	b10b      	cbz	r3, 100183fe <_vfprintf_r+0x16a6>
100183fa:	f108 0801 	add.w	r8, r8, #1
100183fe:	f04f 0c00 	mov.w	ip, #0
10018402:	e4f9      	b.n	10017df8 <_vfprintf_r+0x10a0>
10018404:	9b13      	ldr	r3, [sp, #76]	@ 0x4c
10018406:	4293      	cmp	r3, r2
10018408:	f300 8194 	bgt.w	10018734 <_vfprintf_r+0x19dc>
1001840c:	9b06      	ldr	r3, [sp, #24]
1001840e:	07de      	lsls	r6, r3, #31
10018410:	f140 824a 	bpl.w	100188a8 <_vfprintf_r+0x1b50>
10018414:	9b18      	ldr	r3, [sp, #96]	@ 0x60
10018416:	eb02 0b03 	add.w	fp, r2, r3
1001841a:	9b06      	ldr	r3, [sp, #24]
1001841c:	055c      	lsls	r4, r3, #21
1001841e:	d502      	bpl.n	10018426 <_vfprintf_r+0x16ce>
10018420:	2a00      	cmp	r2, #0
10018422:	f300 824a 	bgt.w	100188ba <_vfprintf_r+0x1b62>
10018426:	ea2b 73eb 	bic.w	r3, fp, fp, asr #31
1001842a:	9306      	str	r3, [sp, #24]
1001842c:	f8dd 9054 	ldr.w	r9, [sp, #84]	@ 0x54
10018430:	2367      	movs	r3, #103	@ 0x67
10018432:	930e      	str	r3, [sp, #56]	@ 0x38
10018434:	2300      	movs	r3, #0
10018436:	9314      	str	r3, [sp, #80]	@ 0x50
10018438:	9310      	str	r3, [sp, #64]	@ 0x40
1001843a:	e694      	b.n	10018166 <_vfprintf_r+0x140e>
1001843c:	9b30      	ldr	r3, [sp, #192]	@ 0xc0
1001843e:	42a3      	cmp	r3, r4
10018440:	f4bf ae31 	bcs.w	100180a6 <_vfprintf_r+0x134e>
10018444:	2130      	movs	r1, #48	@ 0x30
10018446:	1c5a      	adds	r2, r3, #1
10018448:	9230      	str	r2, [sp, #192]	@ 0xc0
1001844a:	7019      	strb	r1, [r3, #0]
1001844c:	9b30      	ldr	r3, [sp, #192]	@ 0xc0
1001844e:	429c      	cmp	r4, r3
10018450:	d8f9      	bhi.n	10018446 <_vfprintf_r+0x16ee>
10018452:	e628      	b.n	100180a6 <_vfprintf_r+0x134e>
10018454:	4621      	mov	r1, r4
10018456:	461c      	mov	r4, r3
10018458:	9b10      	ldr	r3, [sp, #64]	@ 0x40
1001845a:	f8cd b024 	str.w	fp, [sp, #36]	@ 0x24
1001845e:	f8cd 9038 	str.w	r9, [sp, #56]	@ 0x38
10018462:	4642      	mov	r2, r8
10018464:	4f2c      	ldr	r7, [pc, #176]	@ (10018518 <_vfprintf_r+0x17c0>)
10018466:	f8dd 9050 	ldr.w	r9, [sp, #80]	@ 0x50
1001846a:	f8dd 8078 	ldr.w	r8, [sp, #120]	@ 0x78
1001846e:	f8dd a06c 	ldr.w	sl, [sp, #108]	@ 0x6c
10018472:	f8dd b020 	ldr.w	fp, [sp, #32]
10018476:	b37b      	cbz	r3, 100184d8 <_vfprintf_r+0x1780>
10018478:	f1b9 0f00 	cmp.w	r9, #0
1001847c:	f000 8085 	beq.w	1001858a <_vfprintf_r+0x1832>
10018480:	f109 39ff 	add.w	r9, r9, #4294967295	@ 0xffffffff
10018484:	9833      	ldr	r0, [sp, #204]	@ 0xcc
10018486:	9b1d      	ldr	r3, [sp, #116]	@ 0x74
10018488:	3001      	adds	r0, #1
1001848a:	4441      	add	r1, r8
1001848c:	2807      	cmp	r0, #7
1001848e:	e9c2 3800 	strd	r3, r8, [r2]
10018492:	9134      	str	r1, [sp, #208]	@ 0xd0
10018494:	9033      	str	r0, [sp, #204]	@ 0xcc
10018496:	dc6d      	bgt.n	10018574 <_vfprintf_r+0x181c>
10018498:	3208      	adds	r2, #8
1001849a:	9b09      	ldr	r3, [sp, #36]	@ 0x24
1001849c:	f89a 0000 	ldrb.w	r0, [sl]
100184a0:	1b1e      	subs	r6, r3, r4
100184a2:	4286      	cmp	r6, r0
100184a4:	bfa8      	it	ge
100184a6:	4606      	movge	r6, r0
100184a8:	2e00      	cmp	r6, #0
100184aa:	dd0b      	ble.n	100184c4 <_vfprintf_r+0x176c>
100184ac:	9833      	ldr	r0, [sp, #204]	@ 0xcc
100184ae:	3001      	adds	r0, #1
100184b0:	4431      	add	r1, r6
100184b2:	2807      	cmp	r0, #7
100184b4:	e9c2 4600 	strd	r4, r6, [r2]
100184b8:	9134      	str	r1, [sp, #208]	@ 0xd0
100184ba:	9033      	str	r0, [sp, #204]	@ 0xcc
100184bc:	dc6b      	bgt.n	10018596 <_vfprintf_r+0x183e>
100184be:	f89a 0000 	ldrb.w	r0, [sl]
100184c2:	3208      	adds	r2, #8
100184c4:	2e00      	cmp	r6, #0
100184c6:	bfac      	ite	ge
100184c8:	1b85      	subge	r5, r0, r6
100184ca:	4605      	movlt	r5, r0
100184cc:	2d00      	cmp	r5, #0
100184ce:	dc14      	bgt.n	100184fa <_vfprintf_r+0x17a2>
100184d0:	4404      	add	r4, r0
100184d2:	9b10      	ldr	r3, [sp, #64]	@ 0x40
100184d4:	2b00      	cmp	r3, #0
100184d6:	d1cf      	bne.n	10018478 <_vfprintf_r+0x1720>
100184d8:	f1b9 0f00 	cmp.w	r9, #0
100184dc:	d1d0      	bne.n	10018480 <_vfprintf_r+0x1728>
100184de:	f8dd b024 	ldr.w	fp, [sp, #36]	@ 0x24
100184e2:	f8cd a06c 	str.w	sl, [sp, #108]	@ 0x6c
100184e6:	46a2      	mov	sl, r4
100184e8:	45da      	cmp	sl, fp
100184ea:	f8dd 9038 	ldr.w	r9, [sp, #56]	@ 0x38
100184ee:	4690      	mov	r8, r2
100184f0:	460c      	mov	r4, r1
100184f2:	bf28      	it	cs
100184f4:	46da      	movcs	sl, fp
100184f6:	f7ff ba35 	b.w	10017964 <_vfprintf_r+0xc0c>
100184fa:	2d10      	cmp	r5, #16
100184fc:	9833      	ldr	r0, [sp, #204]	@ 0xcc
100184fe:	f340 821a 	ble.w	10018936 <_vfprintf_r+0x1bde>
10018502:	4623      	mov	r3, r4
10018504:	463e      	mov	r6, r7
10018506:	462c      	mov	r4, r5
10018508:	461d      	mov	r5, r3
1001850a:	e00c      	b.n	10018526 <_vfprintf_r+0x17ce>
1001850c:	40300000 	.word	0x40300000
10018510:	3fe00000 	.word	0x3fe00000
10018514:	1001d940 	.word	0x1001d940
10018518:	1001db4c 	.word	0x1001db4c
1001851c:	3c10      	subs	r4, #16
1001851e:	2c10      	cmp	r4, #16
10018520:	f102 0208 	add.w	r2, r2, #8
10018524:	dd16      	ble.n	10018554 <_vfprintf_r+0x17fc>
10018526:	3001      	adds	r0, #1
10018528:	3110      	adds	r1, #16
1001852a:	2310      	movs	r3, #16
1001852c:	2807      	cmp	r0, #7
1001852e:	e9cd 0133 	strd	r0, r1, [sp, #204]	@ 0xcc
10018532:	6017      	str	r7, [r2, #0]
10018534:	6053      	str	r3, [r2, #4]
10018536:	ddf1      	ble.n	1001851c <_vfprintf_r+0x17c4>
10018538:	9907      	ldr	r1, [sp, #28]
1001853a:	aa32      	add	r2, sp, #200	@ 0xc8
1001853c:	4658      	mov	r0, fp
1001853e:	f000 faaf 	bl	10018aa0 <__sprint_r>
10018542:	2800      	cmp	r0, #0
10018544:	f47e ad60 	bne.w	10017008 <_vfprintf_r+0x2b0>
10018548:	3c10      	subs	r4, #16
1001854a:	2c10      	cmp	r4, #16
1001854c:	e9dd 0133 	ldrd	r0, r1, [sp, #204]	@ 0xcc
10018550:	aa35      	add	r2, sp, #212	@ 0xd4
10018552:	dce8      	bgt.n	10018526 <_vfprintf_r+0x17ce>
10018554:	462b      	mov	r3, r5
10018556:	4625      	mov	r5, r4
10018558:	461c      	mov	r4, r3
1001855a:	3001      	adds	r0, #1
1001855c:	4429      	add	r1, r5
1001855e:	2807      	cmp	r0, #7
10018560:	e9cd 0133 	strd	r0, r1, [sp, #204]	@ 0xcc
10018564:	6016      	str	r6, [r2, #0]
10018566:	6055      	str	r5, [r2, #4]
10018568:	dc4b      	bgt.n	10018602 <_vfprintf_r+0x18aa>
1001856a:	f89a 0000 	ldrb.w	r0, [sl]
1001856e:	3208      	adds	r2, #8
10018570:	4404      	add	r4, r0
10018572:	e7ae      	b.n	100184d2 <_vfprintf_r+0x177a>
10018574:	9907      	ldr	r1, [sp, #28]
10018576:	aa32      	add	r2, sp, #200	@ 0xc8
10018578:	4658      	mov	r0, fp
1001857a:	f000 fa91 	bl	10018aa0 <__sprint_r>
1001857e:	2800      	cmp	r0, #0
10018580:	f47e ad42 	bne.w	10017008 <_vfprintf_r+0x2b0>
10018584:	9934      	ldr	r1, [sp, #208]	@ 0xd0
10018586:	aa35      	add	r2, sp, #212	@ 0xd4
10018588:	e787      	b.n	1001849a <_vfprintf_r+0x1742>
1001858a:	9b10      	ldr	r3, [sp, #64]	@ 0x40
1001858c:	3b01      	subs	r3, #1
1001858e:	f10a 3aff 	add.w	sl, sl, #4294967295	@ 0xffffffff
10018592:	9310      	str	r3, [sp, #64]	@ 0x40
10018594:	e776      	b.n	10018484 <_vfprintf_r+0x172c>
10018596:	9907      	ldr	r1, [sp, #28]
10018598:	aa32      	add	r2, sp, #200	@ 0xc8
1001859a:	4658      	mov	r0, fp
1001859c:	f000 fa80 	bl	10018aa0 <__sprint_r>
100185a0:	2800      	cmp	r0, #0
100185a2:	f47e ad31 	bne.w	10017008 <_vfprintf_r+0x2b0>
100185a6:	f89a 0000 	ldrb.w	r0, [sl]
100185aa:	9934      	ldr	r1, [sp, #208]	@ 0xd0
100185ac:	aa35      	add	r2, sp, #212	@ 0xd4
100185ae:	e789      	b.n	100184c4 <_vfprintf_r+0x176c>
100185b0:	f89d 209f 	ldrb.w	r2, [sp, #159]	@ 0x9f
100185b4:	960d      	str	r6, [sp, #52]	@ 0x34
100185b6:	f8cd b018 	str.w	fp, [sp, #24]
100185ba:	f8cd b024 	str.w	fp, [sp, #36]	@ 0x24
100185be:	f8cd b050 	str.w	fp, [sp, #80]	@ 0x50
100185c2:	f8cd b040 	str.w	fp, [sp, #64]	@ 0x40
100185c6:	f8cd b048 	str.w	fp, [sp, #72]	@ 0x48
100185ca:	f8cd b030 	str.w	fp, [sp, #48]	@ 0x30
100185ce:	f7fe bdfe 	b.w	100171ce <_vfprintf_r+0x476>
100185d2:	e9dd 1007 	ldrd	r1, r0, [sp, #28]
100185d6:	aa32      	add	r2, sp, #200	@ 0xc8
100185d8:	f000 fa62 	bl	10018aa0 <__sprint_r>
100185dc:	2800      	cmp	r0, #0
100185de:	f47f a8bf 	bne.w	10017760 <_vfprintf_r+0xa08>
100185e2:	9a29      	ldr	r2, [sp, #164]	@ 0xa4
100185e4:	9c34      	ldr	r4, [sp, #208]	@ 0xd0
100185e6:	f10d 08d4 	add.w	r8, sp, #212	@ 0xd4
100185ea:	f7ff baa5 	b.w	10017b38 <_vfprintf_r+0xde0>
100185ee:	930c      	str	r3, [sp, #48]	@ 0x30
100185f0:	e9dd 1216 	ldrd	r1, r2, [sp, #88]	@ 0x58
100185f4:	f102 4300 	add.w	r3, r2, #2147483648	@ 0x80000000
100185f8:	9325      	str	r3, [sp, #148]	@ 0x94
100185fa:	232d      	movs	r3, #45	@ 0x2d
100185fc:	9124      	str	r1, [sp, #144]	@ 0x90
100185fe:	931f      	str	r3, [sp, #124]	@ 0x7c
10018600:	e5fc      	b.n	100181fc <_vfprintf_r+0x14a4>
10018602:	9907      	ldr	r1, [sp, #28]
10018604:	aa32      	add	r2, sp, #200	@ 0xc8
10018606:	4658      	mov	r0, fp
10018608:	f000 fa4a 	bl	10018aa0 <__sprint_r>
1001860c:	2800      	cmp	r0, #0
1001860e:	f47e acfb 	bne.w	10017008 <_vfprintf_r+0x2b0>
10018612:	f89a 0000 	ldrb.w	r0, [sl]
10018616:	9934      	ldr	r1, [sp, #208]	@ 0xd0
10018618:	aa35      	add	r2, sp, #212	@ 0xd4
1001861a:	4404      	add	r4, r0
1001861c:	e759      	b.n	100184d2 <_vfprintf_r+0x177a>
1001861e:	e9dd 1007 	ldrd	r1, r0, [sp, #28]
10018622:	aa32      	add	r2, sp, #200	@ 0xc8
10018624:	f000 fa3c 	bl	10018aa0 <__sprint_r>
10018628:	2800      	cmp	r0, #0
1001862a:	f47f a899 	bne.w	10017760 <_vfprintf_r+0xa08>
1001862e:	9c34      	ldr	r4, [sp, #208]	@ 0xd0
10018630:	f10d 08d4 	add.w	r8, sp, #212	@ 0xd4
10018634:	f7ff b988 	b.w	10017948 <_vfprintf_r+0xbf0>
10018638:	2378      	movs	r3, #120	@ 0x78
1001863a:	e5c3      	b.n	100181c4 <_vfprintf_r+0x146c>
1001863c:	e9dd 1007 	ldrd	r1, r0, [sp, #28]
10018640:	aa32      	add	r2, sp, #200	@ 0xc8
10018642:	f000 fa2d 	bl	10018aa0 <__sprint_r>
10018646:	2800      	cmp	r0, #0
10018648:	f47f a88a 	bne.w	10017760 <_vfprintf_r+0xa08>
1001864c:	9d29      	ldr	r5, [sp, #164]	@ 0xa4
1001864e:	9c34      	ldr	r4, [sp, #208]	@ 0xd0
10018650:	f10d 08d4 	add.w	r8, sp, #212	@ 0xd4
10018654:	f7ff b99c 	b.w	10017990 <_vfprintf_r+0xc38>
10018658:	49ab      	ldr	r1, [pc, #684]	@ (10018908 <_vfprintf_r+0x1bb0>)
1001865a:	9115      	str	r1, [sp, #84]	@ 0x54
1001865c:	f7fe bdee 	b.w	1001723c <_vfprintf_r+0x4e4>
10018660:	e9dd 1007 	ldrd	r1, r0, [sp, #28]
10018664:	aa32      	add	r2, sp, #200	@ 0xc8
10018666:	f000 fa1b 	bl	10018aa0 <__sprint_r>
1001866a:	2800      	cmp	r0, #0
1001866c:	f47f a878 	bne.w	10017760 <_vfprintf_r+0xa08>
10018670:	9d29      	ldr	r5, [sp, #164]	@ 0xa4
10018672:	9b13      	ldr	r3, [sp, #76]	@ 0x4c
10018674:	9c34      	ldr	r4, [sp, #208]	@ 0xd0
10018676:	1b5d      	subs	r5, r3, r5
10018678:	f10d 08d4 	add.w	r8, sp, #212	@ 0xd4
1001867c:	f7ff b99f 	b.w	100179be <_vfprintf_r+0xc66>
10018680:	9b06      	ldr	r3, [sp, #24]
10018682:	9912      	ldr	r1, [sp, #72]	@ 0x48
10018684:	9a09      	ldr	r2, [sp, #36]	@ 0x24
10018686:	f003 0301 	and.w	r3, r3, #1
1001868a:	2900      	cmp	r1, #0
1001868c:	ea43 0302 	orr.w	r3, r3, r2
10018690:	f340 815d 	ble.w	1001894e <_vfprintf_r+0x1bf6>
10018694:	2b00      	cmp	r3, #0
10018696:	f040 8109 	bne.w	100188ac <_vfprintf_r+0x1b54>
1001869a:	2366      	movs	r3, #102	@ 0x66
1001869c:	f8dd b048 	ldr.w	fp, [sp, #72]	@ 0x48
100186a0:	930e      	str	r3, [sp, #56]	@ 0x38
100186a2:	9b06      	ldr	r3, [sp, #24]
100186a4:	055a      	lsls	r2, r3, #21
100186a6:	f100 810a 	bmi.w	100188be <_vfprintf_r+0x1b66>
100186aa:	ea2b 73eb 	bic.w	r3, fp, fp, asr #31
100186ae:	f8dd 9054 	ldr.w	r9, [sp, #84]	@ 0x54
100186b2:	9306      	str	r3, [sp, #24]
100186b4:	e6be      	b.n	10018434 <_vfprintf_r+0x16dc>
100186b6:	2200      	movs	r2, #0
100186b8:	9209      	str	r2, [sp, #36]	@ 0x24
100186ba:	f7fe bbc6 	b.w	10016e4a <_vfprintf_r+0xf2>
100186be:	9b07      	ldr	r3, [sp, #28]
100186c0:	6e5b      	ldr	r3, [r3, #100]	@ 0x64
100186c2:	07dd      	lsls	r5, r3, #31
100186c4:	d407      	bmi.n	100186d6 <_vfprintf_r+0x197e>
100186c6:	9b07      	ldr	r3, [sp, #28]
100186c8:	899b      	ldrh	r3, [r3, #12]
100186ca:	059c      	lsls	r4, r3, #22
100186cc:	d403      	bmi.n	100186d6 <_vfprintf_r+0x197e>
100186ce:	9b07      	ldr	r3, [sp, #28]
100186d0:	6d98      	ldr	r0, [r3, #88]	@ 0x58
100186d2:	f7fc f9c7 	bl	10014a64 <__retarget_lock_release_recursive>
100186d6:	f04f 33ff 	mov.w	r3, #4294967295	@ 0xffffffff
100186da:	930a      	str	r3, [sp, #40]	@ 0x28
100186dc:	f7fe bca5 	b.w	1001702a <_vfprintf_r+0x2d2>
100186e0:	4256      	negs	r6, r2
100186e2:	3210      	adds	r2, #16
100186e4:	4a89      	ldr	r2, [pc, #548]	@ (1001890c <_vfprintf_r+0x1bb4>)
100186e6:	9215      	str	r2, [sp, #84]	@ 0x54
100186e8:	da34      	bge.n	10018754 <_vfprintf_r+0x19fc>
100186ea:	46aa      	mov	sl, r5
100186ec:	2710      	movs	r7, #16
100186ee:	4615      	mov	r5, r2
100186f0:	e004      	b.n	100186fc <_vfprintf_r+0x19a4>
100186f2:	f108 0808 	add.w	r8, r8, #8
100186f6:	3e10      	subs	r6, #16
100186f8:	2e10      	cmp	r6, #16
100186fa:	dd2a      	ble.n	10018752 <_vfprintf_r+0x19fa>
100186fc:	3301      	adds	r3, #1
100186fe:	3410      	adds	r4, #16
10018700:	2b07      	cmp	r3, #7
10018702:	e9c8 5700 	strd	r5, r7, [r8]
10018706:	e9cd 3433 	strd	r3, r4, [sp, #204]	@ 0xcc
1001870a:	ddf2      	ble.n	100186f2 <_vfprintf_r+0x199a>
1001870c:	e9dd 1007 	ldrd	r1, r0, [sp, #28]
10018710:	aa32      	add	r2, sp, #200	@ 0xc8
10018712:	f000 f9c5 	bl	10018aa0 <__sprint_r>
10018716:	2800      	cmp	r0, #0
10018718:	f47f a822 	bne.w	10017760 <_vfprintf_r+0xa08>
1001871c:	e9dd 3433 	ldrd	r3, r4, [sp, #204]	@ 0xcc
10018720:	f10d 08d4 	add.w	r8, sp, #212	@ 0xd4
10018724:	e7e7      	b.n	100186f6 <_vfprintf_r+0x199e>
10018726:	2300      	movs	r3, #0
10018728:	930c      	str	r3, [sp, #48]	@ 0x30
1001872a:	ad45      	add	r5, sp, #276	@ 0x114
1001872c:	e40c      	b.n	10017f48 <_vfprintf_r+0x11f0>
1001872e:	19ac      	adds	r4, r5, r6
10018730:	2747      	movs	r7, #71	@ 0x47
10018732:	e4ae      	b.n	10018092 <_vfprintf_r+0x133a>
10018734:	9b13      	ldr	r3, [sp, #76]	@ 0x4c
10018736:	9a18      	ldr	r2, [sp, #96]	@ 0x60
10018738:	eb03 0b02 	add.w	fp, r3, r2
1001873c:	9b12      	ldr	r3, [sp, #72]	@ 0x48
1001873e:	2b00      	cmp	r3, #0
10018740:	f340 80ee 	ble.w	10018920 <_vfprintf_r+0x1bc8>
10018744:	2367      	movs	r3, #103	@ 0x67
10018746:	930e      	str	r3, [sp, #56]	@ 0x38
10018748:	e7ab      	b.n	100186a2 <_vfprintf_r+0x194a>
1001874a:	4a6f      	ldr	r2, [pc, #444]	@ (10018908 <_vfprintf_r+0x1bb0>)
1001874c:	9215      	str	r2, [sp, #84]	@ 0x54
1001874e:	f7ff b8ce 	b.w	100178ee <_vfprintf_r+0xb96>
10018752:	4655      	mov	r5, sl
10018754:	3301      	adds	r3, #1
10018756:	9a15      	ldr	r2, [sp, #84]	@ 0x54
10018758:	f8c8 2000 	str.w	r2, [r8]
1001875c:	4434      	add	r4, r6
1001875e:	2b07      	cmp	r3, #7
10018760:	e9cd 3433 	strd	r3, r4, [sp, #204]	@ 0xcc
10018764:	f8c8 6004 	str.w	r6, [r8, #4]
10018768:	f77f a9fb 	ble.w	10017b62 <_vfprintf_r+0xe0a>
1001876c:	e9dd 1007 	ldrd	r1, r0, [sp, #28]
10018770:	aa32      	add	r2, sp, #200	@ 0xc8
10018772:	f000 f995 	bl	10018aa0 <__sprint_r>
10018776:	2800      	cmp	r0, #0
10018778:	f47e aff2 	bne.w	10017760 <_vfprintf_r+0xa08>
1001877c:	e9dd 3433 	ldrd	r3, r4, [sp, #204]	@ 0xcc
10018780:	f10d 08d4 	add.w	r8, sp, #212	@ 0xd4
10018784:	f7ff b800 	b.w	10017788 <_vfprintf_r+0xa30>
10018788:	9b12      	ldr	r3, [sp, #72]	@ 0x48
1001878a:	9730      	str	r7, [sp, #192]	@ 0xc0
1001878c:	7bd9      	ldrb	r1, [r3, #15]
1001878e:	f816 2c01 	ldrb.w	r2, [r6, #-1]
10018792:	428a      	cmp	r2, r1
10018794:	4633      	mov	r3, r6
10018796:	d109      	bne.n	100187ac <_vfprintf_r+0x1a54>
10018798:	2030      	movs	r0, #48	@ 0x30
1001879a:	f803 0c01 	strb.w	r0, [r3, #-1]
1001879e:	9b30      	ldr	r3, [sp, #192]	@ 0xc0
100187a0:	1e5a      	subs	r2, r3, #1
100187a2:	9230      	str	r2, [sp, #192]	@ 0xc0
100187a4:	f813 2c01 	ldrb.w	r2, [r3, #-1]
100187a8:	4291      	cmp	r1, r2
100187aa:	d0f6      	beq.n	1001879a <_vfprintf_r+0x1a42>
100187ac:	2a39      	cmp	r2, #57	@ 0x39
100187ae:	bf0b      	itete	eq
100187b0:	9a12      	ldreq	r2, [sp, #72]	@ 0x48
100187b2:	3201      	addne	r2, #1
100187b4:	7a92      	ldrbeq	r2, [r2, #10]
100187b6:	b2d2      	uxtbne	r2, r2
100187b8:	f803 2c01 	strb.w	r2, [r3, #-1]
100187bc:	4633      	mov	r3, r6
100187be:	e595      	b.n	100182ec <_vfprintf_r+0x1594>
100187c0:	4a52      	ldr	r2, [pc, #328]	@ (1001890c <_vfprintf_r+0x1bb4>)
100187c2:	9215      	str	r2, [sp, #84]	@ 0x54
100187c4:	f7fe bf78 	b.w	100176b8 <_vfprintf_r+0x960>
100187c8:	9808      	ldr	r0, [sp, #32]
100187ca:	1c59      	adds	r1, r3, #1
100187cc:	f7fb fd4c 	bl	10014268 <_malloc_r>
100187d0:	4605      	mov	r5, r0
100187d2:	b178      	cbz	r0, 100187f4 <_vfprintf_r+0x1a9c>
100187d4:	900c      	str	r0, [sp, #48]	@ 0x30
100187d6:	e504      	b.n	100181e2 <_vfprintf_r+0x148a>
100187d8:	2800      	cmp	r0, #0
100187da:	d162      	bne.n	100188a2 <_vfprintf_r+0x1b4a>
100187dc:	2230      	movs	r2, #48	@ 0x30
100187de:	f88d 20b2 	strb.w	r2, [sp, #178]	@ 0xb2
100187e2:	f10d 02b3 	add.w	r2, sp, #179	@ 0xb3
100187e6:	3330      	adds	r3, #48	@ 0x30
100187e8:	f802 3b01 	strb.w	r3, [r2], #1
100187ec:	ab2c      	add	r3, sp, #176	@ 0xb0
100187ee:	1ad3      	subs	r3, r2, r3
100187f0:	931c      	str	r3, [sp, #112]	@ 0x70
100187f2:	e4a3      	b.n	1001813c <_vfprintf_r+0x13e4>
100187f4:	9a07      	ldr	r2, [sp, #28]
100187f6:	f9b2 300c 	ldrsh.w	r3, [r2, #12]
100187fa:	f043 0340 	orr.w	r3, r3, #64	@ 0x40
100187fe:	8193      	strh	r3, [r2, #12]
10018800:	f7fe bc0b 	b.w	1001701a <_vfprintf_r+0x2c2>
10018804:	e9dd 1007 	ldrd	r1, r0, [sp, #28]
10018808:	aa32      	add	r2, sp, #200	@ 0xc8
1001880a:	f000 f949 	bl	10018aa0 <__sprint_r>
1001880e:	2800      	cmp	r0, #0
10018810:	f47e afa6 	bne.w	10017760 <_vfprintf_r+0xa08>
10018814:	9c34      	ldr	r4, [sp, #208]	@ 0xd0
10018816:	f10d 08d4 	add.w	r8, sp, #212	@ 0xd4
1001881a:	f7ff b89c 	b.w	10017956 <_vfprintf_r+0xbfe>
1001881e:	4b3c      	ldr	r3, [pc, #240]	@ (10018910 <_vfprintf_r+0x1bb8>)
10018820:	4a3c      	ldr	r2, [pc, #240]	@ (10018914 <_vfprintf_r+0x1bbc>)
10018822:	990e      	ldr	r1, [sp, #56]	@ 0x38
10018824:	2961      	cmp	r1, #97	@ 0x61
10018826:	bf18      	it	ne
10018828:	461a      	movne	r2, r3
1001882a:	2301      	movs	r3, #1
1001882c:	9212      	str	r2, [sp, #72]	@ 0x48
1001882e:	9329      	str	r3, [sp, #164]	@ 0xa4
10018830:	e4ff      	b.n	10018232 <_vfprintf_r+0x14da>
10018832:	2306      	movs	r3, #6
10018834:	9309      	str	r3, [sp, #36]	@ 0x24
10018836:	f7ff b9f1 	b.w	10017c1c <_vfprintf_r+0xec4>
1001883a:	9b06      	ldr	r3, [sp, #24]
1001883c:	07df      	lsls	r7, r3, #31
1001883e:	f57f ac86 	bpl.w	1001814e <_vfprintf_r+0x13f6>
10018842:	e482      	b.n	1001814a <_vfprintf_r+0x13f2>
10018844:	e9dd 0124 	ldrd	r0, r1, [sp, #144]	@ 0x90
10018848:	2200      	movs	r2, #0
1001884a:	2300      	movs	r3, #0
1001884c:	f002 fc78 	bl	1001b140 <__aeabi_dcmpeq>
10018850:	2800      	cmp	r0, #0
10018852:	f47f ac1c 	bne.w	1001808e <_vfprintf_r+0x1336>
10018856:	f1c6 0601 	rsb	r6, r6, #1
1001885a:	9629      	str	r6, [sp, #164]	@ 0xa4
1001885c:	e418      	b.n	10018090 <_vfprintf_r+0x1338>
1001885e:	9b17      	ldr	r3, [sp, #92]	@ 0x5c
10018860:	4d2d      	ldr	r5, [pc, #180]	@ (10018918 <_vfprintf_r+0x1bc0>)
10018862:	2b00      	cmp	r3, #0
10018864:	bfb4      	ite	lt
10018866:	222d      	movlt	r2, #45	@ 0x2d
10018868:	f89d 209f 	ldrbge.w	r2, [sp, #159]	@ 0x9f
1001886c:	4b2b      	ldr	r3, [pc, #172]	@ (1001891c <_vfprintf_r+0x1bc4>)
1001886e:	bfb8      	it	lt
10018870:	f88d 209f 	strblt.w	r2, [sp, #159]	@ 0x9f
10018874:	f029 0980 	bic.w	r9, r9, #128	@ 0x80
10018878:	f7fe bc9c 	b.w	100171b4 <_vfprintf_r+0x45c>
1001887c:	9b09      	ldr	r3, [sp, #36]	@ 0x24
1001887e:	9306      	str	r3, [sp, #24]
10018880:	469b      	mov	fp, r3
10018882:	2373      	movs	r3, #115	@ 0x73
10018884:	f89d 209f 	ldrb.w	r2, [sp, #159]	@ 0x9f
10018888:	960d      	str	r6, [sp, #52]	@ 0x34
1001888a:	9009      	str	r0, [sp, #36]	@ 0x24
1001888c:	9014      	str	r0, [sp, #80]	@ 0x50
1001888e:	9010      	str	r0, [sp, #64]	@ 0x40
10018890:	930e      	str	r3, [sp, #56]	@ 0x38
10018892:	f7fe bc9c 	b.w	100171ce <_vfprintf_r+0x476>
10018896:	f8dd 9018 	ldr.w	r9, [sp, #24]
1001889a:	f8dd b024 	ldr.w	fp, [sp, #36]	@ 0x24
1001889e:	f7ff bb41 	b.w	10017f24 <_vfprintf_r+0x11cc>
100188a2:	f10d 02b2 	add.w	r2, sp, #178	@ 0xb2
100188a6:	e79e      	b.n	100187e6 <_vfprintf_r+0x1a8e>
100188a8:	4693      	mov	fp, r2
100188aa:	e5b6      	b.n	1001841a <_vfprintf_r+0x16c2>
100188ac:	9b18      	ldr	r3, [sp, #96]	@ 0x60
100188ae:	18cf      	adds	r7, r1, r3
100188b0:	443a      	add	r2, r7
100188b2:	2366      	movs	r3, #102	@ 0x66
100188b4:	4693      	mov	fp, r2
100188b6:	930e      	str	r3, [sp, #56]	@ 0x38
100188b8:	e6f3      	b.n	100186a2 <_vfprintf_r+0x194a>
100188ba:	2367      	movs	r3, #103	@ 0x67
100188bc:	930e      	str	r3, [sp, #56]	@ 0x38
100188be:	991b      	ldr	r1, [sp, #108]	@ 0x6c
100188c0:	780b      	ldrb	r3, [r1, #0]
100188c2:	2bff      	cmp	r3, #255	@ 0xff
100188c4:	d062      	beq.n	1001898c <_vfprintf_r+0x1c34>
100188c6:	2400      	movs	r4, #0
100188c8:	9a12      	ldr	r2, [sp, #72]	@ 0x48
100188ca:	4620      	mov	r0, r4
100188cc:	e003      	b.n	100188d6 <_vfprintf_r+0x1b7e>
100188ce:	3001      	adds	r0, #1
100188d0:	3101      	adds	r1, #1
100188d2:	2bff      	cmp	r3, #255	@ 0xff
100188d4:	d008      	beq.n	100188e8 <_vfprintf_r+0x1b90>
100188d6:	4293      	cmp	r3, r2
100188d8:	da06      	bge.n	100188e8 <_vfprintf_r+0x1b90>
100188da:	1ad2      	subs	r2, r2, r3
100188dc:	784b      	ldrb	r3, [r1, #1]
100188de:	2b00      	cmp	r3, #0
100188e0:	d1f5      	bne.n	100188ce <_vfprintf_r+0x1b76>
100188e2:	780b      	ldrb	r3, [r1, #0]
100188e4:	3401      	adds	r4, #1
100188e6:	e7f4      	b.n	100188d2 <_vfprintf_r+0x1b7a>
100188e8:	911b      	str	r1, [sp, #108]	@ 0x6c
100188ea:	9212      	str	r2, [sp, #72]	@ 0x48
100188ec:	9010      	str	r0, [sp, #64]	@ 0x40
100188ee:	9414      	str	r4, [sp, #80]	@ 0x50
100188f0:	e9dd 3914 	ldrd	r3, r9, [sp, #80]	@ 0x50
100188f4:	9a10      	ldr	r2, [sp, #64]	@ 0x40
100188f6:	4413      	add	r3, r2
100188f8:	9a1e      	ldr	r2, [sp, #120]	@ 0x78
100188fa:	fb02 bb03 	mla	fp, r2, r3, fp
100188fe:	ea2b 73eb 	bic.w	r3, fp, fp, asr #31
10018902:	9306      	str	r3, [sp, #24]
10018904:	e42f      	b.n	10018166 <_vfprintf_r+0x140e>
10018906:	bf00      	nop
10018908:	1001db5c 	.word	0x1001db5c
1001890c:	1001db4c 	.word	0x1001db4c
10018910:	1001d940 	.word	0x1001d940
10018914:	1001d92c 	.word	0x1001d92c
10018918:	1001d924 	.word	0x1001d924
1001891c:	1001d928 	.word	0x1001d928
10018920:	f1c3 0301 	rsb	r3, r3, #1
10018924:	449b      	add	fp, r3
10018926:	ea2b 73eb 	bic.w	r3, fp, fp, asr #31
1001892a:	9306      	str	r3, [sp, #24]
1001892c:	2367      	movs	r3, #103	@ 0x67
1001892e:	f8dd 9054 	ldr.w	r9, [sp, #84]	@ 0x54
10018932:	930e      	str	r3, [sp, #56]	@ 0x38
10018934:	e57e      	b.n	10018434 <_vfprintf_r+0x16dc>
10018936:	4e1b      	ldr	r6, [pc, #108]	@ (100189a4 <_vfprintf_r+0x1c4c>)
10018938:	e60f      	b.n	1001855a <_vfprintf_r+0x1802>
1001893a:	2302      	movs	r3, #2
1001893c:	931c      	str	r3, [sp, #112]	@ 0x70
1001893e:	f7ff bbfd 	b.w	1001813c <_vfprintf_r+0x13e4>
10018942:	4a18      	ldr	r2, [pc, #96]	@ (100189a4 <_vfprintf_r+0x1c4c>)
10018944:	9215      	str	r2, [sp, #84]	@ 0x54
10018946:	e52b      	b.n	100183a0 <_vfprintf_r+0x1648>
10018948:	2170      	movs	r1, #112	@ 0x70
1001894a:	f7ff bbc0 	b.w	100180ce <_vfprintf_r+0x1376>
1001894e:	f8dd 9054 	ldr.w	r9, [sp, #84]	@ 0x54
10018952:	b92b      	cbnz	r3, 10018960 <_vfprintf_r+0x1c08>
10018954:	2301      	movs	r3, #1
10018956:	2266      	movs	r2, #102	@ 0x66
10018958:	9306      	str	r3, [sp, #24]
1001895a:	920e      	str	r2, [sp, #56]	@ 0x38
1001895c:	469b      	mov	fp, r3
1001895e:	e569      	b.n	10018434 <_vfprintf_r+0x16dc>
10018960:	9b18      	ldr	r3, [sp, #96]	@ 0x60
10018962:	1c5f      	adds	r7, r3, #1
10018964:	9b09      	ldr	r3, [sp, #36]	@ 0x24
10018966:	443b      	add	r3, r7
10018968:	469b      	mov	fp, r3
1001896a:	ea23 73e3 	bic.w	r3, r3, r3, asr #31
1001896e:	9306      	str	r3, [sp, #24]
10018970:	2366      	movs	r3, #102	@ 0x66
10018972:	930e      	str	r3, [sp, #56]	@ 0x38
10018974:	e55e      	b.n	10018434 <_vfprintf_r+0x16dc>
10018976:	9a0d      	ldr	r2, [sp, #52]	@ 0x34
10018978:	7863      	ldrb	r3, [r4, #1]
1001897a:	460c      	mov	r4, r1
1001897c:	f852 1b04 	ldr.w	r1, [r2], #4
10018980:	920d      	str	r2, [sp, #52]	@ 0x34
10018982:	ea41 71e1 	orr.w	r1, r1, r1, asr #31
10018986:	9109      	str	r1, [sp, #36]	@ 0x24
10018988:	f7fe ba5e 	b.w	10016e48 <_vfprintf_r+0xf0>
1001898c:	2300      	movs	r3, #0
1001898e:	9314      	str	r3, [sp, #80]	@ 0x50
10018990:	9310      	str	r3, [sp, #64]	@ 0x40
10018992:	e7ad      	b.n	100188f0 <_vfprintf_r+0x1b98>
10018994:	e9dd 2b07 	ldrd	r2, fp, [sp, #28]
10018998:	8993      	ldrh	r3, [r2, #12]
1001899a:	f043 0340 	orr.w	r3, r3, #64	@ 0x40
1001899e:	8193      	strh	r3, [r2, #12]
100189a0:	f7fe bb32 	b.w	10017008 <_vfprintf_r+0x2b0>
100189a4:	1001db4c 	.word	0x1001db4c

100189a8 <__sbprintf>:
100189a8:	b5f0      	push	{r4, r5, r6, r7, lr}
100189aa:	461f      	mov	r7, r3
100189ac:	898b      	ldrh	r3, [r1, #12]
100189ae:	f2ad 4d6c 	subw	sp, sp, #1132	@ 0x46c
100189b2:	f023 0302 	bic.w	r3, r3, #2
100189b6:	f8ad 300c 	strh.w	r3, [sp, #12]
100189ba:	6e4b      	ldr	r3, [r1, #100]	@ 0x64
100189bc:	9319      	str	r3, [sp, #100]	@ 0x64
100189be:	89cb      	ldrh	r3, [r1, #14]
100189c0:	f8ad 300e 	strh.w	r3, [sp, #14]
100189c4:	69cb      	ldr	r3, [r1, #28]
100189c6:	9307      	str	r3, [sp, #28]
100189c8:	6a4b      	ldr	r3, [r1, #36]	@ 0x24
100189ca:	9309      	str	r3, [sp, #36]	@ 0x24
100189cc:	ab1a      	add	r3, sp, #104	@ 0x68
100189ce:	9300      	str	r3, [sp, #0]
100189d0:	9304      	str	r3, [sp, #16]
100189d2:	f44f 6380 	mov.w	r3, #1024	@ 0x400
100189d6:	4615      	mov	r5, r2
100189d8:	4606      	mov	r6, r0
100189da:	9302      	str	r3, [sp, #8]
100189dc:	9305      	str	r3, [sp, #20]
100189de:	a816      	add	r0, sp, #88	@ 0x58
100189e0:	2300      	movs	r3, #0
100189e2:	460c      	mov	r4, r1
100189e4:	9306      	str	r3, [sp, #24]
100189e6:	f7fc f837 	bl	10014a58 <__retarget_lock_init_recursive>
100189ea:	462a      	mov	r2, r5
100189ec:	463b      	mov	r3, r7
100189ee:	4669      	mov	r1, sp
100189f0:	4630      	mov	r0, r6
100189f2:	f7fe f9b1 	bl	10016d58 <_vfprintf_r>
100189f6:	1e05      	subs	r5, r0, #0
100189f8:	db07      	blt.n	10018a0a <__sbprintf+0x62>
100189fa:	4669      	mov	r1, sp
100189fc:	4630      	mov	r0, r6
100189fe:	f7fd f997 	bl	10015d30 <_fflush_r>
10018a02:	2800      	cmp	r0, #0
10018a04:	bf18      	it	ne
10018a06:	f04f 35ff 	movne.w	r5, #4294967295	@ 0xffffffff
10018a0a:	f8bd 300c 	ldrh.w	r3, [sp, #12]
10018a0e:	065b      	lsls	r3, r3, #25
10018a10:	d503      	bpl.n	10018a1a <__sbprintf+0x72>
10018a12:	89a3      	ldrh	r3, [r4, #12]
10018a14:	f043 0340 	orr.w	r3, r3, #64	@ 0x40
10018a18:	81a3      	strh	r3, [r4, #12]
10018a1a:	9816      	ldr	r0, [sp, #88]	@ 0x58
10018a1c:	f7fc f81e 	bl	10014a5c <__retarget_lock_close_recursive>
10018a20:	4628      	mov	r0, r5
10018a22:	f20d 4d6c 	addw	sp, sp, #1132	@ 0x46c
10018a26:	bdf0      	pop	{r4, r5, r6, r7, pc}

10018a28 <__sprint_r.part.0>:
10018a28:	e92d 4ff8 	stmdb	sp!, {r3, r4, r5, r6, r7, r8, r9, sl, fp, lr}
10018a2c:	6e4b      	ldr	r3, [r1, #100]	@ 0x64
10018a2e:	049c      	lsls	r4, r3, #18
10018a30:	4690      	mov	r8, r2
10018a32:	d52e      	bpl.n	10018a92 <__sprint_r.part.0+0x6a>
10018a34:	6893      	ldr	r3, [r2, #8]
10018a36:	6812      	ldr	r2, [r2, #0]
10018a38:	b34b      	cbz	r3, 10018a8e <__sprint_r.part.0+0x66>
10018a3a:	460d      	mov	r5, r1
10018a3c:	4606      	mov	r6, r0
10018a3e:	f102 0908 	add.w	r9, r2, #8
10018a42:	e959 2a02 	ldrd	r2, sl, [r9, #-8]
10018a46:	ea5f 079a 	movs.w	r7, sl, lsr #2
10018a4a:	d016      	beq.n	10018a7a <__sprint_r.part.0+0x52>
10018a4c:	f1a2 0b04 	sub.w	fp, r2, #4
10018a50:	2400      	movs	r4, #0
10018a52:	e001      	b.n	10018a58 <__sprint_r.part.0+0x30>
10018a54:	42a7      	cmp	r7, r4
10018a56:	d00e      	beq.n	10018a76 <__sprint_r.part.0+0x4e>
10018a58:	f85b 1f04 	ldr.w	r1, [fp, #4]!
10018a5c:	462a      	mov	r2, r5
10018a5e:	4630      	mov	r0, r6
10018a60:	f001 fe66 	bl	1001a730 <_fputwc_r>
10018a64:	1c43      	adds	r3, r0, #1
10018a66:	f104 0401 	add.w	r4, r4, #1
10018a6a:	d1f3      	bne.n	10018a54 <__sprint_r.part.0+0x2c>
10018a6c:	2300      	movs	r3, #0
10018a6e:	e9c8 3301 	strd	r3, r3, [r8, #4]
10018a72:	e8bd 8ff8 	ldmia.w	sp!, {r3, r4, r5, r6, r7, r8, r9, sl, fp, pc}
10018a76:	f8d8 3008 	ldr.w	r3, [r8, #8]
10018a7a:	f02a 0a03 	bic.w	sl, sl, #3
10018a7e:	eba3 030a 	sub.w	r3, r3, sl
10018a82:	f8c8 3008 	str.w	r3, [r8, #8]
10018a86:	f109 0908 	add.w	r9, r9, #8
10018a8a:	2b00      	cmp	r3, #0
10018a8c:	d1d9      	bne.n	10018a42 <__sprint_r.part.0+0x1a>
10018a8e:	2000      	movs	r0, #0
10018a90:	e7ec      	b.n	10018a6c <__sprint_r.part.0+0x44>
10018a92:	f7fd ff37 	bl	10016904 <__sfvwrite_r>
10018a96:	2300      	movs	r3, #0
10018a98:	e9c8 3301 	strd	r3, r3, [r8, #4]
10018a9c:	e8bd 8ff8 	ldmia.w	sp!, {r3, r4, r5, r6, r7, r8, r9, sl, fp, pc}

10018aa0 <__sprint_r>:
10018aa0:	b410      	push	{r4}
10018aa2:	6894      	ldr	r4, [r2, #8]
10018aa4:	b11c      	cbz	r4, 10018aae <__sprint_r+0xe>
10018aa6:	f85d 4b04 	ldr.w	r4, [sp], #4
10018aaa:	f7ff bfbd 	b.w	10018a28 <__sprint_r.part.0>
10018aae:	4620      	mov	r0, r4
10018ab0:	6054      	str	r4, [r2, #4]
10018ab2:	f85d 4b04 	ldr.w	r4, [sp], #4
10018ab6:	4770      	bx	lr

10018ab8 <_vfiprintf_r>:
10018ab8:	e92d 4ff0 	stmdb	sp!, {r4, r5, r6, r7, r8, r9, sl, fp, lr}
10018abc:	b0c7      	sub	sp, #284	@ 0x11c
10018abe:	af16      	add	r7, sp, #88	@ 0x58
10018ac0:	4683      	mov	fp, r0
10018ac2:	9103      	str	r1, [sp, #12]
10018ac4:	9206      	str	r2, [sp, #24]
10018ac6:	2100      	movs	r1, #0
10018ac8:	2208      	movs	r2, #8
10018aca:	4638      	mov	r0, r7
10018acc:	461c      	mov	r4, r3
10018ace:	930a      	str	r3, [sp, #40]	@ 0x28
10018ad0:	f7fb ff0e 	bl	100148f0 <memset>
10018ad4:	f1bb 0f00 	cmp.w	fp, #0
10018ad8:	d004      	beq.n	10018ae4 <_vfiprintf_r+0x2c>
10018ada:	f8db 3034 	ldr.w	r3, [fp, #52]	@ 0x34
10018ade:	2b00      	cmp	r3, #0
10018ae0:	f000 86b8 	beq.w	10019854 <_vfiprintf_r+0xd9c>
10018ae4:	9a03      	ldr	r2, [sp, #12]
10018ae6:	6e53      	ldr	r3, [r2, #100]	@ 0x64
10018ae8:	f9b2 200c 	ldrsh.w	r2, [r2, #12]
10018aec:	07db      	lsls	r3, r3, #31
10018aee:	d402      	bmi.n	10018af6 <_vfiprintf_r+0x3e>
10018af0:	0596      	lsls	r6, r2, #22
10018af2:	f140 859d 	bpl.w	10019630 <_vfiprintf_r+0xb78>
10018af6:	0495      	lsls	r5, r2, #18
10018af8:	d407      	bmi.n	10018b0a <_vfiprintf_r+0x52>
10018afa:	9903      	ldr	r1, [sp, #12]
10018afc:	6e4b      	ldr	r3, [r1, #100]	@ 0x64
10018afe:	f442 5200 	orr.w	r2, r2, #8192	@ 0x2000
10018b02:	f423 5300 	bic.w	r3, r3, #8192	@ 0x2000
10018b06:	818a      	strh	r2, [r1, #12]
10018b08:	664b      	str	r3, [r1, #100]	@ 0x64
10018b0a:	0710      	lsls	r0, r2, #28
10018b0c:	f140 80c9 	bpl.w	10018ca2 <_vfiprintf_r+0x1ea>
10018b10:	9b03      	ldr	r3, [sp, #12]
10018b12:	691b      	ldr	r3, [r3, #16]
10018b14:	2b00      	cmp	r3, #0
10018b16:	f000 80c4 	beq.w	10018ca2 <_vfiprintf_r+0x1ea>
10018b1a:	f002 031a 	and.w	r3, r2, #26
10018b1e:	2b0a      	cmp	r3, #10
10018b20:	f000 80ce 	beq.w	10018cc0 <_vfiprintf_r+0x208>
10018b24:	2300      	movs	r3, #0
10018b26:	e9cd 331b 	strd	r3, r3, [sp, #108]	@ 0x6c
10018b2a:	e9cd 330e 	strd	r3, r3, [sp, #56]	@ 0x38
10018b2e:	aa1d      	add	r2, sp, #116	@ 0x74
10018b30:	f8df a904 	ldr.w	sl, [pc, #2308]	@ 10019438 <_vfiprintf_r+0x980>
10018b34:	930d      	str	r3, [sp, #52]	@ 0x34
10018b36:	921a      	str	r2, [sp, #104]	@ 0x68
10018b38:	4691      	mov	r9, r2
10018b3a:	9310      	str	r3, [sp, #64]	@ 0x40
10018b3c:	9307      	str	r3, [sp, #28]
10018b3e:	9d06      	ldr	r5, [sp, #24]
10018b40:	f8da 40e4 	ldr.w	r4, [sl, #228]	@ 0xe4
10018b44:	f7fb ff90 	bl	10014a68 <__locale_mb_cur_max>
10018b48:	462a      	mov	r2, r5
10018b4a:	4603      	mov	r3, r0
10018b4c:	a914      	add	r1, sp, #80	@ 0x50
10018b4e:	9700      	str	r7, [sp, #0]
10018b50:	4658      	mov	r0, fp
10018b52:	47a0      	blx	r4
10018b54:	2800      	cmp	r0, #0
10018b56:	f000 80d2 	beq.w	10018cfe <_vfiprintf_r+0x246>
10018b5a:	f2c0 80c8 	blt.w	10018cee <_vfiprintf_r+0x236>
10018b5e:	9a14      	ldr	r2, [sp, #80]	@ 0x50
10018b60:	2a25      	cmp	r2, #37	@ 0x25
10018b62:	4603      	mov	r3, r0
10018b64:	d001      	beq.n	10018b6a <_vfiprintf_r+0xb2>
10018b66:	441d      	add	r5, r3
10018b68:	e7ea      	b.n	10018b40 <_vfiprintf_r+0x88>
10018b6a:	9b06      	ldr	r3, [sp, #24]
10018b6c:	1aee      	subs	r6, r5, r3
10018b6e:	4604      	mov	r4, r0
10018b70:	f040 80c9 	bne.w	10018d06 <_vfiprintf_r+0x24e>
10018b74:	2300      	movs	r3, #0
10018b76:	f04f 31ff 	mov.w	r1, #4294967295	@ 0xffffffff
10018b7a:	786a      	ldrb	r2, [r5, #1]
10018b7c:	f88d 304b 	strb.w	r3, [sp, #75]	@ 0x4b
10018b80:	9308      	str	r3, [sp, #32]
10018b82:	1c6c      	adds	r4, r5, #1
10018b84:	9105      	str	r1, [sp, #20]
10018b86:	9302      	str	r3, [sp, #8]
10018b88:	3401      	adds	r4, #1
10018b8a:	f1a2 0320 	sub.w	r3, r2, #32
10018b8e:	2b5a      	cmp	r3, #90	@ 0x5a
10018b90:	f200 80ff 	bhi.w	10018d92 <_vfiprintf_r+0x2da>
10018b94:	e8df f013 	tbh	[pc, r3, lsl #1]
10018b98:	00fd0300 	.word	0x00fd0300
10018b9c:	02fa00fd 	.word	0x02fa00fd
10018ba0:	00fd00fd 	.word	0x00fd00fd
10018ba4:	006b00fd 	.word	0x006b00fd
10018ba8:	00fd00fd 	.word	0x00fd00fd
10018bac:	032a0215 	.word	0x032a0215
10018bb0:	022000fd 	.word	0x022000fd
10018bb4:	00fd0310 	.word	0x00fd0310
10018bb8:	005b030a 	.word	0x005b030a
10018bbc:	005b005b 	.word	0x005b005b
10018bc0:	005b005b 	.word	0x005b005b
10018bc4:	005b005b 	.word	0x005b005b
10018bc8:	005b005b 	.word	0x005b005b
10018bcc:	00fd00fd 	.word	0x00fd00fd
10018bd0:	00fd00fd 	.word	0x00fd00fd
10018bd4:	00fd00fd 	.word	0x00fd00fd
10018bd8:	00fd00fd 	.word	0x00fd00fd
10018bdc:	01cb00fd 	.word	0x01cb00fd
10018be0:	00fd025a 	.word	0x00fd025a
10018be4:	00fd00fd 	.word	0x00fd00fd
10018be8:	00fd00fd 	.word	0x00fd00fd
10018bec:	00fd00fd 	.word	0x00fd00fd
10018bf0:	00fd00fd 	.word	0x00fd00fd
10018bf4:	022600fd 	.word	0x022600fd
10018bf8:	00fd00fd 	.word	0x00fd00fd
10018bfc:	01a300fd 	.word	0x01a300fd
10018c00:	027300fd 	.word	0x027300fd
10018c04:	00fd00fd 	.word	0x00fd00fd
10018c08:	00fd058c 	.word	0x00fd058c
10018c0c:	00fd00fd 	.word	0x00fd00fd
10018c10:	00fd00fd 	.word	0x00fd00fd
10018c14:	00fd00fd 	.word	0x00fd00fd
10018c18:	00fd00fd 	.word	0x00fd00fd
10018c1c:	01cb00fd 	.word	0x01cb00fd
10018c20:	00fd01f0 	.word	0x00fd01f0
10018c24:	00fd00fd 	.word	0x00fd00fd
10018c28:	01f002c1 	.word	0x01f002c1
10018c2c:	00fd007f 	.word	0x00fd007f
10018c30:	00fd032f 	.word	0x00fd032f
10018c34:	058902eb 	.word	0x058902eb
10018c38:	007f02ca 	.word	0x007f02ca
10018c3c:	01a300fd 	.word	0x01a300fd
10018c40:	0586007d 	.word	0x0586007d
10018c44:	00fd00fd 	.word	0x00fd00fd
10018c48:	00fd05af 	.word	0x00fd05af
10018c4c:	007d      	.short	0x007d
10018c4e:	f1a2 0330 	sub.w	r3, r2, #48	@ 0x30
10018c52:	2200      	movs	r2, #0
10018c54:	4611      	mov	r1, r2
10018c56:	f814 2b01 	ldrb.w	r2, [r4], #1
10018c5a:	eb01 0181 	add.w	r1, r1, r1, lsl #2
10018c5e:	eb03 0141 	add.w	r1, r3, r1, lsl #1
10018c62:	f1a2 0330 	sub.w	r3, r2, #48	@ 0x30
10018c66:	2b09      	cmp	r3, #9
10018c68:	d9f5      	bls.n	10018c56 <_vfiprintf_r+0x19e>
10018c6a:	9108      	str	r1, [sp, #32]
10018c6c:	e78d      	b.n	10018b8a <_vfiprintf_r+0xd2>
10018c6e:	4658      	mov	r0, fp
10018c70:	f7fb ff00 	bl	10014a74 <_localeconv_r>
10018c74:	6843      	ldr	r3, [r0, #4]
10018c76:	9310      	str	r3, [sp, #64]	@ 0x40
10018c78:	4618      	mov	r0, r3
10018c7a:	f7fd fa41 	bl	10016100 <strlen>
10018c7e:	900f      	str	r0, [sp, #60]	@ 0x3c
10018c80:	4605      	mov	r5, r0
10018c82:	4658      	mov	r0, fp
10018c84:	f7fb fef6 	bl	10014a74 <_localeconv_r>
10018c88:	6883      	ldr	r3, [r0, #8]
10018c8a:	930e      	str	r3, [sp, #56]	@ 0x38
10018c8c:	2d00      	cmp	r5, #0
10018c8e:	f040 84e3 	bne.w	10019658 <_vfiprintf_r+0xba0>
10018c92:	7822      	ldrb	r2, [r4, #0]
10018c94:	e778      	b.n	10018b88 <_vfiprintf_r+0xd0>
10018c96:	9b02      	ldr	r3, [sp, #8]
10018c98:	7822      	ldrb	r2, [r4, #0]
10018c9a:	f043 0320 	orr.w	r3, r3, #32
10018c9e:	9302      	str	r3, [sp, #8]
10018ca0:	e772      	b.n	10018b88 <_vfiprintf_r+0xd0>
10018ca2:	9d03      	ldr	r5, [sp, #12]
10018ca4:	4658      	mov	r0, fp
10018ca6:	4629      	mov	r1, r5
10018ca8:	f000 ff90 	bl	10019bcc <__swsetup_r>
10018cac:	2800      	cmp	r0, #0
10018cae:	f040 86a3 	bne.w	100199f8 <_vfiprintf_r+0xf40>
10018cb2:	f9b5 200c 	ldrsh.w	r2, [r5, #12]
10018cb6:	f002 031a 	and.w	r3, r2, #26
10018cba:	2b0a      	cmp	r3, #10
10018cbc:	f47f af32 	bne.w	10018b24 <_vfiprintf_r+0x6c>
10018cc0:	9903      	ldr	r1, [sp, #12]
10018cc2:	f9b1 300e 	ldrsh.w	r3, [r1, #14]
10018cc6:	2b00      	cmp	r3, #0
10018cc8:	f6ff af2c 	blt.w	10018b24 <_vfiprintf_r+0x6c>
10018ccc:	6e4b      	ldr	r3, [r1, #100]	@ 0x64
10018cce:	07db      	lsls	r3, r3, #31
10018cd0:	d402      	bmi.n	10018cd8 <_vfiprintf_r+0x220>
10018cd2:	0597      	lsls	r7, r2, #22
10018cd4:	f140 865b 	bpl.w	1001998e <_vfiprintf_r+0xed6>
10018cd8:	9a06      	ldr	r2, [sp, #24]
10018cda:	9903      	ldr	r1, [sp, #12]
10018cdc:	4623      	mov	r3, r4
10018cde:	4658      	mov	r0, fp
10018ce0:	f000 febe 	bl	10019a60 <__sbprintf>
10018ce4:	9007      	str	r0, [sp, #28]
10018ce6:	9807      	ldr	r0, [sp, #28]
10018ce8:	b047      	add	sp, #284	@ 0x11c
10018cea:	e8bd 8ff0 	ldmia.w	sp!, {r4, r5, r6, r7, r8, r9, sl, fp, pc}
10018cee:	2208      	movs	r2, #8
10018cf0:	2100      	movs	r1, #0
10018cf2:	4638      	mov	r0, r7
10018cf4:	f7fb fdfc 	bl	100148f0 <memset>
10018cf8:	2301      	movs	r3, #1
10018cfa:	441d      	add	r5, r3
10018cfc:	e720      	b.n	10018b40 <_vfiprintf_r+0x88>
10018cfe:	9b06      	ldr	r3, [sp, #24]
10018d00:	1aee      	subs	r6, r5, r3
10018d02:	4604      	mov	r4, r0
10018d04:	d012      	beq.n	10018d2c <_vfiprintf_r+0x274>
10018d06:	9b06      	ldr	r3, [sp, #24]
10018d08:	9a1c      	ldr	r2, [sp, #112]	@ 0x70
10018d0a:	e9c9 3600 	strd	r3, r6, [r9]
10018d0e:	9b1b      	ldr	r3, [sp, #108]	@ 0x6c
10018d10:	3301      	adds	r3, #1
10018d12:	4432      	add	r2, r6
10018d14:	2b07      	cmp	r3, #7
10018d16:	921c      	str	r2, [sp, #112]	@ 0x70
10018d18:	931b      	str	r3, [sp, #108]	@ 0x6c
10018d1a:	dc11      	bgt.n	10018d40 <_vfiprintf_r+0x288>
10018d1c:	f109 0908 	add.w	r9, r9, #8
10018d20:	9b07      	ldr	r3, [sp, #28]
10018d22:	4433      	add	r3, r6
10018d24:	9307      	str	r3, [sp, #28]
10018d26:	2c00      	cmp	r4, #0
10018d28:	f47f af24 	bne.w	10018b74 <_vfiprintf_r+0xbc>
10018d2c:	9b1c      	ldr	r3, [sp, #112]	@ 0x70
10018d2e:	2b00      	cmp	r3, #0
10018d30:	f040 864d 	bne.w	100199ce <_vfiprintf_r+0xf16>
10018d34:	9b03      	ldr	r3, [sp, #12]
10018d36:	2200      	movs	r2, #0
10018d38:	f9b3 300c 	ldrsh.w	r3, [r3, #12]
10018d3c:	921b      	str	r2, [sp, #108]	@ 0x6c
10018d3e:	e01c      	b.n	10018d7a <_vfiprintf_r+0x2c2>
10018d40:	2a00      	cmp	r2, #0
10018d42:	f000 842d 	beq.w	100195a0 <_vfiprintf_r+0xae8>
10018d46:	9903      	ldr	r1, [sp, #12]
10018d48:	aa1a      	add	r2, sp, #104	@ 0x68
10018d4a:	4658      	mov	r0, fp
10018d4c:	f7ff fe6c 	bl	10018a28 <__sprint_r.part.0>
10018d50:	b980      	cbnz	r0, 10018d74 <_vfiprintf_r+0x2bc>
10018d52:	f10d 0974 	add.w	r9, sp, #116	@ 0x74
10018d56:	e7e3      	b.n	10018d20 <_vfiprintf_r+0x268>
10018d58:	9903      	ldr	r1, [sp, #12]
10018d5a:	aa1a      	add	r2, sp, #104	@ 0x68
10018d5c:	4658      	mov	r0, fp
10018d5e:	f7ff fe63 	bl	10018a28 <__sprint_r.part.0>
10018d62:	2800      	cmp	r0, #0
10018d64:	f000 80a6 	beq.w	10018eb4 <_vfiprintf_r+0x3fc>
10018d68:	9b0b      	ldr	r3, [sp, #44]	@ 0x2c
10018d6a:	b11b      	cbz	r3, 10018d74 <_vfiprintf_r+0x2bc>
10018d6c:	990b      	ldr	r1, [sp, #44]	@ 0x2c
10018d6e:	4658      	mov	r0, fp
10018d70:	f7fd fc68 	bl	10016644 <_free_r>
10018d74:	9b03      	ldr	r3, [sp, #12]
10018d76:	f9b3 300c 	ldrsh.w	r3, [r3, #12]
10018d7a:	9a03      	ldr	r2, [sp, #12]
10018d7c:	6e52      	ldr	r2, [r2, #100]	@ 0x64
10018d7e:	07d1      	lsls	r1, r2, #31
10018d80:	f140 80a3 	bpl.w	10018eca <_vfiprintf_r+0x412>
10018d84:	065b      	lsls	r3, r3, #25
10018d86:	f100 8643 	bmi.w	10019a10 <_vfiprintf_r+0xf58>
10018d8a:	9807      	ldr	r0, [sp, #28]
10018d8c:	b047      	add	sp, #284	@ 0x11c
10018d8e:	e8bd 8ff0 	ldmia.w	sp!, {r4, r5, r6, r7, r8, r9, sl, fp, pc}
10018d92:	9406      	str	r4, [sp, #24]
10018d94:	2a00      	cmp	r2, #0
10018d96:	d0c9      	beq.n	10018d2c <_vfiprintf_r+0x274>
10018d98:	2300      	movs	r3, #0
10018d9a:	f88d 304b 	strb.w	r3, [sp, #75]	@ 0x4b
10018d9e:	2301      	movs	r3, #1
10018da0:	f88d 20b4 	strb.w	r2, [sp, #180]	@ 0xb4
10018da4:	9304      	str	r3, [sp, #16]
10018da6:	9309      	str	r3, [sp, #36]	@ 0x24
10018da8:	ac2d      	add	r4, sp, #180	@ 0xb4
10018daa:	2300      	movs	r3, #0
10018dac:	930b      	str	r3, [sp, #44]	@ 0x2c
10018dae:	9305      	str	r3, [sp, #20]
10018db0:	9b02      	ldr	r3, [sp, #8]
10018db2:	f013 0302 	ands.w	r3, r3, #2
10018db6:	d002      	beq.n	10018dbe <_vfiprintf_r+0x306>
10018db8:	9a04      	ldr	r2, [sp, #16]
10018dba:	3202      	adds	r2, #2
10018dbc:	9204      	str	r2, [sp, #16]
10018dbe:	e9dd 2c1b 	ldrd	r2, ip, [sp, #108]	@ 0x6c
10018dc2:	9d02      	ldr	r5, [sp, #8]
10018dc4:	1c50      	adds	r0, r2, #1
10018dc6:	f015 0584 	ands.w	r5, r5, #132	@ 0x84
10018dca:	4601      	mov	r1, r0
10018dcc:	950c      	str	r5, [sp, #48]	@ 0x30
10018dce:	d105      	bne.n	10018ddc <_vfiprintf_r+0x324>
10018dd0:	9d08      	ldr	r5, [sp, #32]
10018dd2:	9e04      	ldr	r6, [sp, #16]
10018dd4:	1bad      	subs	r5, r5, r6
10018dd6:	2d00      	cmp	r5, #0
10018dd8:	f300 8332 	bgt.w	10019440 <_vfiprintf_r+0x988>
10018ddc:	f89d 004b 	ldrb.w	r0, [sp, #75]	@ 0x4b
10018de0:	b188      	cbz	r0, 10018e06 <_vfiprintf_r+0x34e>
10018de2:	2201      	movs	r2, #1
10018de4:	f10c 0c01 	add.w	ip, ip, #1
10018de8:	f8c9 2004 	str.w	r2, [r9, #4]
10018dec:	2907      	cmp	r1, #7
10018dee:	f10d 024b 	add.w	r2, sp, #75	@ 0x4b
10018df2:	e9cd 1c1b 	strd	r1, ip, [sp, #108]	@ 0x6c
10018df6:	f8c9 2000 	str.w	r2, [r9]
10018dfa:	f300 82e1 	bgt.w	100193c0 <_vfiprintf_r+0x908>
10018dfe:	460a      	mov	r2, r1
10018e00:	f109 0908 	add.w	r9, r9, #8
10018e04:	3101      	adds	r1, #1
10018e06:	b1eb      	cbz	r3, 10018e44 <_vfiprintf_r+0x38c>
10018e08:	ab13      	add	r3, sp, #76	@ 0x4c
10018e0a:	f10c 0c02 	add.w	ip, ip, #2
10018e0e:	f8c9 3000 	str.w	r3, [r9]
10018e12:	2907      	cmp	r1, #7
10018e14:	f04f 0302 	mov.w	r3, #2
10018e18:	e9cd 1c1b 	strd	r1, ip, [sp, #108]	@ 0x6c
10018e1c:	f8c9 3004 	str.w	r3, [r9, #4]
10018e20:	f340 82ec 	ble.w	100193fc <_vfiprintf_r+0x944>
10018e24:	f1bc 0f00 	cmp.w	ip, #0
10018e28:	f000 83db 	beq.w	100195e2 <_vfiprintf_r+0xb2a>
10018e2c:	9903      	ldr	r1, [sp, #12]
10018e2e:	aa1a      	add	r2, sp, #104	@ 0x68
10018e30:	4658      	mov	r0, fp
10018e32:	f7ff fdf9 	bl	10018a28 <__sprint_r.part.0>
10018e36:	2800      	cmp	r0, #0
10018e38:	d196      	bne.n	10018d68 <_vfiprintf_r+0x2b0>
10018e3a:	e9dd 2c1b 	ldrd	r2, ip, [sp, #108]	@ 0x6c
10018e3e:	f10d 0974 	add.w	r9, sp, #116	@ 0x74
10018e42:	1c51      	adds	r1, r2, #1
10018e44:	9b0c      	ldr	r3, [sp, #48]	@ 0x30
10018e46:	2b80      	cmp	r3, #128	@ 0x80
10018e48:	f000 8213 	beq.w	10019272 <_vfiprintf_r+0x7ba>
10018e4c:	9b05      	ldr	r3, [sp, #20]
10018e4e:	9809      	ldr	r0, [sp, #36]	@ 0x24
10018e50:	1a1d      	subs	r5, r3, r0
10018e52:	2d00      	cmp	r5, #0
10018e54:	f300 8268 	bgt.w	10019328 <_vfiprintf_r+0x870>
10018e58:	9a09      	ldr	r2, [sp, #36]	@ 0x24
10018e5a:	f8c9 4000 	str.w	r4, [r9]
10018e5e:	eb02 030c 	add.w	r3, r2, ip
10018e62:	2907      	cmp	r1, #7
10018e64:	e9cd 131b 	strd	r1, r3, [sp, #108]	@ 0x6c
10018e68:	f8c9 2004 	str.w	r2, [r9, #4]
10018e6c:	f340 81fe 	ble.w	1001926c <_vfiprintf_r+0x7b4>
10018e70:	2b00      	cmp	r3, #0
10018e72:	f000 832c 	beq.w	100194ce <_vfiprintf_r+0xa16>
10018e76:	9903      	ldr	r1, [sp, #12]
10018e78:	aa1a      	add	r2, sp, #104	@ 0x68
10018e7a:	4658      	mov	r0, fp
10018e7c:	f7ff fdd4 	bl	10018a28 <__sprint_r.part.0>
10018e80:	2800      	cmp	r0, #0
10018e82:	f47f af71 	bne.w	10018d68 <_vfiprintf_r+0x2b0>
10018e86:	9b1c      	ldr	r3, [sp, #112]	@ 0x70
10018e88:	f10d 0974 	add.w	r9, sp, #116	@ 0x74
10018e8c:	9a02      	ldr	r2, [sp, #8]
10018e8e:	0750      	lsls	r0, r2, #29
10018e90:	d505      	bpl.n	10018e9e <_vfiprintf_r+0x3e6>
10018e92:	9a08      	ldr	r2, [sp, #32]
10018e94:	9904      	ldr	r1, [sp, #16]
10018e96:	1a54      	subs	r4, r2, r1
10018e98:	2c00      	cmp	r4, #0
10018e9a:	f300 8323 	bgt.w	100194e4 <_vfiprintf_r+0xa2c>
10018e9e:	e9dd 2107 	ldrd	r2, r1, [sp, #28]
10018ea2:	9804      	ldr	r0, [sp, #16]
10018ea4:	4281      	cmp	r1, r0
10018ea6:	bfac      	ite	ge
10018ea8:	1852      	addge	r2, r2, r1
10018eaa:	1812      	addlt	r2, r2, r0
10018eac:	9207      	str	r2, [sp, #28]
10018eae:	2b00      	cmp	r3, #0
10018eb0:	f47f af52 	bne.w	10018d58 <_vfiprintf_r+0x2a0>
10018eb4:	2300      	movs	r3, #0
10018eb6:	931b      	str	r3, [sp, #108]	@ 0x6c
10018eb8:	9b0b      	ldr	r3, [sp, #44]	@ 0x2c
10018eba:	b11b      	cbz	r3, 10018ec4 <_vfiprintf_r+0x40c>
10018ebc:	4619      	mov	r1, r3
10018ebe:	4658      	mov	r0, fp
10018ec0:	f7fd fbc0 	bl	10016644 <_free_r>
10018ec4:	f10d 0974 	add.w	r9, sp, #116	@ 0x74
10018ec8:	e639      	b.n	10018b3e <_vfiprintf_r+0x86>
10018eca:	059a      	lsls	r2, r3, #22
10018ecc:	f53f af5a 	bmi.w	10018d84 <_vfiprintf_r+0x2cc>
10018ed0:	9c03      	ldr	r4, [sp, #12]
10018ed2:	6da0      	ldr	r0, [r4, #88]	@ 0x58
10018ed4:	f7fb fdc6 	bl	10014a64 <__retarget_lock_release_recursive>
10018ed8:	f9b4 300c 	ldrsh.w	r3, [r4, #12]
10018edc:	e752      	b.n	10018d84 <_vfiprintf_r+0x2cc>
10018ede:	9e0a      	ldr	r6, [sp, #40]	@ 0x28
10018ee0:	9406      	str	r4, [sp, #24]
10018ee2:	f856 4b04 	ldr.w	r4, [r6], #4
10018ee6:	2300      	movs	r3, #0
10018ee8:	f88d 304b 	strb.w	r3, [sp, #75]	@ 0x4b
10018eec:	2c00      	cmp	r4, #0
10018eee:	f000 84c9 	beq.w	10019884 <_vfiprintf_r+0xdcc>
10018ef2:	2a53      	cmp	r2, #83	@ 0x53
10018ef4:	f000 8422 	beq.w	1001973c <_vfiprintf_r+0xc84>
10018ef8:	9b02      	ldr	r3, [sp, #8]
10018efa:	f013 0510 	ands.w	r5, r3, #16
10018efe:	f040 841d 	bne.w	1001973c <_vfiprintf_r+0xc84>
10018f02:	9b05      	ldr	r3, [sp, #20]
10018f04:	1c5a      	adds	r2, r3, #1
10018f06:	f000 854e 	beq.w	100199a6 <_vfiprintf_r+0xeee>
10018f0a:	461a      	mov	r2, r3
10018f0c:	4629      	mov	r1, r5
10018f0e:	4620      	mov	r0, r4
10018f10:	f7fd f806 	bl	10015f20 <memchr>
10018f14:	900b      	str	r0, [sp, #44]	@ 0x2c
10018f16:	2800      	cmp	r0, #0
10018f18:	f000 853e 	beq.w	10019998 <_vfiprintf_r+0xee0>
10018f1c:	1b03      	subs	r3, r0, r4
10018f1e:	9309      	str	r3, [sp, #36]	@ 0x24
10018f20:	ea23 73e3 	bic.w	r3, r3, r3, asr #31
10018f24:	9505      	str	r5, [sp, #20]
10018f26:	960a      	str	r6, [sp, #40]	@ 0x28
10018f28:	9304      	str	r3, [sp, #16]
10018f2a:	950b      	str	r5, [sp, #44]	@ 0x2c
10018f2c:	e18d      	b.n	1001924a <_vfiprintf_r+0x792>
10018f2e:	9b0a      	ldr	r3, [sp, #40]	@ 0x28
10018f30:	9406      	str	r4, [sp, #24]
10018f32:	2a43      	cmp	r2, #67	@ 0x43
10018f34:	f103 0504 	add.w	r5, r3, #4
10018f38:	d003      	beq.n	10018f42 <_vfiprintf_r+0x48a>
10018f3a:	9b02      	ldr	r3, [sp, #8]
10018f3c:	06de      	lsls	r6, r3, #27
10018f3e:	f140 83e5 	bpl.w	1001970c <_vfiprintf_r+0xc54>
10018f42:	2208      	movs	r2, #8
10018f44:	2100      	movs	r1, #0
10018f46:	a818      	add	r0, sp, #96	@ 0x60
10018f48:	f7fb fcd2 	bl	100148f0 <memset>
10018f4c:	9b0a      	ldr	r3, [sp, #40]	@ 0x28
10018f4e:	ac2d      	add	r4, sp, #180	@ 0xb4
10018f50:	681a      	ldr	r2, [r3, #0]
10018f52:	4621      	mov	r1, r4
10018f54:	ab18      	add	r3, sp, #96	@ 0x60
10018f56:	4658      	mov	r0, fp
10018f58:	f7fb fd1c 	bl	10014994 <_wcrtomb_r>
10018f5c:	4603      	mov	r3, r0
10018f5e:	3301      	adds	r3, #1
10018f60:	9009      	str	r0, [sp, #36]	@ 0x24
10018f62:	f000 8541 	beq.w	100199e8 <_vfiprintf_r+0xf30>
10018f66:	9b09      	ldr	r3, [sp, #36]	@ 0x24
10018f68:	ea23 73e3 	bic.w	r3, r3, r3, asr #31
10018f6c:	9304      	str	r3, [sp, #16]
10018f6e:	2300      	movs	r3, #0
10018f70:	950a      	str	r5, [sp, #40]	@ 0x28
10018f72:	f88d 304b 	strb.w	r3, [sp, #75]	@ 0x4b
10018f76:	e718      	b.n	10018daa <_vfiprintf_r+0x2f2>
10018f78:	9b02      	ldr	r3, [sp, #8]
10018f7a:	9406      	str	r4, [sp, #24]
10018f7c:	069c      	lsls	r4, r3, #26
10018f7e:	d56d      	bpl.n	1001905c <_vfiprintf_r+0x5a4>
10018f80:	9b0a      	ldr	r3, [sp, #40]	@ 0x28
10018f82:	3307      	adds	r3, #7
10018f84:	f023 0307 	bic.w	r3, r3, #7
10018f88:	4619      	mov	r1, r3
10018f8a:	685a      	ldr	r2, [r3, #4]
10018f8c:	f851 3b08 	ldr.w	r3, [r1], #8
10018f90:	910a      	str	r1, [sp, #40]	@ 0x28
10018f92:	4611      	mov	r1, r2
10018f94:	2a00      	cmp	r2, #0
10018f96:	f2c0 8137 	blt.w	10019208 <_vfiprintf_r+0x750>
10018f9a:	9a05      	ldr	r2, [sp, #20]
10018f9c:	3201      	adds	r2, #1
10018f9e:	f000 8140 	beq.w	10019222 <_vfiprintf_r+0x76a>
10018fa2:	9a02      	ldr	r2, [sp, #8]
10018fa4:	f022 0280 	bic.w	r2, r2, #128	@ 0x80
10018fa8:	9202      	str	r2, [sp, #8]
10018faa:	ea53 0201 	orrs.w	r2, r3, r1
10018fae:	f040 8138 	bne.w	10019222 <_vfiprintf_r+0x76a>
10018fb2:	9b05      	ldr	r3, [sp, #20]
10018fb4:	2b00      	cmp	r3, #0
10018fb6:	f040 8508 	bne.w	100199ca <_vfiprintf_r+0xf12>
10018fba:	9304      	str	r3, [sp, #16]
10018fbc:	9309      	str	r3, [sp, #36]	@ 0x24
10018fbe:	ac46      	add	r4, sp, #280	@ 0x118
10018fc0:	e141      	b.n	10019246 <_vfiprintf_r+0x78e>
10018fc2:	9b0a      	ldr	r3, [sp, #40]	@ 0x28
10018fc4:	f853 2b04 	ldr.w	r2, [r3], #4
10018fc8:	9208      	str	r2, [sp, #32]
10018fca:	2a00      	cmp	r2, #0
10018fcc:	f280 8328 	bge.w	10019620 <_vfiprintf_r+0xb68>
10018fd0:	9a08      	ldr	r2, [sp, #32]
10018fd2:	930a      	str	r3, [sp, #40]	@ 0x28
10018fd4:	4252      	negs	r2, r2
10018fd6:	9208      	str	r2, [sp, #32]
10018fd8:	9b02      	ldr	r3, [sp, #8]
10018fda:	7822      	ldrb	r2, [r4, #0]
10018fdc:	f043 0304 	orr.w	r3, r3, #4
10018fe0:	9302      	str	r3, [sp, #8]
10018fe2:	e5d1      	b.n	10018b88 <_vfiprintf_r+0xd0>
10018fe4:	9b02      	ldr	r3, [sp, #8]
10018fe6:	9406      	str	r4, [sp, #24]
10018fe8:	f043 0210 	orr.w	r2, r3, #16
10018fec:	f012 0120 	ands.w	r1, r2, #32
10018ff0:	f000 82e8 	beq.w	100195c4 <_vfiprintf_r+0xb0c>
10018ff4:	9b0a      	ldr	r3, [sp, #40]	@ 0x28
10018ff6:	3307      	adds	r3, #7
10018ff8:	f023 0307 	bic.w	r3, r3, #7
10018ffc:	4618      	mov	r0, r3
10018ffe:	6859      	ldr	r1, [r3, #4]
10019000:	f850 3b08 	ldr.w	r3, [r0], #8
10019004:	900a      	str	r0, [sp, #40]	@ 0x28
10019006:	f422 6480 	bic.w	r4, r2, #1024	@ 0x400
1001900a:	9402      	str	r4, [sp, #8]
1001900c:	9c05      	ldr	r4, [sp, #20]
1001900e:	2000      	movs	r0, #0
10019010:	3401      	adds	r4, #1
10019012:	f88d 004b 	strb.w	r0, [sp, #75]	@ 0x4b
10019016:	d05d      	beq.n	100190d4 <_vfiprintf_r+0x61c>
10019018:	ea53 0401 	orrs.w	r4, r3, r1
1001901c:	f422 6290 	bic.w	r2, r2, #1152	@ 0x480
10019020:	f040 8414 	bne.w	1001984c <_vfiprintf_r+0xd94>
10019024:	9c02      	ldr	r4, [sp, #8]
10019026:	9202      	str	r2, [sp, #8]
10019028:	9b05      	ldr	r3, [sp, #20]
1001902a:	2b00      	cmp	r3, #0
1001902c:	d14a      	bne.n	100190c4 <_vfiprintf_r+0x60c>
1001902e:	2800      	cmp	r0, #0
10019030:	f040 82f1 	bne.w	10019616 <_vfiprintf_r+0xb5e>
10019034:	f014 0201 	ands.w	r2, r4, #1
10019038:	9209      	str	r2, [sp, #36]	@ 0x24
1001903a:	f000 82f5 	beq.w	10019628 <_vfiprintf_r+0xb70>
1001903e:	2330      	movs	r3, #48	@ 0x30
10019040:	f88d 3117 	strb.w	r3, [sp, #279]	@ 0x117
10019044:	9204      	str	r2, [sp, #16]
10019046:	f20d 1417 	addw	r4, sp, #279	@ 0x117
1001904a:	e0fc      	b.n	10019246 <_vfiprintf_r+0x78e>
1001904c:	9b02      	ldr	r3, [sp, #8]
1001904e:	9406      	str	r4, [sp, #24]
10019050:	f043 0310 	orr.w	r3, r3, #16
10019054:	9302      	str	r3, [sp, #8]
10019056:	9b02      	ldr	r3, [sp, #8]
10019058:	069c      	lsls	r4, r3, #26
1001905a:	d491      	bmi.n	10018f80 <_vfiprintf_r+0x4c8>
1001905c:	9a0a      	ldr	r2, [sp, #40]	@ 0x28
1001905e:	f852 3b04 	ldr.w	r3, [r2], #4
10019062:	920a      	str	r2, [sp, #40]	@ 0x28
10019064:	9a02      	ldr	r2, [sp, #8]
10019066:	06d0      	lsls	r0, r2, #27
10019068:	f100 82f3 	bmi.w	10019652 <_vfiprintf_r+0xb9a>
1001906c:	9a02      	ldr	r2, [sp, #8]
1001906e:	0651      	lsls	r1, r2, #25
10019070:	f140 82eb 	bpl.w	1001964a <_vfiprintf_r+0xb92>
10019074:	f343 31c0 	sbfx	r1, r3, #15, #1
10019078:	460a      	mov	r2, r1
1001907a:	b21b      	sxth	r3, r3
1001907c:	e78a      	b.n	10018f94 <_vfiprintf_r+0x4dc>
1001907e:	9b02      	ldr	r3, [sp, #8]
10019080:	9406      	str	r4, [sp, #24]
10019082:	f043 0410 	orr.w	r4, r3, #16
10019086:	f014 0120 	ands.w	r1, r4, #32
1001908a:	f000 828c 	beq.w	100195a6 <_vfiprintf_r+0xaee>
1001908e:	9b0a      	ldr	r3, [sp, #40]	@ 0x28
10019090:	3307      	adds	r3, #7
10019092:	f023 0307 	bic.w	r3, r3, #7
10019096:	461a      	mov	r2, r3
10019098:	6859      	ldr	r1, [r3, #4]
1001909a:	f852 3b08 	ldr.w	r3, [r2], #8
1001909e:	920a      	str	r2, [sp, #40]	@ 0x28
100190a0:	2200      	movs	r2, #0
100190a2:	f88d 204b 	strb.w	r2, [sp, #75]	@ 0x4b
100190a6:	9a05      	ldr	r2, [sp, #20]
100190a8:	3201      	adds	r2, #1
100190aa:	f000 83d1 	beq.w	10019850 <_vfiprintf_r+0xd98>
100190ae:	f024 0280 	bic.w	r2, r4, #128	@ 0x80
100190b2:	9202      	str	r2, [sp, #8]
100190b4:	ea53 0201 	orrs.w	r2, r3, r1
100190b8:	f040 80b3 	bne.w	10019222 <_vfiprintf_r+0x76a>
100190bc:	9b05      	ldr	r3, [sp, #20]
100190be:	2001      	movs	r0, #1
100190c0:	2b00      	cmp	r3, #0
100190c2:	d0b4      	beq.n	1001902e <_vfiprintf_r+0x576>
100190c4:	2801      	cmp	r0, #1
100190c6:	f000 8480 	beq.w	100199ca <_vfiprintf_r+0xf12>
100190ca:	2300      	movs	r3, #0
100190cc:	2802      	cmp	r0, #2
100190ce:	4619      	mov	r1, r3
100190d0:	f000 8199 	beq.w	10019406 <_vfiprintf_r+0x94e>
100190d4:	ac46      	add	r4, sp, #280	@ 0x118
100190d6:	f003 0207 	and.w	r2, r3, #7
100190da:	08db      	lsrs	r3, r3, #3
100190dc:	ea43 7341 	orr.w	r3, r3, r1, lsl #29
100190e0:	08c9      	lsrs	r1, r1, #3
100190e2:	3230      	adds	r2, #48	@ 0x30
100190e4:	ea53 0501 	orrs.w	r5, r3, r1
100190e8:	4620      	mov	r0, r4
100190ea:	f804 2d01 	strb.w	r2, [r4, #-1]!
100190ee:	d1f2      	bne.n	100190d6 <_vfiprintf_r+0x61e>
100190f0:	9b02      	ldr	r3, [sp, #8]
100190f2:	07dd      	lsls	r5, r3, #31
100190f4:	f140 8195 	bpl.w	10019422 <_vfiprintf_r+0x96a>
100190f8:	2a30      	cmp	r2, #48	@ 0x30
100190fa:	f000 8192 	beq.w	10019422 <_vfiprintf_r+0x96a>
100190fe:	2330      	movs	r3, #48	@ 0x30
10019100:	9a05      	ldr	r2, [sp, #20]
10019102:	f804 3c01 	strb.w	r3, [r4, #-1]
10019106:	3802      	subs	r0, #2
10019108:	ab46      	add	r3, sp, #280	@ 0x118
1001910a:	1a1b      	subs	r3, r3, r0
1001910c:	429a      	cmp	r2, r3
1001910e:	bfb8      	it	lt
10019110:	461a      	movlt	r2, r3
10019112:	9309      	str	r3, [sp, #36]	@ 0x24
10019114:	4604      	mov	r4, r0
10019116:	9204      	str	r2, [sp, #16]
10019118:	e095      	b.n	10019246 <_vfiprintf_r+0x78e>
1001911a:	7822      	ldrb	r2, [r4, #0]
1001911c:	9b02      	ldr	r3, [sp, #8]
1001911e:	2a68      	cmp	r2, #104	@ 0x68
10019120:	f000 839d 	beq.w	1001985e <_vfiprintf_r+0xda6>
10019124:	f043 0340 	orr.w	r3, r3, #64	@ 0x40
10019128:	9302      	str	r3, [sp, #8]
1001912a:	e52d      	b.n	10018b88 <_vfiprintf_r+0xd0>
1001912c:	9b02      	ldr	r3, [sp, #8]
1001912e:	9a0a      	ldr	r2, [sp, #40]	@ 0x28
10019130:	9406      	str	r4, [sp, #24]
10019132:	f043 0302 	orr.w	r3, r3, #2
10019136:	9302      	str	r3, [sp, #8]
10019138:	f852 3b04 	ldr.w	r3, [r2], #4
1001913c:	920a      	str	r2, [sp, #40]	@ 0x28
1001913e:	f647 0230 	movw	r2, #30768	@ 0x7830
10019142:	f8ad 204c 	strh.w	r2, [sp, #76]	@ 0x4c
10019146:	4abb      	ldr	r2, [pc, #748]	@ (10019434 <_vfiprintf_r+0x97c>)
10019148:	920d      	str	r2, [sp, #52]	@ 0x34
1001914a:	2100      	movs	r1, #0
1001914c:	2200      	movs	r2, #0
1001914e:	f88d 204b 	strb.w	r2, [sp, #75]	@ 0x4b
10019152:	9a05      	ldr	r2, [sp, #20]
10019154:	3201      	adds	r2, #1
10019156:	f000 8156 	beq.w	10019406 <_vfiprintf_r+0x94e>
1001915a:	9c02      	ldr	r4, [sp, #8]
1001915c:	ea53 0001 	orrs.w	r0, r3, r1
10019160:	f024 0280 	bic.w	r2, r4, #128	@ 0x80
10019164:	9202      	str	r2, [sp, #8]
10019166:	f040 814e 	bne.w	10019406 <_vfiprintf_r+0x94e>
1001916a:	2002      	movs	r0, #2
1001916c:	e75c      	b.n	10019028 <_vfiprintf_r+0x570>
1001916e:	9b02      	ldr	r3, [sp, #8]
10019170:	9406      	str	r4, [sp, #24]
10019172:	069b      	lsls	r3, r3, #26
10019174:	f140 827f 	bpl.w	10019676 <_vfiprintf_r+0xbbe>
10019178:	9b0a      	ldr	r3, [sp, #40]	@ 0x28
1001917a:	9a07      	ldr	r2, [sp, #28]
1001917c:	681b      	ldr	r3, [r3, #0]
1001917e:	601a      	str	r2, [r3, #0]
10019180:	17d2      	asrs	r2, r2, #31
10019182:	605a      	str	r2, [r3, #4]
10019184:	9b0a      	ldr	r3, [sp, #40]	@ 0x28
10019186:	3304      	adds	r3, #4
10019188:	930a      	str	r3, [sp, #40]	@ 0x28
1001918a:	e4d8      	b.n	10018b3e <_vfiprintf_r+0x86>
1001918c:	9b02      	ldr	r3, [sp, #8]
1001918e:	7822      	ldrb	r2, [r4, #0]
10019190:	f043 0301 	orr.w	r3, r3, #1
10019194:	9302      	str	r3, [sp, #8]
10019196:	e4f7      	b.n	10018b88 <_vfiprintf_r+0xd0>
10019198:	f89d 304b 	ldrb.w	r3, [sp, #75]	@ 0x4b
1001919c:	7822      	ldrb	r2, [r4, #0]
1001919e:	2b00      	cmp	r3, #0
100191a0:	f47f acf2 	bne.w	10018b88 <_vfiprintf_r+0xd0>
100191a4:	2320      	movs	r3, #32
100191a6:	f88d 304b 	strb.w	r3, [sp, #75]	@ 0x4b
100191aa:	e4ed      	b.n	10018b88 <_vfiprintf_r+0xd0>
100191ac:	9b02      	ldr	r3, [sp, #8]
100191ae:	7822      	ldrb	r2, [r4, #0]
100191b0:	f043 0380 	orr.w	r3, r3, #128	@ 0x80
100191b4:	9302      	str	r3, [sp, #8]
100191b6:	e4e7      	b.n	10018b88 <_vfiprintf_r+0xd0>
100191b8:	4621      	mov	r1, r4
100191ba:	f811 2b01 	ldrb.w	r2, [r1], #1
100191be:	2a2a      	cmp	r2, #42	@ 0x2a
100191c0:	f000 8433 	beq.w	10019a2a <_vfiprintf_r+0xf72>
100191c4:	f1a2 0330 	sub.w	r3, r2, #48	@ 0x30
100191c8:	2b09      	cmp	r3, #9
100191ca:	460c      	mov	r4, r1
100191cc:	f200 83f6 	bhi.w	100199bc <_vfiprintf_r+0xf04>
100191d0:	2200      	movs	r2, #0
100191d2:	4611      	mov	r1, r2
100191d4:	f814 2b01 	ldrb.w	r2, [r4], #1
100191d8:	eb01 0181 	add.w	r1, r1, r1, lsl #2
100191dc:	eb03 0141 	add.w	r1, r3, r1, lsl #1
100191e0:	f1a2 0330 	sub.w	r3, r2, #48	@ 0x30
100191e4:	2b09      	cmp	r3, #9
100191e6:	d9f5      	bls.n	100191d4 <_vfiprintf_r+0x71c>
100191e8:	9105      	str	r1, [sp, #20]
100191ea:	e4ce      	b.n	10018b8a <_vfiprintf_r+0xd2>
100191ec:	232b      	movs	r3, #43	@ 0x2b
100191ee:	7822      	ldrb	r2, [r4, #0]
100191f0:	f88d 304b 	strb.w	r3, [sp, #75]	@ 0x4b
100191f4:	e4c8      	b.n	10018b88 <_vfiprintf_r+0xd0>
100191f6:	7822      	ldrb	r2, [r4, #0]
100191f8:	9b02      	ldr	r3, [sp, #8]
100191fa:	2a6c      	cmp	r2, #108	@ 0x6c
100191fc:	f000 8336 	beq.w	1001986c <_vfiprintf_r+0xdb4>
10019200:	f043 0310 	orr.w	r3, r3, #16
10019204:	9302      	str	r3, [sp, #8]
10019206:	e4bf      	b.n	10018b88 <_vfiprintf_r+0xd0>
10019208:	222d      	movs	r2, #45	@ 0x2d
1001920a:	f88d 204b 	strb.w	r2, [sp, #75]	@ 0x4b
1001920e:	9a05      	ldr	r2, [sp, #20]
10019210:	425b      	negs	r3, r3
10019212:	eb61 0141 	sbc.w	r1, r1, r1, lsl #1
10019216:	3201      	adds	r2, #1
10019218:	d003      	beq.n	10019222 <_vfiprintf_r+0x76a>
1001921a:	9a02      	ldr	r2, [sp, #8]
1001921c:	f022 0280 	bic.w	r2, r2, #128	@ 0x80
10019220:	9202      	str	r2, [sp, #8]
10019222:	2b0a      	cmp	r3, #10
10019224:	f171 0200 	sbcs.w	r2, r1, #0
10019228:	f080 82bd 	bcs.w	100197a6 <_vfiprintf_r+0xcee>
1001922c:	3330      	adds	r3, #48	@ 0x30
1001922e:	b2db      	uxtb	r3, r3
10019230:	f88d 3117 	strb.w	r3, [sp, #279]	@ 0x117
10019234:	9b05      	ldr	r3, [sp, #20]
10019236:	2b01      	cmp	r3, #1
10019238:	bfb8      	it	lt
1001923a:	2301      	movlt	r3, #1
1001923c:	9304      	str	r3, [sp, #16]
1001923e:	2301      	movs	r3, #1
10019240:	9309      	str	r3, [sp, #36]	@ 0x24
10019242:	f20d 1417 	addw	r4, sp, #279	@ 0x117
10019246:	2300      	movs	r3, #0
10019248:	930b      	str	r3, [sp, #44]	@ 0x2c
1001924a:	f89d 304b 	ldrb.w	r3, [sp, #75]	@ 0x4b
1001924e:	2b00      	cmp	r3, #0
10019250:	f43f adae 	beq.w	10018db0 <_vfiprintf_r+0x2f8>
10019254:	9b04      	ldr	r3, [sp, #16]
10019256:	3301      	adds	r3, #1
10019258:	9304      	str	r3, [sp, #16]
1001925a:	e5a9      	b.n	10018db0 <_vfiprintf_r+0x2f8>
1001925c:	9b09      	ldr	r3, [sp, #36]	@ 0x24
1001925e:	941d      	str	r4, [sp, #116]	@ 0x74
10019260:	2201      	movs	r2, #1
10019262:	931e      	str	r3, [sp, #120]	@ 0x78
10019264:	931c      	str	r3, [sp, #112]	@ 0x70
10019266:	921b      	str	r2, [sp, #108]	@ 0x6c
10019268:	f10d 0974 	add.w	r9, sp, #116	@ 0x74
1001926c:	f109 0908 	add.w	r9, r9, #8
10019270:	e60c      	b.n	10018e8c <_vfiprintf_r+0x3d4>
10019272:	9b08      	ldr	r3, [sp, #32]
10019274:	9804      	ldr	r0, [sp, #16]
10019276:	1a1d      	subs	r5, r3, r0
10019278:	2d00      	cmp	r5, #0
1001927a:	f77f ade7 	ble.w	10018e4c <_vfiprintf_r+0x394>
1001927e:	2d10      	cmp	r5, #16
10019280:	f340 83cb 	ble.w	10019a1a <_vfiprintf_r+0xf62>
10019284:	f8df 81b4 	ldr.w	r8, [pc, #436]	@ 1001943c <_vfiprintf_r+0x984>
10019288:	4643      	mov	r3, r8
1001928a:	2610      	movs	r6, #16
1001928c:	46a0      	mov	r8, r4
1001928e:	4661      	mov	r1, ip
10019290:	461c      	mov	r4, r3
10019292:	e007      	b.n	100192a4 <_vfiprintf_r+0x7ec>
10019294:	f102 0c02 	add.w	ip, r2, #2
10019298:	f109 0908 	add.w	r9, r9, #8
1001929c:	4602      	mov	r2, r0
1001929e:	3d10      	subs	r5, #16
100192a0:	2d10      	cmp	r5, #16
100192a2:	dd1a      	ble.n	100192da <_vfiprintf_r+0x822>
100192a4:	1c50      	adds	r0, r2, #1
100192a6:	3110      	adds	r1, #16
100192a8:	2807      	cmp	r0, #7
100192aa:	e9c9 4600 	strd	r4, r6, [r9]
100192ae:	e9cd 011b 	strd	r0, r1, [sp, #108]	@ 0x6c
100192b2:	ddef      	ble.n	10019294 <_vfiprintf_r+0x7dc>
100192b4:	aa1a      	add	r2, sp, #104	@ 0x68
100192b6:	2900      	cmp	r1, #0
100192b8:	d07c      	beq.n	100193b4 <_vfiprintf_r+0x8fc>
100192ba:	9903      	ldr	r1, [sp, #12]
100192bc:	4658      	mov	r0, fp
100192be:	f10d 0974 	add.w	r9, sp, #116	@ 0x74
100192c2:	f7ff fbb1 	bl	10018a28 <__sprint_r.part.0>
100192c6:	2800      	cmp	r0, #0
100192c8:	f47f ad4e 	bne.w	10018d68 <_vfiprintf_r+0x2b0>
100192cc:	e9dd 211b 	ldrd	r2, r1, [sp, #108]	@ 0x6c
100192d0:	3d10      	subs	r5, #16
100192d2:	2d10      	cmp	r5, #16
100192d4:	f102 0c01 	add.w	ip, r2, #1
100192d8:	dce4      	bgt.n	100192a4 <_vfiprintf_r+0x7ec>
100192da:	4623      	mov	r3, r4
100192dc:	4660      	mov	r0, ip
100192de:	4644      	mov	r4, r8
100192e0:	468c      	mov	ip, r1
100192e2:	4698      	mov	r8, r3
100192e4:	44ac      	add	ip, r5
100192e6:	2807      	cmp	r0, #7
100192e8:	e9cd 0c1b 	strd	r0, ip, [sp, #108]	@ 0x6c
100192ec:	f8c9 8000 	str.w	r8, [r9]
100192f0:	f8c9 5004 	str.w	r5, [r9, #4]
100192f4:	f340 81a4 	ble.w	10019640 <_vfiprintf_r+0xb88>
100192f8:	f1bc 0f00 	cmp.w	ip, #0
100192fc:	f000 8327 	beq.w	1001994e <_vfiprintf_r+0xe96>
10019300:	9903      	ldr	r1, [sp, #12]
10019302:	aa1a      	add	r2, sp, #104	@ 0x68
10019304:	4658      	mov	r0, fp
10019306:	f7ff fb8f 	bl	10018a28 <__sprint_r.part.0>
1001930a:	2800      	cmp	r0, #0
1001930c:	f47f ad2c 	bne.w	10018d68 <_vfiprintf_r+0x2b0>
10019310:	9b05      	ldr	r3, [sp, #20]
10019312:	9809      	ldr	r0, [sp, #36]	@ 0x24
10019314:	e9dd 2c1b 	ldrd	r2, ip, [sp, #108]	@ 0x6c
10019318:	1a1d      	subs	r5, r3, r0
1001931a:	2d00      	cmp	r5, #0
1001931c:	f102 0101 	add.w	r1, r2, #1
10019320:	f10d 0974 	add.w	r9, sp, #116	@ 0x74
10019324:	f77f ad98 	ble.w	10018e58 <_vfiprintf_r+0x3a0>
10019328:	2d10      	cmp	r5, #16
1001932a:	f8df 8110 	ldr.w	r8, [pc, #272]	@ 1001943c <_vfiprintf_r+0x984>
1001932e:	dd2d      	ble.n	1001938c <_vfiprintf_r+0x8d4>
10019330:	462b      	mov	r3, r5
10019332:	2610      	movs	r6, #16
10019334:	4625      	mov	r5, r4
10019336:	4660      	mov	r0, ip
10019338:	461c      	mov	r4, r3
1001933a:	e007      	b.n	1001934c <_vfiprintf_r+0x894>
1001933c:	f102 0c02 	add.w	ip, r2, #2
10019340:	f109 0908 	add.w	r9, r9, #8
10019344:	460a      	mov	r2, r1
10019346:	3c10      	subs	r4, #16
10019348:	2c10      	cmp	r4, #16
1001934a:	dd1a      	ble.n	10019382 <_vfiprintf_r+0x8ca>
1001934c:	1c51      	adds	r1, r2, #1
1001934e:	4b3b      	ldr	r3, [pc, #236]	@ (1001943c <_vfiprintf_r+0x984>)
10019350:	3010      	adds	r0, #16
10019352:	2907      	cmp	r1, #7
10019354:	e9c9 3600 	strd	r3, r6, [r9]
10019358:	e9cd 101b 	strd	r1, r0, [sp, #108]	@ 0x6c
1001935c:	ddee      	ble.n	1001933c <_vfiprintf_r+0x884>
1001935e:	aa1a      	add	r2, sp, #104	@ 0x68
10019360:	b310      	cbz	r0, 100193a8 <_vfiprintf_r+0x8f0>
10019362:	9903      	ldr	r1, [sp, #12]
10019364:	4658      	mov	r0, fp
10019366:	f10d 0974 	add.w	r9, sp, #116	@ 0x74
1001936a:	f7ff fb5d 	bl	10018a28 <__sprint_r.part.0>
1001936e:	2800      	cmp	r0, #0
10019370:	f47f acfa 	bne.w	10018d68 <_vfiprintf_r+0x2b0>
10019374:	e9dd 201b 	ldrd	r2, r0, [sp, #108]	@ 0x6c
10019378:	3c10      	subs	r4, #16
1001937a:	2c10      	cmp	r4, #16
1001937c:	f102 0c01 	add.w	ip, r2, #1
10019380:	dce4      	bgt.n	1001934c <_vfiprintf_r+0x894>
10019382:	4623      	mov	r3, r4
10019384:	4661      	mov	r1, ip
10019386:	462c      	mov	r4, r5
10019388:	4684      	mov	ip, r0
1001938a:	461d      	mov	r5, r3
1001938c:	44ac      	add	ip, r5
1001938e:	2907      	cmp	r1, #7
10019390:	e9cd 1c1b 	strd	r1, ip, [sp, #108]	@ 0x6c
10019394:	f8c9 8000 	str.w	r8, [r9]
10019398:	f8c9 5004 	str.w	r5, [r9, #4]
1001939c:	f300 80ed 	bgt.w	1001957a <_vfiprintf_r+0xac2>
100193a0:	f109 0908 	add.w	r9, r9, #8
100193a4:	3101      	adds	r1, #1
100193a6:	e557      	b.n	10018e58 <_vfiprintf_r+0x3a0>
100193a8:	f04f 0c01 	mov.w	ip, #1
100193ac:	4602      	mov	r2, r0
100193ae:	f10d 0974 	add.w	r9, sp, #116	@ 0x74
100193b2:	e7c8      	b.n	10019346 <_vfiprintf_r+0x88e>
100193b4:	f04f 0c01 	mov.w	ip, #1
100193b8:	460a      	mov	r2, r1
100193ba:	f10d 0974 	add.w	r9, sp, #116	@ 0x74
100193be:	e76e      	b.n	1001929e <_vfiprintf_r+0x7e6>
100193c0:	f1bc 0f00 	cmp.w	ip, #0
100193c4:	d00f      	beq.n	100193e6 <_vfiprintf_r+0x92e>
100193c6:	9903      	ldr	r1, [sp, #12]
100193c8:	9311      	str	r3, [sp, #68]	@ 0x44
100193ca:	aa1a      	add	r2, sp, #104	@ 0x68
100193cc:	4658      	mov	r0, fp
100193ce:	f7ff fb2b 	bl	10018a28 <__sprint_r.part.0>
100193d2:	2800      	cmp	r0, #0
100193d4:	f47f acc8 	bne.w	10018d68 <_vfiprintf_r+0x2b0>
100193d8:	e9dd 2c1b 	ldrd	r2, ip, [sp, #108]	@ 0x6c
100193dc:	9b11      	ldr	r3, [sp, #68]	@ 0x44
100193de:	1c51      	adds	r1, r2, #1
100193e0:	f10d 0974 	add.w	r9, sp, #116	@ 0x74
100193e4:	e50f      	b.n	10018e06 <_vfiprintf_r+0x34e>
100193e6:	2b00      	cmp	r3, #0
100193e8:	f000 8156 	beq.w	10019698 <_vfiprintf_r+0xbe0>
100193ec:	2302      	movs	r3, #2
100193ee:	931e      	str	r3, [sp, #120]	@ 0x78
100193f0:	469c      	mov	ip, r3
100193f2:	ab13      	add	r3, sp, #76	@ 0x4c
100193f4:	931d      	str	r3, [sp, #116]	@ 0x74
100193f6:	2101      	movs	r1, #1
100193f8:	f10d 0974 	add.w	r9, sp, #116	@ 0x74
100193fc:	460a      	mov	r2, r1
100193fe:	f109 0908 	add.w	r9, r9, #8
10019402:	3101      	adds	r1, #1
10019404:	e51e      	b.n	10018e44 <_vfiprintf_r+0x38c>
10019406:	980d      	ldr	r0, [sp, #52]	@ 0x34
10019408:	ac46      	add	r4, sp, #280	@ 0x118
1001940a:	f003 020f 	and.w	r2, r3, #15
1001940e:	091b      	lsrs	r3, r3, #4
10019410:	5c82      	ldrb	r2, [r0, r2]
10019412:	f804 2d01 	strb.w	r2, [r4, #-1]!
10019416:	ea43 7301 	orr.w	r3, r3, r1, lsl #28
1001941a:	0909      	lsrs	r1, r1, #4
1001941c:	ea53 0201 	orrs.w	r2, r3, r1
10019420:	d1f3      	bne.n	1001940a <_vfiprintf_r+0x952>
10019422:	9a05      	ldr	r2, [sp, #20]
10019424:	ab46      	add	r3, sp, #280	@ 0x118
10019426:	1b1b      	subs	r3, r3, r4
10019428:	429a      	cmp	r2, r3
1001942a:	bfb8      	it	lt
1001942c:	461a      	movlt	r2, r3
1001942e:	9309      	str	r3, [sp, #36]	@ 0x24
10019430:	9204      	str	r2, [sp, #16]
10019432:	e708      	b.n	10019246 <_vfiprintf_r+0x78e>
10019434:	1001d92c 	.word	0x1001d92c
10019438:	2000045c 	.word	0x2000045c
1001943c:	1001db6c 	.word	0x1001db6c
10019440:	2d10      	cmp	r5, #16
10019442:	f340 82bf 	ble.w	100199c4 <_vfiprintf_r+0xf0c>
10019446:	4eae      	ldr	r6, [pc, #696]	@ (10019700 <_vfiprintf_r+0xc48>)
10019448:	9311      	str	r3, [sp, #68]	@ 0x44
1001944a:	4649      	mov	r1, r9
1001944c:	f04f 0810 	mov.w	r8, #16
10019450:	46a1      	mov	r9, r4
10019452:	4634      	mov	r4, r6
10019454:	4666      	mov	r6, ip
10019456:	e007      	b.n	10019468 <_vfiprintf_r+0x9b0>
10019458:	f102 0e02 	add.w	lr, r2, #2
1001945c:	3108      	adds	r1, #8
1001945e:	4602      	mov	r2, r0
10019460:	3d10      	subs	r5, #16
10019462:	2d10      	cmp	r5, #16
10019464:	dd18      	ble.n	10019498 <_vfiprintf_r+0x9e0>
10019466:	1c50      	adds	r0, r2, #1
10019468:	3610      	adds	r6, #16
1001946a:	2807      	cmp	r0, #7
1001946c:	e9c1 4800 	strd	r4, r8, [r1]
10019470:	e9cd 061b 	strd	r0, r6, [sp, #108]	@ 0x6c
10019474:	ddf0      	ble.n	10019458 <_vfiprintf_r+0x9a0>
10019476:	9903      	ldr	r1, [sp, #12]
10019478:	aa1a      	add	r2, sp, #104	@ 0x68
1001947a:	4658      	mov	r0, fp
1001947c:	b316      	cbz	r6, 100194c4 <_vfiprintf_r+0xa0c>
1001947e:	f7ff fad3 	bl	10018a28 <__sprint_r.part.0>
10019482:	2800      	cmp	r0, #0
10019484:	f47f ac70 	bne.w	10018d68 <_vfiprintf_r+0x2b0>
10019488:	e9dd 261b 	ldrd	r2, r6, [sp, #108]	@ 0x6c
1001948c:	3d10      	subs	r5, #16
1001948e:	2d10      	cmp	r5, #16
10019490:	f102 0e01 	add.w	lr, r2, #1
10019494:	a91d      	add	r1, sp, #116	@ 0x74
10019496:	dce6      	bgt.n	10019466 <_vfiprintf_r+0x9ae>
10019498:	9b11      	ldr	r3, [sp, #68]	@ 0x44
1001949a:	46b4      	mov	ip, r6
1001949c:	4626      	mov	r6, r4
1001949e:	464c      	mov	r4, r9
100194a0:	4689      	mov	r9, r1
100194a2:	44ac      	add	ip, r5
100194a4:	f1be 0f07 	cmp.w	lr, #7
100194a8:	e9cd ec1b 	strd	lr, ip, [sp, #108]	@ 0x6c
100194ac:	f8c9 6000 	str.w	r6, [r9]
100194b0:	f8c9 5004 	str.w	r5, [r9, #4]
100194b4:	f300 809a 	bgt.w	100195ec <_vfiprintf_r+0xb34>
100194b8:	f109 0908 	add.w	r9, r9, #8
100194bc:	f10e 0101 	add.w	r1, lr, #1
100194c0:	4672      	mov	r2, lr
100194c2:	e48b      	b.n	10018ddc <_vfiprintf_r+0x324>
100194c4:	4632      	mov	r2, r6
100194c6:	f04f 0e01 	mov.w	lr, #1
100194ca:	a91d      	add	r1, sp, #116	@ 0x74
100194cc:	e7c8      	b.n	10019460 <_vfiprintf_r+0x9a8>
100194ce:	9a02      	ldr	r2, [sp, #8]
100194d0:	931b      	str	r3, [sp, #108]	@ 0x6c
100194d2:	0754      	lsls	r4, r2, #29
100194d4:	d548      	bpl.n	10019568 <_vfiprintf_r+0xab0>
100194d6:	9a08      	ldr	r2, [sp, #32]
100194d8:	9904      	ldr	r1, [sp, #16]
100194da:	1a54      	subs	r4, r2, r1
100194dc:	2c00      	cmp	r4, #0
100194de:	dd43      	ble.n	10019568 <_vfiprintf_r+0xab0>
100194e0:	f10d 0974 	add.w	r9, sp, #116	@ 0x74
100194e4:	2c10      	cmp	r4, #16
100194e6:	991b      	ldr	r1, [sp, #108]	@ 0x6c
100194e8:	f340 827b 	ble.w	100199e2 <_vfiprintf_r+0xf2a>
100194ec:	4e84      	ldr	r6, [pc, #528]	@ (10019700 <_vfiprintf_r+0xc48>)
100194ee:	f8dd 800c 	ldr.w	r8, [sp, #12]
100194f2:	2510      	movs	r5, #16
100194f4:	e006      	b.n	10019504 <_vfiprintf_r+0xa4c>
100194f6:	1c88      	adds	r0, r1, #2
100194f8:	f109 0908 	add.w	r9, r9, #8
100194fc:	4611      	mov	r1, r2
100194fe:	3c10      	subs	r4, #16
10019500:	2c10      	cmp	r4, #16
10019502:	dd19      	ble.n	10019538 <_vfiprintf_r+0xa80>
10019504:	1c4a      	adds	r2, r1, #1
10019506:	3310      	adds	r3, #16
10019508:	2a07      	cmp	r2, #7
1001950a:	e9c9 6500 	strd	r6, r5, [r9]
1001950e:	e9cd 231b 	strd	r2, r3, [sp, #108]	@ 0x6c
10019512:	ddf0      	ble.n	100194f6 <_vfiprintf_r+0xa3e>
10019514:	aa1a      	add	r2, sp, #104	@ 0x68
10019516:	b313      	cbz	r3, 1001955e <_vfiprintf_r+0xaa6>
10019518:	4641      	mov	r1, r8
1001951a:	4658      	mov	r0, fp
1001951c:	f7ff fa84 	bl	10018a28 <__sprint_r.part.0>
10019520:	2800      	cmp	r0, #0
10019522:	f47f ac21 	bne.w	10018d68 <_vfiprintf_r+0x2b0>
10019526:	e9dd 131b 	ldrd	r1, r3, [sp, #108]	@ 0x6c
1001952a:	3c10      	subs	r4, #16
1001952c:	2c10      	cmp	r4, #16
1001952e:	f101 0001 	add.w	r0, r1, #1
10019532:	f10d 0974 	add.w	r9, sp, #116	@ 0x74
10019536:	dce5      	bgt.n	10019504 <_vfiprintf_r+0xa4c>
10019538:	4423      	add	r3, r4
1001953a:	2807      	cmp	r0, #7
1001953c:	e9c9 6400 	strd	r6, r4, [r9]
10019540:	e9cd 031b 	strd	r0, r3, [sp, #108]	@ 0x6c
10019544:	f77f acab 	ble.w	10018e9e <_vfiprintf_r+0x3e6>
10019548:	b173      	cbz	r3, 10019568 <_vfiprintf_r+0xab0>
1001954a:	9903      	ldr	r1, [sp, #12]
1001954c:	aa1a      	add	r2, sp, #104	@ 0x68
1001954e:	4658      	mov	r0, fp
10019550:	f7ff fa6a 	bl	10018a28 <__sprint_r.part.0>
10019554:	2800      	cmp	r0, #0
10019556:	f47f ac07 	bne.w	10018d68 <_vfiprintf_r+0x2b0>
1001955a:	9b1c      	ldr	r3, [sp, #112]	@ 0x70
1001955c:	e49f      	b.n	10018e9e <_vfiprintf_r+0x3e6>
1001955e:	2001      	movs	r0, #1
10019560:	4619      	mov	r1, r3
10019562:	f10d 0974 	add.w	r9, sp, #116	@ 0x74
10019566:	e7ca      	b.n	100194fe <_vfiprintf_r+0xa46>
10019568:	e9dd 3207 	ldrd	r3, r2, [sp, #28]
1001956c:	9904      	ldr	r1, [sp, #16]
1001956e:	428a      	cmp	r2, r1
10019570:	bfac      	ite	ge
10019572:	189b      	addge	r3, r3, r2
10019574:	185b      	addlt	r3, r3, r1
10019576:	9307      	str	r3, [sp, #28]
10019578:	e49c      	b.n	10018eb4 <_vfiprintf_r+0x3fc>
1001957a:	f1bc 0f00 	cmp.w	ip, #0
1001957e:	f43f ae6d 	beq.w	1001925c <_vfiprintf_r+0x7a4>
10019582:	9903      	ldr	r1, [sp, #12]
10019584:	aa1a      	add	r2, sp, #104	@ 0x68
10019586:	4658      	mov	r0, fp
10019588:	f7ff fa4e 	bl	10018a28 <__sprint_r.part.0>
1001958c:	2800      	cmp	r0, #0
1001958e:	f47f abeb 	bne.w	10018d68 <_vfiprintf_r+0x2b0>
10019592:	991b      	ldr	r1, [sp, #108]	@ 0x6c
10019594:	f8dd c070 	ldr.w	ip, [sp, #112]	@ 0x70
10019598:	3101      	adds	r1, #1
1001959a:	f10d 0974 	add.w	r9, sp, #116	@ 0x74
1001959e:	e45b      	b.n	10018e58 <_vfiprintf_r+0x3a0>
100195a0:	921b      	str	r2, [sp, #108]	@ 0x6c
100195a2:	f7ff bbd6 	b.w	10018d52 <_vfiprintf_r+0x29a>
100195a6:	9a0a      	ldr	r2, [sp, #40]	@ 0x28
100195a8:	f852 3b04 	ldr.w	r3, [r2], #4
100195ac:	920a      	str	r2, [sp, #40]	@ 0x28
100195ae:	f014 0210 	ands.w	r2, r4, #16
100195b2:	f47f ad75 	bne.w	100190a0 <_vfiprintf_r+0x5e8>
100195b6:	f014 0040 	ands.w	r0, r4, #64	@ 0x40
100195ba:	f000 816d 	beq.w	10019898 <_vfiprintf_r+0xde0>
100195be:	b29b      	uxth	r3, r3
100195c0:	4611      	mov	r1, r2
100195c2:	e56d      	b.n	100190a0 <_vfiprintf_r+0x5e8>
100195c4:	980a      	ldr	r0, [sp, #40]	@ 0x28
100195c6:	f850 3b04 	ldr.w	r3, [r0], #4
100195ca:	900a      	str	r0, [sp, #40]	@ 0x28
100195cc:	f012 0010 	ands.w	r0, r2, #16
100195d0:	f47f ad19 	bne.w	10019006 <_vfiprintf_r+0x54e>
100195d4:	f012 0440 	ands.w	r4, r2, #64	@ 0x40
100195d8:	f000 8166 	beq.w	100198a8 <_vfiprintf_r+0xdf0>
100195dc:	b29b      	uxth	r3, r3
100195de:	4601      	mov	r1, r0
100195e0:	e511      	b.n	10019006 <_vfiprintf_r+0x54e>
100195e2:	2101      	movs	r1, #1
100195e4:	4662      	mov	r2, ip
100195e6:	f10d 0974 	add.w	r9, sp, #116	@ 0x74
100195ea:	e42b      	b.n	10018e44 <_vfiprintf_r+0x38c>
100195ec:	f1bc 0f00 	cmp.w	ip, #0
100195f0:	f000 8095 	beq.w	1001971e <_vfiprintf_r+0xc66>
100195f4:	9903      	ldr	r1, [sp, #12]
100195f6:	9311      	str	r3, [sp, #68]	@ 0x44
100195f8:	aa1a      	add	r2, sp, #104	@ 0x68
100195fa:	4658      	mov	r0, fp
100195fc:	f7ff fa14 	bl	10018a28 <__sprint_r.part.0>
10019600:	2800      	cmp	r0, #0
10019602:	f47f abb1 	bne.w	10018d68 <_vfiprintf_r+0x2b0>
10019606:	e9dd 2c1b 	ldrd	r2, ip, [sp, #108]	@ 0x6c
1001960a:	9b11      	ldr	r3, [sp, #68]	@ 0x44
1001960c:	1c51      	adds	r1, r2, #1
1001960e:	f10d 0974 	add.w	r9, sp, #116	@ 0x74
10019612:	f7ff bbe3 	b.w	10018ddc <_vfiprintf_r+0x324>
10019616:	9b05      	ldr	r3, [sp, #20]
10019618:	9304      	str	r3, [sp, #16]
1001961a:	9309      	str	r3, [sp, #36]	@ 0x24
1001961c:	ac46      	add	r4, sp, #280	@ 0x118
1001961e:	e612      	b.n	10019246 <_vfiprintf_r+0x78e>
10019620:	7822      	ldrb	r2, [r4, #0]
10019622:	930a      	str	r3, [sp, #40]	@ 0x28
10019624:	f7ff bab0 	b.w	10018b88 <_vfiprintf_r+0xd0>
10019628:	9b05      	ldr	r3, [sp, #20]
1001962a:	9304      	str	r3, [sp, #16]
1001962c:	ac46      	add	r4, sp, #280	@ 0x118
1001962e:	e60a      	b.n	10019246 <_vfiprintf_r+0x78e>
10019630:	9d03      	ldr	r5, [sp, #12]
10019632:	6da8      	ldr	r0, [r5, #88]	@ 0x58
10019634:	f7fb fa14 	bl	10014a60 <__retarget_lock_acquire_recursive>
10019638:	f9b5 200c 	ldrsh.w	r2, [r5, #12]
1001963c:	f7ff ba5b 	b.w	10018af6 <_vfiprintf_r+0x3e>
10019640:	f109 0908 	add.w	r9, r9, #8
10019644:	1c41      	adds	r1, r0, #1
10019646:	4602      	mov	r2, r0
10019648:	e400      	b.n	10018e4c <_vfiprintf_r+0x394>
1001964a:	9a02      	ldr	r2, [sp, #8]
1001964c:	0592      	lsls	r2, r2, #22
1001964e:	f100 8184 	bmi.w	1001995a <_vfiprintf_r+0xea2>
10019652:	17d9      	asrs	r1, r3, #31
10019654:	460a      	mov	r2, r1
10019656:	e49d      	b.n	10018f94 <_vfiprintf_r+0x4dc>
10019658:	9b0e      	ldr	r3, [sp, #56]	@ 0x38
1001965a:	7822      	ldrb	r2, [r4, #0]
1001965c:	2b00      	cmp	r3, #0
1001965e:	f43f aa93 	beq.w	10018b88 <_vfiprintf_r+0xd0>
10019662:	781b      	ldrb	r3, [r3, #0]
10019664:	2b00      	cmp	r3, #0
10019666:	f43f aa8f 	beq.w	10018b88 <_vfiprintf_r+0xd0>
1001966a:	9b02      	ldr	r3, [sp, #8]
1001966c:	f443 6380 	orr.w	r3, r3, #1024	@ 0x400
10019670:	9302      	str	r3, [sp, #8]
10019672:	f7ff ba89 	b.w	10018b88 <_vfiprintf_r+0xd0>
10019676:	9b02      	ldr	r3, [sp, #8]
10019678:	06de      	lsls	r6, r3, #27
1001967a:	f100 80fe 	bmi.w	1001987a <_vfiprintf_r+0xdc2>
1001967e:	9b02      	ldr	r3, [sp, #8]
10019680:	065d      	lsls	r5, r3, #25
10019682:	f100 8176 	bmi.w	10019972 <_vfiprintf_r+0xeba>
10019686:	9b02      	ldr	r3, [sp, #8]
10019688:	059c      	lsls	r4, r3, #22
1001968a:	f140 80f6 	bpl.w	1001987a <_vfiprintf_r+0xdc2>
1001968e:	9b0a      	ldr	r3, [sp, #40]	@ 0x28
10019690:	9a07      	ldr	r2, [sp, #28]
10019692:	681b      	ldr	r3, [r3, #0]
10019694:	701a      	strb	r2, [r3, #0]
10019696:	e575      	b.n	10019184 <_vfiprintf_r+0x6cc>
10019698:	4662      	mov	r2, ip
1001969a:	2101      	movs	r1, #1
1001969c:	f10d 0974 	add.w	r9, sp, #116	@ 0x74
100196a0:	f7ff bbd0 	b.w	10018e44 <_vfiprintf_r+0x38c>
100196a4:	9406      	str	r4, [sp, #24]
100196a6:	9c02      	ldr	r4, [sp, #8]
100196a8:	e4ed      	b.n	10019086 <_vfiprintf_r+0x5ce>
100196aa:	9a02      	ldr	r2, [sp, #8]
100196ac:	9406      	str	r4, [sp, #24]
100196ae:	e49d      	b.n	10018fec <_vfiprintf_r+0x534>
100196b0:	4b14      	ldr	r3, [pc, #80]	@ (10019704 <_vfiprintf_r+0xc4c>)
100196b2:	9406      	str	r4, [sp, #24]
100196b4:	930d      	str	r3, [sp, #52]	@ 0x34
100196b6:	9b02      	ldr	r3, [sp, #8]
100196b8:	f013 0120 	ands.w	r1, r3, #32
100196bc:	d063      	beq.n	10019786 <_vfiprintf_r+0xcce>
100196be:	9b0a      	ldr	r3, [sp, #40]	@ 0x28
100196c0:	3307      	adds	r3, #7
100196c2:	f023 0307 	bic.w	r3, r3, #7
100196c6:	4618      	mov	r0, r3
100196c8:	6859      	ldr	r1, [r3, #4]
100196ca:	f850 3b08 	ldr.w	r3, [r0], #8
100196ce:	900a      	str	r0, [sp, #40]	@ 0x28
100196d0:	9c02      	ldr	r4, [sp, #8]
100196d2:	07e6      	lsls	r6, r4, #31
100196d4:	d50a      	bpl.n	100196ec <_vfiprintf_r+0xc34>
100196d6:	ea53 0001 	orrs.w	r0, r3, r1
100196da:	d007      	beq.n	100196ec <_vfiprintf_r+0xc34>
100196dc:	f88d 204d 	strb.w	r2, [sp, #77]	@ 0x4d
100196e0:	f044 0202 	orr.w	r2, r4, #2
100196e4:	9202      	str	r2, [sp, #8]
100196e6:	2230      	movs	r2, #48	@ 0x30
100196e8:	f88d 204c 	strb.w	r2, [sp, #76]	@ 0x4c
100196ec:	9a02      	ldr	r2, [sp, #8]
100196ee:	f422 6280 	bic.w	r2, r2, #1024	@ 0x400
100196f2:	9202      	str	r2, [sp, #8]
100196f4:	e52a      	b.n	1001914c <_vfiprintf_r+0x694>
100196f6:	4b04      	ldr	r3, [pc, #16]	@ (10019708 <_vfiprintf_r+0xc50>)
100196f8:	9406      	str	r4, [sp, #24]
100196fa:	930d      	str	r3, [sp, #52]	@ 0x34
100196fc:	e7db      	b.n	100196b6 <_vfiprintf_r+0xbfe>
100196fe:	bf00      	nop
10019700:	1001db7c 	.word	0x1001db7c
10019704:	1001d940 	.word	0x1001d940
10019708:	1001d92c 	.word	0x1001d92c
1001970c:	9b0a      	ldr	r3, [sp, #40]	@ 0x28
1001970e:	681b      	ldr	r3, [r3, #0]
10019710:	f88d 30b4 	strb.w	r3, [sp, #180]	@ 0xb4
10019714:	2301      	movs	r3, #1
10019716:	9304      	str	r3, [sp, #16]
10019718:	9309      	str	r3, [sp, #36]	@ 0x24
1001971a:	ac2d      	add	r4, sp, #180	@ 0xb4
1001971c:	e427      	b.n	10018f6e <_vfiprintf_r+0x4b6>
1001971e:	f89d 204b 	ldrb.w	r2, [sp, #75]	@ 0x4b
10019722:	2a00      	cmp	r2, #0
10019724:	f000 811f 	beq.w	10019966 <_vfiprintf_r+0xeae>
10019728:	2101      	movs	r1, #1
1001972a:	f10d 024b 	add.w	r2, sp, #75	@ 0x4b
1001972e:	911e      	str	r1, [sp, #120]	@ 0x78
10019730:	921d      	str	r2, [sp, #116]	@ 0x74
10019732:	f10d 0974 	add.w	r9, sp, #116	@ 0x74
10019736:	468c      	mov	ip, r1
10019738:	f7ff bb61 	b.w	10018dfe <_vfiprintf_r+0x346>
1001973c:	2208      	movs	r2, #8
1001973e:	2100      	movs	r1, #0
10019740:	a818      	add	r0, sp, #96	@ 0x60
10019742:	9415      	str	r4, [sp, #84]	@ 0x54
10019744:	f7fb f8d4 	bl	100148f0 <memset>
10019748:	9b05      	ldr	r3, [sp, #20]
1001974a:	1c58      	adds	r0, r3, #1
1001974c:	f000 80ba 	beq.w	100198c4 <_vfiprintf_r+0xe0c>
10019750:	2500      	movs	r5, #0
10019752:	9404      	str	r4, [sp, #16]
10019754:	4698      	mov	r8, r3
10019756:	462c      	mov	r4, r5
10019758:	e00c      	b.n	10019774 <_vfiprintf_r+0xcbc>
1001975a:	a92d      	add	r1, sp, #180	@ 0xb4
1001975c:	4658      	mov	r0, fp
1001975e:	f7fb f919 	bl	10014994 <_wcrtomb_r>
10019762:	1c41      	adds	r1, r0, #1
10019764:	4420      	add	r0, r4
10019766:	f000 813f 	beq.w	100199e8 <_vfiprintf_r+0xf30>
1001976a:	4540      	cmp	r0, r8
1001976c:	dc08      	bgt.n	10019780 <_vfiprintf_r+0xcc8>
1001976e:	f000 8158 	beq.w	10019a22 <_vfiprintf_r+0xf6a>
10019772:	4604      	mov	r4, r0
10019774:	9a15      	ldr	r2, [sp, #84]	@ 0x54
10019776:	5952      	ldr	r2, [r2, r5]
10019778:	ab18      	add	r3, sp, #96	@ 0x60
1001977a:	3504      	adds	r5, #4
1001977c:	2a00      	cmp	r2, #0
1001977e:	d1ec      	bne.n	1001975a <_vfiprintf_r+0xca2>
10019780:	9409      	str	r4, [sp, #36]	@ 0x24
10019782:	9c04      	ldr	r4, [sp, #16]
10019784:	e0ac      	b.n	100198e0 <_vfiprintf_r+0xe28>
10019786:	980a      	ldr	r0, [sp, #40]	@ 0x28
10019788:	f850 3b04 	ldr.w	r3, [r0], #4
1001978c:	900a      	str	r0, [sp, #40]	@ 0x28
1001978e:	9802      	ldr	r0, [sp, #8]
10019790:	f010 0010 	ands.w	r0, r0, #16
10019794:	d19c      	bne.n	100196d0 <_vfiprintf_r+0xc18>
10019796:	9902      	ldr	r1, [sp, #8]
10019798:	f011 0440 	ands.w	r4, r1, #64	@ 0x40
1001979c:	f000 808b 	beq.w	100198b6 <_vfiprintf_r+0xdfe>
100197a0:	b29b      	uxth	r3, r3
100197a2:	4601      	mov	r1, r0
100197a4:	e794      	b.n	100196d0 <_vfiprintf_r+0xc18>
100197a6:	9a02      	ldr	r2, [sp, #8]
100197a8:	f8cd 9010 	str.w	r9, [sp, #16]
100197ac:	ac46      	add	r4, sp, #280	@ 0x118
100197ae:	f402 6280 	and.w	r2, r2, #1024	@ 0x400
100197b2:	46a1      	mov	r9, r4
100197b4:	f8cd b024 	str.w	fp, [sp, #36]	@ 0x24
100197b8:	4ea5      	ldr	r6, [pc, #660]	@ (10019a50 <_vfiprintf_r+0xf98>)
100197ba:	f8dd b038 	ldr.w	fp, [sp, #56]	@ 0x38
100197be:	f04f 0c00 	mov.w	ip, #0
100197c2:	4614      	mov	r4, r2
100197c4:	e005      	b.n	100197d2 <_vfiprintf_r+0xd1a>
100197c6:	2b0a      	cmp	r3, #10
100197c8:	f171 0100 	sbcs.w	r1, r1, #0
100197cc:	d336      	bcc.n	1001983c <_vfiprintf_r+0xd84>
100197ce:	4643      	mov	r3, r8
100197d0:	4629      	mov	r1, r5
100197d2:	185a      	adds	r2, r3, r1
100197d4:	f142 0200 	adc.w	r2, r2, #0
100197d8:	fba6 0502 	umull	r0, r5, r6, r2
100197dc:	f025 0003 	bic.w	r0, r5, #3
100197e0:	eb00 0095 	add.w	r0, r0, r5, lsr #2
100197e4:	1a12      	subs	r2, r2, r0
100197e6:	1a98      	subs	r0, r3, r2
100197e8:	f04f 35cc 	mov.w	r5, #3435973836	@ 0xcccccccc
100197ec:	f161 0e00 	sbc.w	lr, r1, #0
100197f0:	fb05 f500 	mul.w	r5, r5, r0
100197f4:	fb06 550e 	mla	r5, r6, lr, r5
100197f8:	fba0 8006 	umull	r8, r0, r0, r6
100197fc:	4405      	add	r5, r0
100197fe:	f008 0e01 	and.w	lr, r8, #1
10019802:	2005      	movs	r0, #5
10019804:	fbae 0e00 	umull	r0, lr, lr, r0
10019808:	1880      	adds	r0, r0, r2
1001980a:	ea4f 0858 	mov.w	r8, r8, lsr #1
1001980e:	3030      	adds	r0, #48	@ 0x30
10019810:	f809 0c01 	strb.w	r0, [r9, #-1]
10019814:	ea48 78c5 	orr.w	r8, r8, r5, lsl #31
10019818:	f10c 0c01 	add.w	ip, ip, #1
1001981c:	f109 39ff 	add.w	r9, r9, #4294967295	@ 0xffffffff
10019820:	086d      	lsrs	r5, r5, #1
10019822:	2c00      	cmp	r4, #0
10019824:	d0cf      	beq.n	100197c6 <_vfiprintf_r+0xd0e>
10019826:	f89b 2000 	ldrb.w	r2, [fp]
1001982a:	4562      	cmp	r2, ip
1001982c:	d1cb      	bne.n	100197c6 <_vfiprintf_r+0xd0e>
1001982e:	f1bc 0fff 	cmp.w	ip, #255	@ 0xff
10019832:	d0c8      	beq.n	100197c6 <_vfiprintf_r+0xd0e>
10019834:	2b0a      	cmp	r3, #10
10019836:	f171 0100 	sbcs.w	r1, r1, #0
1001983a:	d272      	bcs.n	10019922 <_vfiprintf_r+0xe6a>
1001983c:	f8cd b038 	str.w	fp, [sp, #56]	@ 0x38
10019840:	464c      	mov	r4, r9
10019842:	f8dd b024 	ldr.w	fp, [sp, #36]	@ 0x24
10019846:	f8dd 9010 	ldr.w	r9, [sp, #16]
1001984a:	e5ea      	b.n	10019422 <_vfiprintf_r+0x96a>
1001984c:	9202      	str	r2, [sp, #8]
1001984e:	e441      	b.n	100190d4 <_vfiprintf_r+0x61c>
10019850:	9402      	str	r4, [sp, #8]
10019852:	e4e6      	b.n	10019222 <_vfiprintf_r+0x76a>
10019854:	4658      	mov	r0, fp
10019856:	f7fc fb39 	bl	10015ecc <__sinit>
1001985a:	f7ff b943 	b.w	10018ae4 <_vfiprintf_r+0x2c>
1001985e:	f443 7300 	orr.w	r3, r3, #512	@ 0x200
10019862:	7862      	ldrb	r2, [r4, #1]
10019864:	9302      	str	r3, [sp, #8]
10019866:	3401      	adds	r4, #1
10019868:	f7ff b98e 	b.w	10018b88 <_vfiprintf_r+0xd0>
1001986c:	f043 0320 	orr.w	r3, r3, #32
10019870:	7862      	ldrb	r2, [r4, #1]
10019872:	9302      	str	r3, [sp, #8]
10019874:	3401      	adds	r4, #1
10019876:	f7ff b987 	b.w	10018b88 <_vfiprintf_r+0xd0>
1001987a:	9b0a      	ldr	r3, [sp, #40]	@ 0x28
1001987c:	9a07      	ldr	r2, [sp, #28]
1001987e:	681b      	ldr	r3, [r3, #0]
10019880:	601a      	str	r2, [r3, #0]
10019882:	e47f      	b.n	10019184 <_vfiprintf_r+0x6cc>
10019884:	9b05      	ldr	r3, [sp, #20]
10019886:	4c73      	ldr	r4, [pc, #460]	@ (10019a54 <_vfiprintf_r+0xf9c>)
10019888:	2b06      	cmp	r3, #6
1001988a:	bf28      	it	cs
1001988c:	2306      	movcs	r3, #6
1001988e:	e9cd 3609 	strd	r3, r6, [sp, #36]	@ 0x24
10019892:	9304      	str	r3, [sp, #16]
10019894:	f7ff ba89 	b.w	10018daa <_vfiprintf_r+0x2f2>
10019898:	f414 7100 	ands.w	r1, r4, #512	@ 0x200
1001989c:	f43f ac00 	beq.w	100190a0 <_vfiprintf_r+0x5e8>
100198a0:	b2db      	uxtb	r3, r3
100198a2:	4601      	mov	r1, r0
100198a4:	f7ff bbfc 	b.w	100190a0 <_vfiprintf_r+0x5e8>
100198a8:	f412 7100 	ands.w	r1, r2, #512	@ 0x200
100198ac:	bf1c      	itt	ne
100198ae:	b2db      	uxtbne	r3, r3
100198b0:	4621      	movne	r1, r4
100198b2:	f7ff bba8 	b.w	10019006 <_vfiprintf_r+0x54e>
100198b6:	9902      	ldr	r1, [sp, #8]
100198b8:	f411 7100 	ands.w	r1, r1, #512	@ 0x200
100198bc:	bf1c      	itt	ne
100198be:	b2db      	uxtbne	r3, r3
100198c0:	4621      	movne	r1, r4
100198c2:	e705      	b.n	100196d0 <_vfiprintf_r+0xc18>
100198c4:	ab18      	add	r3, sp, #96	@ 0x60
100198c6:	9300      	str	r3, [sp, #0]
100198c8:	2300      	movs	r3, #0
100198ca:	4619      	mov	r1, r3
100198cc:	aa15      	add	r2, sp, #84	@ 0x54
100198ce:	4658      	mov	r0, fp
100198d0:	f7fb f9bc 	bl	10014c4c <_wcsrtombs_r>
100198d4:	4603      	mov	r3, r0
100198d6:	3301      	adds	r3, #1
100198d8:	9009      	str	r0, [sp, #36]	@ 0x24
100198da:	f000 8085 	beq.w	100199e8 <_vfiprintf_r+0xf30>
100198de:	9415      	str	r4, [sp, #84]	@ 0x54
100198e0:	9b09      	ldr	r3, [sp, #36]	@ 0x24
100198e2:	b373      	cbz	r3, 10019942 <_vfiprintf_r+0xe8a>
100198e4:	2b63      	cmp	r3, #99	@ 0x63
100198e6:	dc49      	bgt.n	1001997c <_vfiprintf_r+0xec4>
100198e8:	2300      	movs	r3, #0
100198ea:	930b      	str	r3, [sp, #44]	@ 0x2c
100198ec:	ac2d      	add	r4, sp, #180	@ 0xb4
100198ee:	2208      	movs	r2, #8
100198f0:	2100      	movs	r1, #0
100198f2:	a818      	add	r0, sp, #96	@ 0x60
100198f4:	f7fa fffc 	bl	100148f0 <memset>
100198f8:	9d09      	ldr	r5, [sp, #36]	@ 0x24
100198fa:	ab18      	add	r3, sp, #96	@ 0x60
100198fc:	9300      	str	r3, [sp, #0]
100198fe:	aa15      	add	r2, sp, #84	@ 0x54
10019900:	462b      	mov	r3, r5
10019902:	4621      	mov	r1, r4
10019904:	4658      	mov	r0, fp
10019906:	f7fb f9a1 	bl	10014c4c <_wcsrtombs_r>
1001990a:	4285      	cmp	r5, r0
1001990c:	f040 8098 	bne.w	10019a40 <_vfiprintf_r+0xf88>
10019910:	9a09      	ldr	r2, [sp, #36]	@ 0x24
10019912:	960a      	str	r6, [sp, #40]	@ 0x28
10019914:	2300      	movs	r3, #0
10019916:	54a3      	strb	r3, [r4, r2]
10019918:	9305      	str	r3, [sp, #20]
1001991a:	ea22 73e2 	bic.w	r3, r2, r2, asr #31
1001991e:	9304      	str	r3, [sp, #16]
10019920:	e493      	b.n	1001924a <_vfiprintf_r+0x792>
10019922:	9b0f      	ldr	r3, [sp, #60]	@ 0x3c
10019924:	9910      	ldr	r1, [sp, #64]	@ 0x40
10019926:	eba9 0903 	sub.w	r9, r9, r3
1001992a:	461a      	mov	r2, r3
1001992c:	4648      	mov	r0, r9
1001992e:	f7f8 fe13 	bl	10012558 <strncpy>
10019932:	f89b 3001 	ldrb.w	r3, [fp, #1]
10019936:	b10b      	cbz	r3, 1001993c <_vfiprintf_r+0xe84>
10019938:	f10b 0b01 	add.w	fp, fp, #1
1001993c:	f04f 0c00 	mov.w	ip, #0
10019940:	e745      	b.n	100197ce <_vfiprintf_r+0xd16>
10019942:	9b09      	ldr	r3, [sp, #36]	@ 0x24
10019944:	960a      	str	r6, [sp, #40]	@ 0x28
10019946:	e9cd 3304 	strd	r3, r3, [sp, #16]
1001994a:	930b      	str	r3, [sp, #44]	@ 0x2c
1001994c:	e47d      	b.n	1001924a <_vfiprintf_r+0x792>
1001994e:	2101      	movs	r1, #1
10019950:	4662      	mov	r2, ip
10019952:	f10d 0974 	add.w	r9, sp, #116	@ 0x74
10019956:	f7ff ba79 	b.w	10018e4c <_vfiprintf_r+0x394>
1001995a:	f343 11c0 	sbfx	r1, r3, #7, #1
1001995e:	460a      	mov	r2, r1
10019960:	b25b      	sxtb	r3, r3
10019962:	f7ff bb17 	b.w	10018f94 <_vfiprintf_r+0x4dc>
10019966:	4662      	mov	r2, ip
10019968:	2101      	movs	r1, #1
1001996a:	f10d 0974 	add.w	r9, sp, #116	@ 0x74
1001996e:	f7ff ba4a 	b.w	10018e06 <_vfiprintf_r+0x34e>
10019972:	9b0a      	ldr	r3, [sp, #40]	@ 0x28
10019974:	9a07      	ldr	r2, [sp, #28]
10019976:	681b      	ldr	r3, [r3, #0]
10019978:	801a      	strh	r2, [r3, #0]
1001997a:	e403      	b.n	10019184 <_vfiprintf_r+0x6cc>
1001997c:	1c59      	adds	r1, r3, #1
1001997e:	4658      	mov	r0, fp
10019980:	f7fa fc72 	bl	10014268 <_malloc_r>
10019984:	4604      	mov	r4, r0
10019986:	2800      	cmp	r0, #0
10019988:	d02e      	beq.n	100199e8 <_vfiprintf_r+0xf30>
1001998a:	900b      	str	r0, [sp, #44]	@ 0x2c
1001998c:	e7af      	b.n	100198ee <_vfiprintf_r+0xe36>
1001998e:	6d88      	ldr	r0, [r1, #88]	@ 0x58
10019990:	f7fb f868 	bl	10014a64 <__retarget_lock_release_recursive>
10019994:	f7ff b9a0 	b.w	10018cd8 <_vfiprintf_r+0x220>
10019998:	9b05      	ldr	r3, [sp, #20]
1001999a:	9304      	str	r3, [sp, #16]
1001999c:	9309      	str	r3, [sp, #36]	@ 0x24
1001999e:	9b0b      	ldr	r3, [sp, #44]	@ 0x2c
100199a0:	960a      	str	r6, [sp, #40]	@ 0x28
100199a2:	9305      	str	r3, [sp, #20]
100199a4:	e451      	b.n	1001924a <_vfiprintf_r+0x792>
100199a6:	4620      	mov	r0, r4
100199a8:	9505      	str	r5, [sp, #20]
100199aa:	960a      	str	r6, [sp, #40]	@ 0x28
100199ac:	f7fc fba8 	bl	10016100 <strlen>
100199b0:	ea20 73e0 	bic.w	r3, r0, r0, asr #31
100199b4:	9009      	str	r0, [sp, #36]	@ 0x24
100199b6:	9304      	str	r3, [sp, #16]
100199b8:	950b      	str	r5, [sp, #44]	@ 0x2c
100199ba:	e446      	b.n	1001924a <_vfiprintf_r+0x792>
100199bc:	2300      	movs	r3, #0
100199be:	9305      	str	r3, [sp, #20]
100199c0:	f7ff b8e3 	b.w	10018b8a <_vfiprintf_r+0xd2>
100199c4:	4e24      	ldr	r6, [pc, #144]	@ (10019a58 <_vfiprintf_r+0xfa0>)
100199c6:	4686      	mov	lr, r0
100199c8:	e56b      	b.n	100194a2 <_vfiprintf_r+0x9ea>
100199ca:	2330      	movs	r3, #48	@ 0x30
100199cc:	e430      	b.n	10019230 <_vfiprintf_r+0x778>
100199ce:	9903      	ldr	r1, [sp, #12]
100199d0:	aa1a      	add	r2, sp, #104	@ 0x68
100199d2:	4658      	mov	r0, fp
100199d4:	f7ff f828 	bl	10018a28 <__sprint_r.part.0>
100199d8:	2800      	cmp	r0, #0
100199da:	f43f a9ab 	beq.w	10018d34 <_vfiprintf_r+0x27c>
100199de:	f7ff b9c9 	b.w	10018d74 <_vfiprintf_r+0x2bc>
100199e2:	4e1d      	ldr	r6, [pc, #116]	@ (10019a58 <_vfiprintf_r+0xfa0>)
100199e4:	1c48      	adds	r0, r1, #1
100199e6:	e5a7      	b.n	10019538 <_vfiprintf_r+0xa80>
100199e8:	9a03      	ldr	r2, [sp, #12]
100199ea:	f9b2 300c 	ldrsh.w	r3, [r2, #12]
100199ee:	f043 0340 	orr.w	r3, r3, #64	@ 0x40
100199f2:	8193      	strh	r3, [r2, #12]
100199f4:	f7ff b9c1 	b.w	10018d7a <_vfiprintf_r+0x2c2>
100199f8:	9b03      	ldr	r3, [sp, #12]
100199fa:	6e5b      	ldr	r3, [r3, #100]	@ 0x64
100199fc:	07d9      	lsls	r1, r3, #31
100199fe:	d407      	bmi.n	10019a10 <_vfiprintf_r+0xf58>
10019a00:	9b03      	ldr	r3, [sp, #12]
10019a02:	899b      	ldrh	r3, [r3, #12]
10019a04:	059a      	lsls	r2, r3, #22
10019a06:	d403      	bmi.n	10019a10 <_vfiprintf_r+0xf58>
10019a08:	9b03      	ldr	r3, [sp, #12]
10019a0a:	6d98      	ldr	r0, [r3, #88]	@ 0x58
10019a0c:	f7fb f82a 	bl	10014a64 <__retarget_lock_release_recursive>
10019a10:	f04f 33ff 	mov.w	r3, #4294967295	@ 0xffffffff
10019a14:	9307      	str	r3, [sp, #28]
10019a16:	f7ff b9b8 	b.w	10018d8a <_vfiprintf_r+0x2d2>
10019a1a:	f8df 8040 	ldr.w	r8, [pc, #64]	@ 10019a5c <_vfiprintf_r+0xfa4>
10019a1e:	4608      	mov	r0, r1
10019a20:	e460      	b.n	100192e4 <_vfiprintf_r+0x82c>
10019a22:	e9dd 4304 	ldrd	r4, r3, [sp, #16]
10019a26:	9309      	str	r3, [sp, #36]	@ 0x24
10019a28:	e75a      	b.n	100198e0 <_vfiprintf_r+0xe28>
10019a2a:	9b0a      	ldr	r3, [sp, #40]	@ 0x28
10019a2c:	7862      	ldrb	r2, [r4, #1]
10019a2e:	460c      	mov	r4, r1
10019a30:	f853 1b04 	ldr.w	r1, [r3], #4
10019a34:	930a      	str	r3, [sp, #40]	@ 0x28
10019a36:	ea41 71e1 	orr.w	r1, r1, r1, asr #31
10019a3a:	9105      	str	r1, [sp, #20]
10019a3c:	f7ff b8a4 	b.w	10018b88 <_vfiprintf_r+0xd0>
10019a40:	9a03      	ldr	r2, [sp, #12]
10019a42:	8993      	ldrh	r3, [r2, #12]
10019a44:	f043 0340 	orr.w	r3, r3, #64	@ 0x40
10019a48:	8193      	strh	r3, [r2, #12]
10019a4a:	f7ff b98d 	b.w	10018d68 <_vfiprintf_r+0x2b0>
10019a4e:	bf00      	nop
10019a50:	cccccccd 	.word	0xcccccccd
10019a54:	1001d954 	.word	0x1001d954
10019a58:	1001db7c 	.word	0x1001db7c
10019a5c:	1001db6c 	.word	0x1001db6c

10019a60 <__sbprintf>:
10019a60:	b5f0      	push	{r4, r5, r6, r7, lr}
10019a62:	461f      	mov	r7, r3
10019a64:	898b      	ldrh	r3, [r1, #12]
10019a66:	f2ad 4d6c 	subw	sp, sp, #1132	@ 0x46c
10019a6a:	f023 0302 	bic.w	r3, r3, #2
10019a6e:	f8ad 300c 	strh.w	r3, [sp, #12]
10019a72:	6e4b      	ldr	r3, [r1, #100]	@ 0x64
10019a74:	9319      	str	r3, [sp, #100]	@ 0x64
10019a76:	89cb      	ldrh	r3, [r1, #14]
10019a78:	f8ad 300e 	strh.w	r3, [sp, #14]
10019a7c:	69cb      	ldr	r3, [r1, #28]
10019a7e:	9307      	str	r3, [sp, #28]
10019a80:	6a4b      	ldr	r3, [r1, #36]	@ 0x24
10019a82:	9309      	str	r3, [sp, #36]	@ 0x24
10019a84:	ab1a      	add	r3, sp, #104	@ 0x68
10019a86:	9300      	str	r3, [sp, #0]
10019a88:	9304      	str	r3, [sp, #16]
10019a8a:	f44f 6380 	mov.w	r3, #1024	@ 0x400
10019a8e:	4615      	mov	r5, r2
10019a90:	4606      	mov	r6, r0
10019a92:	9302      	str	r3, [sp, #8]
10019a94:	9305      	str	r3, [sp, #20]
10019a96:	a816      	add	r0, sp, #88	@ 0x58
10019a98:	2300      	movs	r3, #0
10019a9a:	460c      	mov	r4, r1
10019a9c:	9306      	str	r3, [sp, #24]
10019a9e:	f7fa ffdb 	bl	10014a58 <__retarget_lock_init_recursive>
10019aa2:	462a      	mov	r2, r5
10019aa4:	463b      	mov	r3, r7
10019aa6:	4669      	mov	r1, sp
10019aa8:	4630      	mov	r0, r6
10019aaa:	f7ff f805 	bl	10018ab8 <_vfiprintf_r>
10019aae:	1e05      	subs	r5, r0, #0
10019ab0:	db07      	blt.n	10019ac2 <__sbprintf+0x62>
10019ab2:	4669      	mov	r1, sp
10019ab4:	4630      	mov	r0, r6
10019ab6:	f7fc f93b 	bl	10015d30 <_fflush_r>
10019aba:	2800      	cmp	r0, #0
10019abc:	bf18      	it	ne
10019abe:	f04f 35ff 	movne.w	r5, #4294967295	@ 0xffffffff
10019ac2:	f8bd 300c 	ldrh.w	r3, [sp, #12]
10019ac6:	065b      	lsls	r3, r3, #25
10019ac8:	d503      	bpl.n	10019ad2 <__sbprintf+0x72>
10019aca:	89a3      	ldrh	r3, [r4, #12]
10019acc:	f043 0340 	orr.w	r3, r3, #64	@ 0x40
10019ad0:	81a3      	strh	r3, [r4, #12]
10019ad2:	9816      	ldr	r0, [sp, #88]	@ 0x58
10019ad4:	f7fa ffc2 	bl	10014a5c <__retarget_lock_close_recursive>
10019ad8:	4628      	mov	r0, r5
10019ada:	f20d 4d6c 	addw	sp, sp, #1132	@ 0x46c
10019ade:	bdf0      	pop	{r4, r5, r6, r7, pc}

10019ae0 <__register_exitproc>:
10019ae0:	e92d 43f8 	stmdb	sp!, {r3, r4, r5, r6, r7, r8, r9, lr}
10019ae4:	4d1b      	ldr	r5, [pc, #108]	@ (10019b54 <__register_exitproc+0x74>)
10019ae6:	4606      	mov	r6, r0
10019ae8:	6828      	ldr	r0, [r5, #0]
10019aea:	4698      	mov	r8, r3
10019aec:	460f      	mov	r7, r1
10019aee:	4691      	mov	r9, r2
10019af0:	f7fa ffb6 	bl	10014a60 <__retarget_lock_acquire_recursive>
10019af4:	4b18      	ldr	r3, [pc, #96]	@ (10019b58 <__register_exitproc+0x78>)
10019af6:	681c      	ldr	r4, [r3, #0]
10019af8:	b31c      	cbz	r4, 10019b42 <__register_exitproc+0x62>
10019afa:	6828      	ldr	r0, [r5, #0]
10019afc:	6865      	ldr	r5, [r4, #4]
10019afe:	2d1f      	cmp	r5, #31
10019b00:	dc22      	bgt.n	10019b48 <__register_exitproc+0x68>
10019b02:	b94e      	cbnz	r6, 10019b18 <__register_exitproc+0x38>
10019b04:	1c6b      	adds	r3, r5, #1
10019b06:	3502      	adds	r5, #2
10019b08:	6063      	str	r3, [r4, #4]
10019b0a:	f844 7025 	str.w	r7, [r4, r5, lsl #2]
10019b0e:	f7fa ffa9 	bl	10014a64 <__retarget_lock_release_recursive>
10019b12:	2000      	movs	r0, #0
10019b14:	e8bd 83f8 	ldmia.w	sp!, {r3, r4, r5, r6, r7, r8, r9, pc}
10019b18:	eb04 0185 	add.w	r1, r4, r5, lsl #2
10019b1c:	2301      	movs	r3, #1
10019b1e:	f8c1 9088 	str.w	r9, [r1, #136]	@ 0x88
10019b22:	f8d4 2188 	ldr.w	r2, [r4, #392]	@ 0x188
10019b26:	40ab      	lsls	r3, r5
10019b28:	431a      	orrs	r2, r3
10019b2a:	2e02      	cmp	r6, #2
10019b2c:	f8c4 2188 	str.w	r2, [r4, #392]	@ 0x188
10019b30:	f8c1 8108 	str.w	r8, [r1, #264]	@ 0x108
10019b34:	d1e6      	bne.n	10019b04 <__register_exitproc+0x24>
10019b36:	f8d4 218c 	ldr.w	r2, [r4, #396]	@ 0x18c
10019b3a:	431a      	orrs	r2, r3
10019b3c:	f8c4 218c 	str.w	r2, [r4, #396]	@ 0x18c
10019b40:	e7e0      	b.n	10019b04 <__register_exitproc+0x24>
10019b42:	4c06      	ldr	r4, [pc, #24]	@ (10019b5c <__register_exitproc+0x7c>)
10019b44:	601c      	str	r4, [r3, #0]
10019b46:	e7d8      	b.n	10019afa <__register_exitproc+0x1a>
10019b48:	f7fa ff8c 	bl	10014a64 <__retarget_lock_release_recursive>
10019b4c:	f04f 30ff 	mov.w	r0, #4294967295	@ 0xffffffff
10019b50:	e7e0      	b.n	10019b14 <__register_exitproc+0x34>
10019b52:	bf00      	nop
10019b54:	20000458 	.word	0x20000458
10019b58:	20001670 	.word	0x20001670
10019b5c:	200017c0 	.word	0x200017c0

10019b60 <__ascii_mbtowc>:
10019b60:	b082      	sub	sp, #8
10019b62:	b149      	cbz	r1, 10019b78 <__ascii_mbtowc+0x18>
10019b64:	b15a      	cbz	r2, 10019b7e <__ascii_mbtowc+0x1e>
10019b66:	b16b      	cbz	r3, 10019b84 <__ascii_mbtowc+0x24>
10019b68:	7813      	ldrb	r3, [r2, #0]
10019b6a:	600b      	str	r3, [r1, #0]
10019b6c:	7812      	ldrb	r2, [r2, #0]
10019b6e:	1e10      	subs	r0, r2, #0
10019b70:	bf18      	it	ne
10019b72:	2001      	movne	r0, #1
10019b74:	b002      	add	sp, #8
10019b76:	4770      	bx	lr
10019b78:	a901      	add	r1, sp, #4
10019b7a:	2a00      	cmp	r2, #0
10019b7c:	d1f3      	bne.n	10019b66 <__ascii_mbtowc+0x6>
10019b7e:	4610      	mov	r0, r2
10019b80:	b002      	add	sp, #8
10019b82:	4770      	bx	lr
10019b84:	f06f 0001 	mvn.w	r0, #1
10019b88:	e7f4      	b.n	10019b74 <__ascii_mbtowc+0x14>
10019b8a:	bf00      	nop

10019b8c <__assert_func>:
10019b8c:	b500      	push	{lr}
10019b8e:	4c0b      	ldr	r4, [pc, #44]	@ (10019bbc <__assert_func+0x30>)
10019b90:	6825      	ldr	r5, [r4, #0]
10019b92:	4614      	mov	r4, r2
10019b94:	68ee      	ldr	r6, [r5, #12]
10019b96:	461a      	mov	r2, r3
10019b98:	b085      	sub	sp, #20
10019b9a:	4603      	mov	r3, r0
10019b9c:	460d      	mov	r5, r1
10019b9e:	b14c      	cbz	r4, 10019bb4 <__assert_func+0x28>
10019ba0:	4907      	ldr	r1, [pc, #28]	@ (10019bc0 <__assert_func+0x34>)
10019ba2:	9500      	str	r5, [sp, #0]
10019ba4:	e9cd 1401 	strd	r1, r4, [sp, #4]
10019ba8:	4630      	mov	r0, r6
10019baa:	4906      	ldr	r1, [pc, #24]	@ (10019bc4 <__assert_func+0x38>)
10019bac:	f000 fd6e 	bl	1001a68c <fiprintf>
10019bb0:	f000 fe44 	bl	1001a83c <abort>
10019bb4:	4904      	ldr	r1, [pc, #16]	@ (10019bc8 <__assert_func+0x3c>)
10019bb6:	460c      	mov	r4, r1
10019bb8:	e7f3      	b.n	10019ba2 <__assert_func+0x16>
10019bba:	bf00      	nop
10019bbc:	200005c8 	.word	0x200005c8
10019bc0:	1001db8c 	.word	0x1001db8c
10019bc4:	1001db9c 	.word	0x1001db9c
10019bc8:	1001d760 	.word	0x1001d760

10019bcc <__swsetup_r>:
10019bcc:	b538      	push	{r3, r4, r5, lr}
10019bce:	4b2e      	ldr	r3, [pc, #184]	@ (10019c88 <__swsetup_r+0xbc>)
10019bd0:	681b      	ldr	r3, [r3, #0]
10019bd2:	4605      	mov	r5, r0
10019bd4:	460c      	mov	r4, r1
10019bd6:	b113      	cbz	r3, 10019bde <__swsetup_r+0x12>
10019bd8:	6b5a      	ldr	r2, [r3, #52]	@ 0x34
10019bda:	2a00      	cmp	r2, #0
10019bdc:	d04b      	beq.n	10019c76 <__swsetup_r+0xaa>
10019bde:	f9b4 300c 	ldrsh.w	r3, [r4, #12]
10019be2:	0718      	lsls	r0, r3, #28
10019be4:	d51c      	bpl.n	10019c20 <__swsetup_r+0x54>
10019be6:	6922      	ldr	r2, [r4, #16]
10019be8:	b322      	cbz	r2, 10019c34 <__swsetup_r+0x68>
10019bea:	f013 0101 	ands.w	r1, r3, #1
10019bee:	d007      	beq.n	10019c00 <__swsetup_r+0x34>
10019bf0:	6961      	ldr	r1, [r4, #20]
10019bf2:	2000      	movs	r0, #0
10019bf4:	4249      	negs	r1, r1
10019bf6:	60a0      	str	r0, [r4, #8]
10019bf8:	61a1      	str	r1, [r4, #24]
10019bfa:	b13a      	cbz	r2, 10019c0c <__swsetup_r+0x40>
10019bfc:	2000      	movs	r0, #0
10019bfe:	bd38      	pop	{r3, r4, r5, pc}
10019c00:	0798      	lsls	r0, r3, #30
10019c02:	bf58      	it	pl
10019c04:	6961      	ldrpl	r1, [r4, #20]
10019c06:	60a1      	str	r1, [r4, #8]
10019c08:	2a00      	cmp	r2, #0
10019c0a:	d1f7      	bne.n	10019bfc <__swsetup_r+0x30>
10019c0c:	0619      	lsls	r1, r3, #24
10019c0e:	bf58      	it	pl
10019c10:	4610      	movpl	r0, r2
10019c12:	d5f4      	bpl.n	10019bfe <__swsetup_r+0x32>
10019c14:	f043 0340 	orr.w	r3, r3, #64	@ 0x40
10019c18:	81a3      	strh	r3, [r4, #12]
10019c1a:	f04f 30ff 	mov.w	r0, #4294967295	@ 0xffffffff
10019c1e:	bd38      	pop	{r3, r4, r5, pc}
10019c20:	06d9      	lsls	r1, r3, #27
10019c22:	d52c      	bpl.n	10019c7e <__swsetup_r+0xb2>
10019c24:	075a      	lsls	r2, r3, #29
10019c26:	d412      	bmi.n	10019c4e <__swsetup_r+0x82>
10019c28:	6922      	ldr	r2, [r4, #16]
10019c2a:	f043 0308 	orr.w	r3, r3, #8
10019c2e:	81a3      	strh	r3, [r4, #12]
10019c30:	2a00      	cmp	r2, #0
10019c32:	d1da      	bne.n	10019bea <__swsetup_r+0x1e>
10019c34:	f403 7120 	and.w	r1, r3, #640	@ 0x280
10019c38:	f5b1 7f00 	cmp.w	r1, #512	@ 0x200
10019c3c:	d0d5      	beq.n	10019bea <__swsetup_r+0x1e>
10019c3e:	4621      	mov	r1, r4
10019c40:	4628      	mov	r0, r5
10019c42:	f000 f823 	bl	10019c8c <__smakebuf_r>
10019c46:	f9b4 300c 	ldrsh.w	r3, [r4, #12]
10019c4a:	6922      	ldr	r2, [r4, #16]
10019c4c:	e7cd      	b.n	10019bea <__swsetup_r+0x1e>
10019c4e:	6b21      	ldr	r1, [r4, #48]	@ 0x30
10019c50:	b151      	cbz	r1, 10019c68 <__swsetup_r+0x9c>
10019c52:	f104 0240 	add.w	r2, r4, #64	@ 0x40
10019c56:	4291      	cmp	r1, r2
10019c58:	d004      	beq.n	10019c64 <__swsetup_r+0x98>
10019c5a:	4628      	mov	r0, r5
10019c5c:	f7fc fcf2 	bl	10016644 <_free_r>
10019c60:	f9b4 300c 	ldrsh.w	r3, [r4, #12]
10019c64:	2200      	movs	r2, #0
10019c66:	6322      	str	r2, [r4, #48]	@ 0x30
10019c68:	6922      	ldr	r2, [r4, #16]
10019c6a:	2100      	movs	r1, #0
10019c6c:	e9c4 2100 	strd	r2, r1, [r4]
10019c70:	f023 0324 	bic.w	r3, r3, #36	@ 0x24
10019c74:	e7d9      	b.n	10019c2a <__swsetup_r+0x5e>
10019c76:	4618      	mov	r0, r3
10019c78:	f7fc f928 	bl	10015ecc <__sinit>
10019c7c:	e7af      	b.n	10019bde <__swsetup_r+0x12>
10019c7e:	2209      	movs	r2, #9
10019c80:	602a      	str	r2, [r5, #0]
10019c82:	f043 0340 	orr.w	r3, r3, #64	@ 0x40
10019c86:	e7c7      	b.n	10019c18 <__swsetup_r+0x4c>
10019c88:	200005c8 	.word	0x200005c8

10019c8c <__smakebuf_r>:
10019c8c:	e92d 41f0 	stmdb	sp!, {r4, r5, r6, r7, r8, lr}
10019c90:	f9b1 300c 	ldrsh.w	r3, [r1, #12]
10019c94:	460c      	mov	r4, r1
10019c96:	0799      	lsls	r1, r3, #30
10019c98:	b096      	sub	sp, #88	@ 0x58
10019c9a:	d508      	bpl.n	10019cae <__smakebuf_r+0x22>
10019c9c:	f104 0343 	add.w	r3, r4, #67	@ 0x43
10019ca0:	2201      	movs	r2, #1
10019ca2:	e9c4 3204 	strd	r3, r2, [r4, #16]
10019ca6:	6023      	str	r3, [r4, #0]
10019ca8:	b016      	add	sp, #88	@ 0x58
10019caa:	e8bd 81f0 	ldmia.w	sp!, {r4, r5, r6, r7, r8, pc}
10019cae:	f9b4 100e 	ldrsh.w	r1, [r4, #14]
10019cb2:	2900      	cmp	r1, #0
10019cb4:	4606      	mov	r6, r0
10019cb6:	db26      	blt.n	10019d06 <__smakebuf_r+0x7a>
10019cb8:	466a      	mov	r2, sp
10019cba:	f7fc fdc1 	bl	10016840 <_fstat_r>
10019cbe:	2800      	cmp	r0, #0
10019cc0:	db1f      	blt.n	10019d02 <__smakebuf_r+0x76>
10019cc2:	9d01      	ldr	r5, [sp, #4]
10019cc4:	f405 4570 	and.w	r5, r5, #61440	@ 0xf000
10019cc8:	f5a5 5500 	sub.w	r5, r5, #8192	@ 0x2000
10019ccc:	fab5 f585 	clz	r5, r5
10019cd0:	f44f 6880 	mov.w	r8, #1024	@ 0x400
10019cd4:	096d      	lsrs	r5, r5, #5
10019cd6:	f44f 6700 	mov.w	r7, #2048	@ 0x800
10019cda:	4641      	mov	r1, r8
10019cdc:	4630      	mov	r0, r6
10019cde:	f7fa fac3 	bl	10014268 <_malloc_r>
10019ce2:	b1e8      	cbz	r0, 10019d20 <__smakebuf_r+0x94>
10019ce4:	f9b4 300c 	ldrsh.w	r3, [r4, #12]
10019ce8:	f8c4 8014 	str.w	r8, [r4, #20]
10019cec:	f043 0380 	orr.w	r3, r3, #128	@ 0x80
10019cf0:	6020      	str	r0, [r4, #0]
10019cf2:	6120      	str	r0, [r4, #16]
10019cf4:	81a3      	strh	r3, [r4, #12]
10019cf6:	bb3d      	cbnz	r5, 10019d48 <__smakebuf_r+0xbc>
10019cf8:	433b      	orrs	r3, r7
10019cfa:	81a3      	strh	r3, [r4, #12]
10019cfc:	b016      	add	sp, #88	@ 0x58
10019cfe:	e8bd 81f0 	ldmia.w	sp!, {r4, r5, r6, r7, r8, pc}
10019d02:	f9b4 300c 	ldrsh.w	r3, [r4, #12]
10019d06:	f013 0580 	ands.w	r5, r3, #128	@ 0x80
10019d0a:	d019      	beq.n	10019d40 <__smakebuf_r+0xb4>
10019d0c:	f04f 0840 	mov.w	r8, #64	@ 0x40
10019d10:	2500      	movs	r5, #0
10019d12:	4641      	mov	r1, r8
10019d14:	4630      	mov	r0, r6
10019d16:	462f      	mov	r7, r5
10019d18:	f7fa faa6 	bl	10014268 <_malloc_r>
10019d1c:	2800      	cmp	r0, #0
10019d1e:	d1e1      	bne.n	10019ce4 <__smakebuf_r+0x58>
10019d20:	f9b4 300c 	ldrsh.w	r3, [r4, #12]
10019d24:	059a      	lsls	r2, r3, #22
10019d26:	d4bf      	bmi.n	10019ca8 <__smakebuf_r+0x1c>
10019d28:	f023 0303 	bic.w	r3, r3, #3
10019d2c:	f104 0243 	add.w	r2, r4, #67	@ 0x43
10019d30:	f043 0302 	orr.w	r3, r3, #2
10019d34:	2101      	movs	r1, #1
10019d36:	e9c4 2104 	strd	r2, r1, [r4, #16]
10019d3a:	81a3      	strh	r3, [r4, #12]
10019d3c:	6022      	str	r2, [r4, #0]
10019d3e:	e7b3      	b.n	10019ca8 <__smakebuf_r+0x1c>
10019d40:	f44f 6880 	mov.w	r8, #1024	@ 0x400
10019d44:	462f      	mov	r7, r5
10019d46:	e7c8      	b.n	10019cda <__smakebuf_r+0x4e>
10019d48:	f9b4 100e 	ldrsh.w	r1, [r4, #14]
10019d4c:	4630      	mov	r0, r6
10019d4e:	f000 fc8b 	bl	1001a668 <_isatty_r>
10019d52:	b910      	cbnz	r0, 10019d5a <__smakebuf_r+0xce>
10019d54:	f9b4 300c 	ldrsh.w	r3, [r4, #12]
10019d58:	e7ce      	b.n	10019cf8 <__smakebuf_r+0x6c>
10019d5a:	89a3      	ldrh	r3, [r4, #12]
10019d5c:	f023 0303 	bic.w	r3, r3, #3
10019d60:	f043 0301 	orr.w	r3, r3, #1
10019d64:	b21b      	sxth	r3, r3
10019d66:	e7c7      	b.n	10019cf8 <__smakebuf_r+0x6c>

10019d68 <_Balloc>:
10019d68:	6c43      	ldr	r3, [r0, #68]	@ 0x44
10019d6a:	b570      	push	{r4, r5, r6, lr}
10019d6c:	4605      	mov	r5, r0
10019d6e:	460c      	mov	r4, r1
10019d70:	b14b      	cbz	r3, 10019d86 <_Balloc+0x1e>
10019d72:	f853 0024 	ldr.w	r0, [r3, r4, lsl #2]
10019d76:	b180      	cbz	r0, 10019d9a <_Balloc+0x32>
10019d78:	6802      	ldr	r2, [r0, #0]
10019d7a:	f843 2024 	str.w	r2, [r3, r4, lsl #2]
10019d7e:	2300      	movs	r3, #0
10019d80:	60c3      	str	r3, [r0, #12]
10019d82:	6103      	str	r3, [r0, #16]
10019d84:	bd70      	pop	{r4, r5, r6, pc}
10019d86:	2221      	movs	r2, #33	@ 0x21
10019d88:	2104      	movs	r1, #4
10019d8a:	f000 fba7 	bl	1001a4dc <_calloc_r>
10019d8e:	4603      	mov	r3, r0
10019d90:	6468      	str	r0, [r5, #68]	@ 0x44
10019d92:	2800      	cmp	r0, #0
10019d94:	d1ed      	bne.n	10019d72 <_Balloc+0xa>
10019d96:	2000      	movs	r0, #0
10019d98:	bd70      	pop	{r4, r5, r6, pc}
10019d9a:	2101      	movs	r1, #1
10019d9c:	fa01 f604 	lsl.w	r6, r1, r4
10019da0:	1d72      	adds	r2, r6, #5
10019da2:	0092      	lsls	r2, r2, #2
10019da4:	4628      	mov	r0, r5
10019da6:	f000 fb99 	bl	1001a4dc <_calloc_r>
10019daa:	2800      	cmp	r0, #0
10019dac:	d0f3      	beq.n	10019d96 <_Balloc+0x2e>
10019dae:	e9c0 4601 	strd	r4, r6, [r0, #4]
10019db2:	e7e4      	b.n	10019d7e <_Balloc+0x16>

10019db4 <_Bfree>:
10019db4:	b131      	cbz	r1, 10019dc4 <_Bfree+0x10>
10019db6:	6c43      	ldr	r3, [r0, #68]	@ 0x44
10019db8:	684a      	ldr	r2, [r1, #4]
10019dba:	f853 0022 	ldr.w	r0, [r3, r2, lsl #2]
10019dbe:	6008      	str	r0, [r1, #0]
10019dc0:	f843 1022 	str.w	r1, [r3, r2, lsl #2]
10019dc4:	4770      	bx	lr
10019dc6:	bf00      	nop

10019dc8 <__multadd>:
10019dc8:	e92d 41f0 	stmdb	sp!, {r4, r5, r6, r7, r8, lr}
10019dcc:	690d      	ldr	r5, [r1, #16]
10019dce:	4607      	mov	r7, r0
10019dd0:	460e      	mov	r6, r1
10019dd2:	461c      	mov	r4, r3
10019dd4:	f101 0e14 	add.w	lr, r1, #20
10019dd8:	2000      	movs	r0, #0
10019dda:	f8de 1000 	ldr.w	r1, [lr]
10019dde:	b28b      	uxth	r3, r1
10019de0:	fb02 4303 	mla	r3, r2, r3, r4
10019de4:	ea4f 4c13 	mov.w	ip, r3, lsr #16
10019de8:	0c09      	lsrs	r1, r1, #16
10019dea:	fb02 cc01 	mla	ip, r2, r1, ip
10019dee:	3001      	adds	r0, #1
10019df0:	b29b      	uxth	r3, r3
10019df2:	eb03 430c 	add.w	r3, r3, ip, lsl #16
10019df6:	4285      	cmp	r5, r0
10019df8:	f84e 3b04 	str.w	r3, [lr], #4
10019dfc:	ea4f 441c 	mov.w	r4, ip, lsr #16
10019e00:	dceb      	bgt.n	10019dda <__multadd+0x12>
10019e02:	b13c      	cbz	r4, 10019e14 <__multadd+0x4c>
10019e04:	68b3      	ldr	r3, [r6, #8]
10019e06:	42ab      	cmp	r3, r5
10019e08:	dd07      	ble.n	10019e1a <__multadd+0x52>
10019e0a:	eb06 0385 	add.w	r3, r6, r5, lsl #2
10019e0e:	3501      	adds	r5, #1
10019e10:	615c      	str	r4, [r3, #20]
10019e12:	6135      	str	r5, [r6, #16]
10019e14:	4630      	mov	r0, r6
10019e16:	e8bd 81f0 	ldmia.w	sp!, {r4, r5, r6, r7, r8, pc}
10019e1a:	6871      	ldr	r1, [r6, #4]
10019e1c:	4638      	mov	r0, r7
10019e1e:	3101      	adds	r1, #1
10019e20:	f7ff ffa2 	bl	10019d68 <_Balloc>
10019e24:	4680      	mov	r8, r0
10019e26:	b1a8      	cbz	r0, 10019e54 <__multadd+0x8c>
10019e28:	6932      	ldr	r2, [r6, #16]
10019e2a:	3202      	adds	r2, #2
10019e2c:	f106 010c 	add.w	r1, r6, #12
10019e30:	0092      	lsls	r2, r2, #2
10019e32:	300c      	adds	r0, #12
10019e34:	f7fc f8c4 	bl	10015fc0 <memcpy>
10019e38:	6c7b      	ldr	r3, [r7, #68]	@ 0x44
10019e3a:	6872      	ldr	r2, [r6, #4]
10019e3c:	f853 1022 	ldr.w	r1, [r3, r2, lsl #2]
10019e40:	6031      	str	r1, [r6, #0]
10019e42:	f843 6022 	str.w	r6, [r3, r2, lsl #2]
10019e46:	4646      	mov	r6, r8
10019e48:	eb06 0385 	add.w	r3, r6, r5, lsl #2
10019e4c:	3501      	adds	r5, #1
10019e4e:	615c      	str	r4, [r3, #20]
10019e50:	6135      	str	r5, [r6, #16]
10019e52:	e7df      	b.n	10019e14 <__multadd+0x4c>
10019e54:	4b02      	ldr	r3, [pc, #8]	@ (10019e60 <__multadd+0x98>)
10019e56:	4803      	ldr	r0, [pc, #12]	@ (10019e64 <__multadd+0x9c>)
10019e58:	4642      	mov	r2, r8
10019e5a:	21ba      	movs	r1, #186	@ 0xba
10019e5c:	f7ff fe96 	bl	10019b8c <__assert_func>
10019e60:	1001d9d8 	.word	0x1001d9d8
10019e64:	1001dbcc 	.word	0x1001dbcc

10019e68 <__hi0bits>:
10019e68:	f5b0 3f80 	cmp.w	r0, #65536	@ 0x10000
10019e6c:	4603      	mov	r3, r0
10019e6e:	bf36      	itet	cc
10019e70:	0403      	lslcc	r3, r0, #16
10019e72:	2000      	movcs	r0, #0
10019e74:	2010      	movcc	r0, #16
10019e76:	f1b3 7f80 	cmp.w	r3, #16777216	@ 0x1000000
10019e7a:	bf3c      	itt	cc
10019e7c:	021b      	lslcc	r3, r3, #8
10019e7e:	3008      	addcc	r0, #8
10019e80:	f1b3 5f80 	cmp.w	r3, #268435456	@ 0x10000000
10019e84:	bf3c      	itt	cc
10019e86:	011b      	lslcc	r3, r3, #4
10019e88:	3004      	addcc	r0, #4
10019e8a:	f1b3 4f80 	cmp.w	r3, #1073741824	@ 0x40000000
10019e8e:	d303      	bcc.n	10019e98 <__hi0bits+0x30>
10019e90:	2b00      	cmp	r3, #0
10019e92:	db06      	blt.n	10019ea2 <__hi0bits+0x3a>
10019e94:	3001      	adds	r0, #1
10019e96:	4770      	bx	lr
10019e98:	009b      	lsls	r3, r3, #2
10019e9a:	d403      	bmi.n	10019ea4 <__hi0bits+0x3c>
10019e9c:	005b      	lsls	r3, r3, #1
10019e9e:	d403      	bmi.n	10019ea8 <__hi0bits+0x40>
10019ea0:	2020      	movs	r0, #32
10019ea2:	4770      	bx	lr
10019ea4:	3002      	adds	r0, #2
10019ea6:	4770      	bx	lr
10019ea8:	3003      	adds	r0, #3
10019eaa:	4770      	bx	lr

10019eac <__lo0bits>:
10019eac:	6803      	ldr	r3, [r0, #0]
10019eae:	f013 0207 	ands.w	r2, r3, #7
10019eb2:	4601      	mov	r1, r0
10019eb4:	d007      	beq.n	10019ec6 <__lo0bits+0x1a>
10019eb6:	07da      	lsls	r2, r3, #31
10019eb8:	d41f      	bmi.n	10019efa <__lo0bits+0x4e>
10019eba:	0798      	lsls	r0, r3, #30
10019ebc:	d521      	bpl.n	10019f02 <__lo0bits+0x56>
10019ebe:	085b      	lsrs	r3, r3, #1
10019ec0:	600b      	str	r3, [r1, #0]
10019ec2:	2001      	movs	r0, #1
10019ec4:	4770      	bx	lr
10019ec6:	b298      	uxth	r0, r3
10019ec8:	b1a0      	cbz	r0, 10019ef4 <__lo0bits+0x48>
10019eca:	4610      	mov	r0, r2
10019ecc:	b2da      	uxtb	r2, r3
10019ece:	b90a      	cbnz	r2, 10019ed4 <__lo0bits+0x28>
10019ed0:	3008      	adds	r0, #8
10019ed2:	0a1b      	lsrs	r3, r3, #8
10019ed4:	071a      	lsls	r2, r3, #28
10019ed6:	bf04      	itt	eq
10019ed8:	091b      	lsreq	r3, r3, #4
10019eda:	3004      	addeq	r0, #4
10019edc:	079a      	lsls	r2, r3, #30
10019ede:	bf04      	itt	eq
10019ee0:	089b      	lsreq	r3, r3, #2
10019ee2:	3002      	addeq	r0, #2
10019ee4:	07da      	lsls	r2, r3, #31
10019ee6:	d403      	bmi.n	10019ef0 <__lo0bits+0x44>
10019ee8:	085b      	lsrs	r3, r3, #1
10019eea:	f100 0001 	add.w	r0, r0, #1
10019eee:	d006      	beq.n	10019efe <__lo0bits+0x52>
10019ef0:	600b      	str	r3, [r1, #0]
10019ef2:	4770      	bx	lr
10019ef4:	0c1b      	lsrs	r3, r3, #16
10019ef6:	2010      	movs	r0, #16
10019ef8:	e7e8      	b.n	10019ecc <__lo0bits+0x20>
10019efa:	2000      	movs	r0, #0
10019efc:	4770      	bx	lr
10019efe:	2020      	movs	r0, #32
10019f00:	4770      	bx	lr
10019f02:	089b      	lsrs	r3, r3, #2
10019f04:	600b      	str	r3, [r1, #0]
10019f06:	2002      	movs	r0, #2
10019f08:	4770      	bx	lr
10019f0a:	bf00      	nop

10019f0c <__i2b>:
10019f0c:	b538      	push	{r3, r4, r5, lr}
10019f0e:	6c43      	ldr	r3, [r0, #68]	@ 0x44
10019f10:	4604      	mov	r4, r0
10019f12:	460d      	mov	r5, r1
10019f14:	b14b      	cbz	r3, 10019f2a <__i2b+0x1e>
10019f16:	6858      	ldr	r0, [r3, #4]
10019f18:	b1b0      	cbz	r0, 10019f48 <__i2b+0x3c>
10019f1a:	6802      	ldr	r2, [r0, #0]
10019f1c:	605a      	str	r2, [r3, #4]
10019f1e:	2200      	movs	r2, #0
10019f20:	2301      	movs	r3, #1
10019f22:	6145      	str	r5, [r0, #20]
10019f24:	60c2      	str	r2, [r0, #12]
10019f26:	6103      	str	r3, [r0, #16]
10019f28:	bd38      	pop	{r3, r4, r5, pc}
10019f2a:	2221      	movs	r2, #33	@ 0x21
10019f2c:	2104      	movs	r1, #4
10019f2e:	f000 fad5 	bl	1001a4dc <_calloc_r>
10019f32:	4603      	mov	r3, r0
10019f34:	6460      	str	r0, [r4, #68]	@ 0x44
10019f36:	2800      	cmp	r0, #0
10019f38:	d1ed      	bne.n	10019f16 <__i2b+0xa>
10019f3a:	4b09      	ldr	r3, [pc, #36]	@ (10019f60 <__i2b+0x54>)
10019f3c:	4809      	ldr	r0, [pc, #36]	@ (10019f64 <__i2b+0x58>)
10019f3e:	2200      	movs	r2, #0
10019f40:	f240 1145 	movw	r1, #325	@ 0x145
10019f44:	f7ff fe22 	bl	10019b8c <__assert_func>
10019f48:	221c      	movs	r2, #28
10019f4a:	2101      	movs	r1, #1
10019f4c:	4620      	mov	r0, r4
10019f4e:	f000 fac5 	bl	1001a4dc <_calloc_r>
10019f52:	2800      	cmp	r0, #0
10019f54:	d0f1      	beq.n	10019f3a <__i2b+0x2e>
10019f56:	2201      	movs	r2, #1
10019f58:	2302      	movs	r3, #2
10019f5a:	6042      	str	r2, [r0, #4]
10019f5c:	6083      	str	r3, [r0, #8]
10019f5e:	e7de      	b.n	10019f1e <__i2b+0x12>
10019f60:	1001d9d8 	.word	0x1001d9d8
10019f64:	1001dbcc 	.word	0x1001dbcc

10019f68 <__multiply>:
10019f68:	e92d 4ff0 	stmdb	sp!, {r4, r5, r6, r7, r8, r9, sl, fp, lr}
10019f6c:	f8d1 8010 	ldr.w	r8, [r1, #16]
10019f70:	6915      	ldr	r5, [r2, #16]
10019f72:	45a8      	cmp	r8, r5
10019f74:	b085      	sub	sp, #20
10019f76:	460e      	mov	r6, r1
10019f78:	4692      	mov	sl, r2
10019f7a:	db05      	blt.n	10019f88 <__multiply+0x20>
10019f7c:	462a      	mov	r2, r5
10019f7e:	4653      	mov	r3, sl
10019f80:	4645      	mov	r5, r8
10019f82:	468a      	mov	sl, r1
10019f84:	4690      	mov	r8, r2
10019f86:	461e      	mov	r6, r3
10019f88:	f8da 3008 	ldr.w	r3, [sl, #8]
10019f8c:	f8da 1004 	ldr.w	r1, [sl, #4]
10019f90:	eb05 0408 	add.w	r4, r5, r8
10019f94:	42a3      	cmp	r3, r4
10019f96:	bfb8      	it	lt
10019f98:	3101      	addlt	r1, #1
10019f9a:	f7ff fee5 	bl	10019d68 <_Balloc>
10019f9e:	4684      	mov	ip, r0
10019fa0:	2800      	cmp	r0, #0
10019fa2:	f000 808b 	beq.w	1001a0bc <__multiply+0x154>
10019fa6:	f100 0714 	add.w	r7, r0, #20
10019faa:	eb07 0e84 	add.w	lr, r7, r4, lsl #2
10019fae:	4577      	cmp	r7, lr
10019fb0:	d205      	bcs.n	10019fbe <__multiply+0x56>
10019fb2:	463b      	mov	r3, r7
10019fb4:	2200      	movs	r2, #0
10019fb6:	f843 2b04 	str.w	r2, [r3], #4
10019fba:	459e      	cmp	lr, r3
10019fbc:	d8fb      	bhi.n	10019fb6 <__multiply+0x4e>
10019fbe:	3614      	adds	r6, #20
10019fc0:	eb06 0888 	add.w	r8, r6, r8, lsl #2
10019fc4:	f10a 0914 	add.w	r9, sl, #20
10019fc8:	4546      	cmp	r6, r8
10019fca:	eb09 0585 	add.w	r5, r9, r5, lsl #2
10019fce:	d266      	bcs.n	1001a09e <__multiply+0x136>
10019fd0:	eba5 030a 	sub.w	r3, r5, sl
10019fd4:	3b15      	subs	r3, #21
10019fd6:	f023 0303 	bic.w	r3, r3, #3
10019fda:	f10a 0a15 	add.w	sl, sl, #21
10019fde:	3304      	adds	r3, #4
10019fe0:	4555      	cmp	r5, sl
10019fe2:	bf2c      	ite	cs
10019fe4:	469b      	movcs	fp, r3
10019fe6:	f04f 0b04 	movcc.w	fp, #4
10019fea:	f8cd e008 	str.w	lr, [sp, #8]
10019fee:	9403      	str	r4, [sp, #12]
10019ff0:	46ae      	mov	lr, r5
10019ff2:	46e2      	mov	sl, ip
10019ff4:	e005      	b.n	1001a002 <__multiply+0x9a>
10019ff6:	0c09      	lsrs	r1, r1, #16
10019ff8:	d12a      	bne.n	1001a050 <__multiply+0xe8>
10019ffa:	45b0      	cmp	r8, r6
10019ffc:	f107 0704 	add.w	r7, r7, #4
1001a000:	d94a      	bls.n	1001a098 <__multiply+0x130>
1001a002:	f856 1b04 	ldr.w	r1, [r6], #4
1001a006:	b28d      	uxth	r5, r1
1001a008:	2d00      	cmp	r5, #0
1001a00a:	d0f4      	beq.n	10019ff6 <__multiply+0x8e>
1001a00c:	46cc      	mov	ip, r9
1001a00e:	463c      	mov	r4, r7
1001a010:	2300      	movs	r3, #0
1001a012:	9601      	str	r6, [sp, #4]
1001a014:	f85c 0b04 	ldr.w	r0, [ip], #4
1001a018:	6821      	ldr	r1, [r4, #0]
1001a01a:	b286      	uxth	r6, r0
1001a01c:	b28a      	uxth	r2, r1
1001a01e:	0c00      	lsrs	r0, r0, #16
1001a020:	fb05 2206 	mla	r2, r5, r6, r2
1001a024:	0c09      	lsrs	r1, r1, #16
1001a026:	441a      	add	r2, r3
1001a028:	fb05 1100 	mla	r1, r5, r0, r1
1001a02c:	eb01 4112 	add.w	r1, r1, r2, lsr #16
1001a030:	b292      	uxth	r2, r2
1001a032:	ea42 4201 	orr.w	r2, r2, r1, lsl #16
1001a036:	45e6      	cmp	lr, ip
1001a038:	f844 2b04 	str.w	r2, [r4], #4
1001a03c:	ea4f 4311 	mov.w	r3, r1, lsr #16
1001a040:	d8e8      	bhi.n	1001a014 <__multiply+0xac>
1001a042:	9e01      	ldr	r6, [sp, #4]
1001a044:	f847 300b 	str.w	r3, [r7, fp]
1001a048:	f856 1c04 	ldr.w	r1, [r6, #-4]
1001a04c:	0c09      	lsrs	r1, r1, #16
1001a04e:	d0d4      	beq.n	10019ffa <__multiply+0x92>
1001a050:	683b      	ldr	r3, [r7, #0]
1001a052:	2200      	movs	r2, #0
1001a054:	4648      	mov	r0, r9
1001a056:	461d      	mov	r5, r3
1001a058:	463c      	mov	r4, r7
1001a05a:	4694      	mov	ip, r2
1001a05c:	8802      	ldrh	r2, [r0, #0]
1001a05e:	fb01 c202 	mla	r2, r1, r2, ip
1001a062:	eb02 4215 	add.w	r2, r2, r5, lsr #16
1001a066:	b29b      	uxth	r3, r3
1001a068:	ea43 4302 	orr.w	r3, r3, r2, lsl #16
1001a06c:	f844 3b04 	str.w	r3, [r4], #4
1001a070:	f850 3b04 	ldr.w	r3, [r0], #4
1001a074:	6825      	ldr	r5, [r4, #0]
1001a076:	ea4f 4c13 	mov.w	ip, r3, lsr #16
1001a07a:	b2ab      	uxth	r3, r5
1001a07c:	fb01 330c 	mla	r3, r1, ip, r3
1001a080:	eb03 4312 	add.w	r3, r3, r2, lsr #16
1001a084:	4586      	cmp	lr, r0
1001a086:	ea4f 4c13 	mov.w	ip, r3, lsr #16
1001a08a:	d8e7      	bhi.n	1001a05c <__multiply+0xf4>
1001a08c:	45b0      	cmp	r8, r6
1001a08e:	f847 300b 	str.w	r3, [r7, fp]
1001a092:	f107 0704 	add.w	r7, r7, #4
1001a096:	d8b4      	bhi.n	1001a002 <__multiply+0x9a>
1001a098:	e9dd e402 	ldrd	lr, r4, [sp, #8]
1001a09c:	46d4      	mov	ip, sl
1001a09e:	2c00      	cmp	r4, #0
1001a0a0:	dc02      	bgt.n	1001a0a8 <__multiply+0x140>
1001a0a2:	e005      	b.n	1001a0b0 <__multiply+0x148>
1001a0a4:	3c01      	subs	r4, #1
1001a0a6:	d003      	beq.n	1001a0b0 <__multiply+0x148>
1001a0a8:	f85e 3d04 	ldr.w	r3, [lr, #-4]!
1001a0ac:	2b00      	cmp	r3, #0
1001a0ae:	d0f9      	beq.n	1001a0a4 <__multiply+0x13c>
1001a0b0:	4660      	mov	r0, ip
1001a0b2:	f8cc 4010 	str.w	r4, [ip, #16]
1001a0b6:	b005      	add	sp, #20
1001a0b8:	e8bd 8ff0 	ldmia.w	sp!, {r4, r5, r6, r7, r8, r9, sl, fp, pc}
1001a0bc:	4b03      	ldr	r3, [pc, #12]	@ (1001a0cc <__multiply+0x164>)
1001a0be:	4804      	ldr	r0, [pc, #16]	@ (1001a0d0 <__multiply+0x168>)
1001a0c0:	4662      	mov	r2, ip
1001a0c2:	f44f 71b1 	mov.w	r1, #354	@ 0x162
1001a0c6:	f7ff fd61 	bl	10019b8c <__assert_func>
1001a0ca:	bf00      	nop
1001a0cc:	1001d9d8 	.word	0x1001d9d8
1001a0d0:	1001dbcc 	.word	0x1001dbcc

1001a0d4 <__pow5mult>:
1001a0d4:	f012 0303 	ands.w	r3, r2, #3
1001a0d8:	e92d 41f0 	stmdb	sp!, {r4, r5, r6, r7, r8, lr}
1001a0dc:	4614      	mov	r4, r2
1001a0de:	4607      	mov	r7, r0
1001a0e0:	d12c      	bne.n	1001a13c <__pow5mult+0x68>
1001a0e2:	460d      	mov	r5, r1
1001a0e4:	10a4      	asrs	r4, r4, #2
1001a0e6:	d01c      	beq.n	1001a122 <__pow5mult+0x4e>
1001a0e8:	6c3e      	ldr	r6, [r7, #64]	@ 0x40
1001a0ea:	b386      	cbz	r6, 1001a14e <__pow5mult+0x7a>
1001a0ec:	07e3      	lsls	r3, r4, #31
1001a0ee:	f04f 0800 	mov.w	r8, #0
1001a0f2:	d406      	bmi.n	1001a102 <__pow5mult+0x2e>
1001a0f4:	1064      	asrs	r4, r4, #1
1001a0f6:	d014      	beq.n	1001a122 <__pow5mult+0x4e>
1001a0f8:	6830      	ldr	r0, [r6, #0]
1001a0fa:	b1a8      	cbz	r0, 1001a128 <__pow5mult+0x54>
1001a0fc:	4606      	mov	r6, r0
1001a0fe:	07e3      	lsls	r3, r4, #31
1001a100:	d5f8      	bpl.n	1001a0f4 <__pow5mult+0x20>
1001a102:	4632      	mov	r2, r6
1001a104:	4629      	mov	r1, r5
1001a106:	4638      	mov	r0, r7
1001a108:	f7ff ff2e 	bl	10019f68 <__multiply>
1001a10c:	b135      	cbz	r5, 1001a11c <__pow5mult+0x48>
1001a10e:	6c7b      	ldr	r3, [r7, #68]	@ 0x44
1001a110:	6869      	ldr	r1, [r5, #4]
1001a112:	f853 2021 	ldr.w	r2, [r3, r1, lsl #2]
1001a116:	602a      	str	r2, [r5, #0]
1001a118:	f843 5021 	str.w	r5, [r3, r1, lsl #2]
1001a11c:	1064      	asrs	r4, r4, #1
1001a11e:	4605      	mov	r5, r0
1001a120:	d1ea      	bne.n	1001a0f8 <__pow5mult+0x24>
1001a122:	4628      	mov	r0, r5
1001a124:	e8bd 81f0 	ldmia.w	sp!, {r4, r5, r6, r7, r8, pc}
1001a128:	4632      	mov	r2, r6
1001a12a:	4631      	mov	r1, r6
1001a12c:	4638      	mov	r0, r7
1001a12e:	f7ff ff1b 	bl	10019f68 <__multiply>
1001a132:	6030      	str	r0, [r6, #0]
1001a134:	f8c0 8000 	str.w	r8, [r0]
1001a138:	4606      	mov	r6, r0
1001a13a:	e7e0      	b.n	1001a0fe <__pow5mult+0x2a>
1001a13c:	3b01      	subs	r3, #1
1001a13e:	4a0f      	ldr	r2, [pc, #60]	@ (1001a17c <__pow5mult+0xa8>)
1001a140:	f852 2023 	ldr.w	r2, [r2, r3, lsl #2]
1001a144:	2300      	movs	r3, #0
1001a146:	f7ff fe3f 	bl	10019dc8 <__multadd>
1001a14a:	4605      	mov	r5, r0
1001a14c:	e7ca      	b.n	1001a0e4 <__pow5mult+0x10>
1001a14e:	2101      	movs	r1, #1
1001a150:	4638      	mov	r0, r7
1001a152:	f7ff fe09 	bl	10019d68 <_Balloc>
1001a156:	4606      	mov	r6, r0
1001a158:	b140      	cbz	r0, 1001a16c <__pow5mult+0x98>
1001a15a:	2301      	movs	r3, #1
1001a15c:	f240 2271 	movw	r2, #625	@ 0x271
1001a160:	e9c0 3204 	strd	r3, r2, [r0, #16]
1001a164:	2300      	movs	r3, #0
1001a166:	6438      	str	r0, [r7, #64]	@ 0x40
1001a168:	6003      	str	r3, [r0, #0]
1001a16a:	e7bf      	b.n	1001a0ec <__pow5mult+0x18>
1001a16c:	4b04      	ldr	r3, [pc, #16]	@ (1001a180 <__pow5mult+0xac>)
1001a16e:	4805      	ldr	r0, [pc, #20]	@ (1001a184 <__pow5mult+0xb0>)
1001a170:	4632      	mov	r2, r6
1001a172:	f240 1145 	movw	r1, #325	@ 0x145
1001a176:	f7ff fd09 	bl	10019b8c <__assert_func>
1001a17a:	bf00      	nop
1001a17c:	1001dc28 	.word	0x1001dc28
1001a180:	1001d9d8 	.word	0x1001d9d8
1001a184:	1001dbcc 	.word	0x1001dbcc

1001a188 <__lshift>:
1001a188:	e92d 47f0 	stmdb	sp!, {r4, r5, r6, r7, r8, r9, sl, lr}
1001a18c:	460c      	mov	r4, r1
1001a18e:	4690      	mov	r8, r2
1001a190:	6927      	ldr	r7, [r4, #16]
1001a192:	68a3      	ldr	r3, [r4, #8]
1001a194:	6849      	ldr	r1, [r1, #4]
1001a196:	eb07 1762 	add.w	r7, r7, r2, asr #5
1001a19a:	1c7d      	adds	r5, r7, #1
1001a19c:	429d      	cmp	r5, r3
1001a19e:	4606      	mov	r6, r0
1001a1a0:	ea4f 1962 	mov.w	r9, r2, asr #5
1001a1a4:	dd04      	ble.n	1001a1b0 <__lshift+0x28>
1001a1a6:	005b      	lsls	r3, r3, #1
1001a1a8:	429d      	cmp	r5, r3
1001a1aa:	f101 0101 	add.w	r1, r1, #1
1001a1ae:	dcfa      	bgt.n	1001a1a6 <__lshift+0x1e>
1001a1b0:	4630      	mov	r0, r6
1001a1b2:	f7ff fdd9 	bl	10019d68 <_Balloc>
1001a1b6:	4684      	mov	ip, r0
1001a1b8:	2800      	cmp	r0, #0
1001a1ba:	d051      	beq.n	1001a260 <__lshift+0xd8>
1001a1bc:	f1b9 0f00 	cmp.w	r9, #0
1001a1c0:	f100 0014 	add.w	r0, r0, #20
1001a1c4:	dd0e      	ble.n	1001a1e4 <__lshift+0x5c>
1001a1c6:	f109 0205 	add.w	r2, r9, #5
1001a1ca:	ea4f 0e82 	mov.w	lr, r2, lsl #2
1001a1ce:	4603      	mov	r3, r0
1001a1d0:	eb0c 0282 	add.w	r2, ip, r2, lsl #2
1001a1d4:	2100      	movs	r1, #0
1001a1d6:	f843 1b04 	str.w	r1, [r3], #4
1001a1da:	4293      	cmp	r3, r2
1001a1dc:	d1fb      	bne.n	1001a1d6 <__lshift+0x4e>
1001a1de:	f1ae 0314 	sub.w	r3, lr, #20
1001a1e2:	4418      	add	r0, r3
1001a1e4:	6921      	ldr	r1, [r4, #16]
1001a1e6:	f104 0314 	add.w	r3, r4, #20
1001a1ea:	f018 081f 	ands.w	r8, r8, #31
1001a1ee:	eb03 0181 	add.w	r1, r3, r1, lsl #2
1001a1f2:	d02d      	beq.n	1001a250 <__lshift+0xc8>
1001a1f4:	f1c8 0920 	rsb	r9, r8, #32
1001a1f8:	4686      	mov	lr, r0
1001a1fa:	f04f 0a00 	mov.w	sl, #0
1001a1fe:	681a      	ldr	r2, [r3, #0]
1001a200:	fa02 f208 	lsl.w	r2, r2, r8
1001a204:	ea42 020a 	orr.w	r2, r2, sl
1001a208:	f84e 2b04 	str.w	r2, [lr], #4
1001a20c:	f853 2b04 	ldr.w	r2, [r3], #4
1001a210:	4299      	cmp	r1, r3
1001a212:	fa22 fa09 	lsr.w	sl, r2, r9
1001a216:	d8f2      	bhi.n	1001a1fe <__lshift+0x76>
1001a218:	1b0b      	subs	r3, r1, r4
1001a21a:	3b15      	subs	r3, #21
1001a21c:	f023 0303 	bic.w	r3, r3, #3
1001a220:	3304      	adds	r3, #4
1001a222:	f104 0215 	add.w	r2, r4, #21
1001a226:	4291      	cmp	r1, r2
1001a228:	bf38      	it	cc
1001a22a:	2304      	movcc	r3, #4
1001a22c:	f840 a003 	str.w	sl, [r0, r3]
1001a230:	f1ba 0f00 	cmp.w	sl, #0
1001a234:	d100      	bne.n	1001a238 <__lshift+0xb0>
1001a236:	463d      	mov	r5, r7
1001a238:	6c73      	ldr	r3, [r6, #68]	@ 0x44
1001a23a:	6862      	ldr	r2, [r4, #4]
1001a23c:	f8cc 5010 	str.w	r5, [ip, #16]
1001a240:	f853 1022 	ldr.w	r1, [r3, r2, lsl #2]
1001a244:	6021      	str	r1, [r4, #0]
1001a246:	4660      	mov	r0, ip
1001a248:	f843 4022 	str.w	r4, [r3, r2, lsl #2]
1001a24c:	e8bd 87f0 	ldmia.w	sp!, {r4, r5, r6, r7, r8, r9, sl, pc}
1001a250:	3804      	subs	r0, #4
1001a252:	f853 2b04 	ldr.w	r2, [r3], #4
1001a256:	f840 2f04 	str.w	r2, [r0, #4]!
1001a25a:	4299      	cmp	r1, r3
1001a25c:	d8f9      	bhi.n	1001a252 <__lshift+0xca>
1001a25e:	e7ea      	b.n	1001a236 <__lshift+0xae>
1001a260:	4b03      	ldr	r3, [pc, #12]	@ (1001a270 <__lshift+0xe8>)
1001a262:	4804      	ldr	r0, [pc, #16]	@ (1001a274 <__lshift+0xec>)
1001a264:	4662      	mov	r2, ip
1001a266:	f44f 71ef 	mov.w	r1, #478	@ 0x1de
1001a26a:	f7ff fc8f 	bl	10019b8c <__assert_func>
1001a26e:	bf00      	nop
1001a270:	1001d9d8 	.word	0x1001d9d8
1001a274:	1001dbcc 	.word	0x1001dbcc

1001a278 <__mcmp>:
1001a278:	690b      	ldr	r3, [r1, #16]
1001a27a:	4684      	mov	ip, r0
1001a27c:	6900      	ldr	r0, [r0, #16]
1001a27e:	1ac0      	subs	r0, r0, r3
1001a280:	d116      	bne.n	1001a2b0 <__mcmp+0x38>
1001a282:	f10c 0c14 	add.w	ip, ip, #20
1001a286:	3114      	adds	r1, #20
1001a288:	eb0c 0283 	add.w	r2, ip, r3, lsl #2
1001a28c:	b410      	push	{r4}
1001a28e:	eb01 0383 	add.w	r3, r1, r3, lsl #2
1001a292:	e001      	b.n	1001a298 <__mcmp+0x20>
1001a294:	4594      	cmp	ip, r2
1001a296:	d208      	bcs.n	1001a2aa <__mcmp+0x32>
1001a298:	f852 4d04 	ldr.w	r4, [r2, #-4]!
1001a29c:	f853 1d04 	ldr.w	r1, [r3, #-4]!
1001a2a0:	428c      	cmp	r4, r1
1001a2a2:	d0f7      	beq.n	1001a294 <__mcmp+0x1c>
1001a2a4:	d205      	bcs.n	1001a2b2 <__mcmp+0x3a>
1001a2a6:	f04f 30ff 	mov.w	r0, #4294967295	@ 0xffffffff
1001a2aa:	f85d 4b04 	ldr.w	r4, [sp], #4
1001a2ae:	4770      	bx	lr
1001a2b0:	4770      	bx	lr
1001a2b2:	2001      	movs	r0, #1
1001a2b4:	f85d 4b04 	ldr.w	r4, [sp], #4
1001a2b8:	4770      	bx	lr
1001a2ba:	bf00      	nop

1001a2bc <__mdiff>:
1001a2bc:	e92d 4ff0 	stmdb	sp!, {r4, r5, r6, r7, r8, r9, sl, fp, lr}
1001a2c0:	6913      	ldr	r3, [r2, #16]
1001a2c2:	690f      	ldr	r7, [r1, #16]
1001a2c4:	1aff      	subs	r7, r7, r3
1001a2c6:	2f00      	cmp	r7, #0
1001a2c8:	b083      	sub	sp, #12
1001a2ca:	460d      	mov	r5, r1
1001a2cc:	4690      	mov	r8, r2
1001a2ce:	d115      	bne.n	1001a2fc <__mdiff+0x40>
1001a2d0:	f101 0614 	add.w	r6, r1, #20
1001a2d4:	3214      	adds	r2, #20
1001a2d6:	eb02 0283 	add.w	r2, r2, r3, lsl #2
1001a2da:	eb06 0383 	add.w	r3, r6, r3, lsl #2
1001a2de:	e001      	b.n	1001a2e4 <__mdiff+0x28>
1001a2e0:	429e      	cmp	r6, r3
1001a2e2:	d276      	bcs.n	1001a3d2 <__mdiff+0x116>
1001a2e4:	f853 4d04 	ldr.w	r4, [r3, #-4]!
1001a2e8:	f852 1d04 	ldr.w	r1, [r2, #-4]!
1001a2ec:	428c      	cmp	r4, r1
1001a2ee:	d0f7      	beq.n	1001a2e0 <__mdiff+0x24>
1001a2f0:	d206      	bcs.n	1001a300 <__mdiff+0x44>
1001a2f2:	462b      	mov	r3, r5
1001a2f4:	2701      	movs	r7, #1
1001a2f6:	4645      	mov	r5, r8
1001a2f8:	4698      	mov	r8, r3
1001a2fa:	e001      	b.n	1001a300 <__mdiff+0x44>
1001a2fc:	dbf9      	blt.n	1001a2f2 <__mdiff+0x36>
1001a2fe:	2700      	movs	r7, #0
1001a300:	6869      	ldr	r1, [r5, #4]
1001a302:	f7ff fd31 	bl	10019d68 <_Balloc>
1001a306:	4681      	mov	r9, r0
1001a308:	2800      	cmp	r0, #0
1001a30a:	d076      	beq.n	1001a3fa <__mdiff+0x13e>
1001a30c:	692e      	ldr	r6, [r5, #16]
1001a30e:	60c7      	str	r7, [r0, #12]
1001a310:	f8d8 0010 	ldr.w	r0, [r8, #16]
1001a314:	f105 0b14 	add.w	fp, r5, #20
1001a318:	f108 0e14 	add.w	lr, r8, #20
1001a31c:	f109 0a14 	add.w	sl, r9, #20
1001a320:	f105 0110 	add.w	r1, r5, #16
1001a324:	eb0e 0080 	add.w	r0, lr, r0, lsl #2
1001a328:	eb0b 0286 	add.w	r2, fp, r6, lsl #2
1001a32c:	4657      	mov	r7, sl
1001a32e:	f04f 0c00 	mov.w	ip, #0
1001a332:	f8cd b004 	str.w	fp, [sp, #4]
1001a336:	f85e 4b04 	ldr.w	r4, [lr], #4
1001a33a:	f851 5f04 	ldr.w	r5, [r1, #4]!
1001a33e:	fa1f fb84 	uxth.w	fp, r4
1001a342:	b2ab      	uxth	r3, r5
1001a344:	eba3 030b 	sub.w	r3, r3, fp
1001a348:	0c24      	lsrs	r4, r4, #16
1001a34a:	4463      	add	r3, ip
1001a34c:	ebc4 4415 	rsb	r4, r4, r5, lsr #16
1001a350:	eb04 4423 	add.w	r4, r4, r3, asr #16
1001a354:	b29b      	uxth	r3, r3
1001a356:	ea43 4304 	orr.w	r3, r3, r4, lsl #16
1001a35a:	4570      	cmp	r0, lr
1001a35c:	f847 3b04 	str.w	r3, [r7], #4
1001a360:	ea4f 4c24 	mov.w	ip, r4, asr #16
1001a364:	d8e7      	bhi.n	1001a336 <__mdiff+0x7a>
1001a366:	eba0 0108 	sub.w	r1, r0, r8
1001a36a:	3915      	subs	r1, #21
1001a36c:	0889      	lsrs	r1, r1, #2
1001a36e:	1c4c      	adds	r4, r1, #1
1001a370:	f8dd b004 	ldr.w	fp, [sp, #4]
1001a374:	f108 0815 	add.w	r8, r8, #21
1001a378:	00a4      	lsls	r4, r4, #2
1001a37a:	4540      	cmp	r0, r8
1001a37c:	bf38      	it	cc
1001a37e:	2404      	movcc	r4, #4
1001a380:	eb0b 0504 	add.w	r5, fp, r4
1001a384:	42aa      	cmp	r2, r5
1001a386:	4454      	add	r4, sl
1001a388:	d930      	bls.n	1001a3ec <__mdiff+0x130>
1001a38a:	4627      	mov	r7, r4
1001a38c:	4628      	mov	r0, r5
1001a38e:	f850 3b04 	ldr.w	r3, [r0], #4
1001a392:	fa1c fe83 	uxtah	lr, ip, r3
1001a396:	0c19      	lsrs	r1, r3, #16
1001a398:	4463      	add	r3, ip
1001a39a:	eb01 412e 	add.w	r1, r1, lr, asr #16
1001a39e:	b29b      	uxth	r3, r3
1001a3a0:	ea43 4301 	orr.w	r3, r3, r1, lsl #16
1001a3a4:	4282      	cmp	r2, r0
1001a3a6:	f847 3b04 	str.w	r3, [r7], #4
1001a3aa:	ea4f 4c21 	mov.w	ip, r1, asr #16
1001a3ae:	d8ee      	bhi.n	1001a38e <__mdiff+0xd2>
1001a3b0:	3a01      	subs	r2, #1
1001a3b2:	1b52      	subs	r2, r2, r5
1001a3b4:	f022 0203 	bic.w	r2, r2, #3
1001a3b8:	4414      	add	r4, r2
1001a3ba:	b923      	cbnz	r3, 1001a3c6 <__mdiff+0x10a>
1001a3bc:	f854 3d04 	ldr.w	r3, [r4, #-4]!
1001a3c0:	3e01      	subs	r6, #1
1001a3c2:	2b00      	cmp	r3, #0
1001a3c4:	d0fa      	beq.n	1001a3bc <__mdiff+0x100>
1001a3c6:	4648      	mov	r0, r9
1001a3c8:	f8c9 6010 	str.w	r6, [r9, #16]
1001a3cc:	b003      	add	sp, #12
1001a3ce:	e8bd 8ff0 	ldmia.w	sp!, {r4, r5, r6, r7, r8, r9, sl, fp, pc}
1001a3d2:	2100      	movs	r1, #0
1001a3d4:	f7ff fcc8 	bl	10019d68 <_Balloc>
1001a3d8:	4681      	mov	r9, r0
1001a3da:	b1a8      	cbz	r0, 1001a408 <__mdiff+0x14c>
1001a3dc:	2201      	movs	r2, #1
1001a3de:	2300      	movs	r3, #0
1001a3e0:	e9c0 2304 	strd	r2, r3, [r0, #16]
1001a3e4:	4648      	mov	r0, r9
1001a3e6:	b003      	add	sp, #12
1001a3e8:	e8bd 8ff0 	ldmia.w	sp!, {r4, r5, r6, r7, r8, r9, sl, fp, pc}
1001a3ec:	0089      	lsls	r1, r1, #2
1001a3ee:	4540      	cmp	r0, r8
1001a3f0:	bf38      	it	cc
1001a3f2:	2100      	movcc	r1, #0
1001a3f4:	eb0a 0401 	add.w	r4, sl, r1
1001a3f8:	e7df      	b.n	1001a3ba <__mdiff+0xfe>
1001a3fa:	4b07      	ldr	r3, [pc, #28]	@ (1001a418 <__mdiff+0x15c>)
1001a3fc:	4807      	ldr	r0, [pc, #28]	@ (1001a41c <__mdiff+0x160>)
1001a3fe:	464a      	mov	r2, r9
1001a400:	f240 2145 	movw	r1, #581	@ 0x245
1001a404:	f7ff fbc2 	bl	10019b8c <__assert_func>
1001a408:	4b03      	ldr	r3, [pc, #12]	@ (1001a418 <__mdiff+0x15c>)
1001a40a:	4804      	ldr	r0, [pc, #16]	@ (1001a41c <__mdiff+0x160>)
1001a40c:	464a      	mov	r2, r9
1001a40e:	f240 2137 	movw	r1, #567	@ 0x237
1001a412:	f7ff fbbb 	bl	10019b8c <__assert_func>
1001a416:	bf00      	nop
1001a418:	1001d9d8 	.word	0x1001d9d8
1001a41c:	1001dbcc 	.word	0x1001dbcc

1001a420 <__d2b>:
1001a420:	b5f0      	push	{r4, r5, r6, r7, lr}
1001a422:	2101      	movs	r1, #1
1001a424:	b083      	sub	sp, #12
1001a426:	4616      	mov	r6, r2
1001a428:	461f      	mov	r7, r3
1001a42a:	f7ff fc9d 	bl	10019d68 <_Balloc>
1001a42e:	4605      	mov	r5, r0
1001a430:	2800      	cmp	r0, #0
1001a432:	d047      	beq.n	1001a4c4 <__d2b+0xa4>
1001a434:	f3c7 540a 	ubfx	r4, r7, #20, #11
1001a438:	f3c7 0313 	ubfx	r3, r7, #0, #20
1001a43c:	b10c      	cbz	r4, 1001a442 <__d2b+0x22>
1001a43e:	f443 1380 	orr.w	r3, r3, #1048576	@ 0x100000
1001a442:	2e00      	cmp	r6, #0
1001a444:	9301      	str	r3, [sp, #4]
1001a446:	d114      	bne.n	1001a472 <__d2b+0x52>
1001a448:	a801      	add	r0, sp, #4
1001a44a:	f7ff fd2f 	bl	10019eac <__lo0bits>
1001a44e:	9b01      	ldr	r3, [sp, #4]
1001a450:	616b      	str	r3, [r5, #20]
1001a452:	2201      	movs	r2, #1
1001a454:	3020      	adds	r0, #32
1001a456:	612a      	str	r2, [r5, #16]
1001a458:	b314      	cbz	r4, 1001a4a0 <__d2b+0x80>
1001a45a:	9b08      	ldr	r3, [sp, #32]
1001a45c:	f2a4 4433 	subw	r4, r4, #1075	@ 0x433
1001a460:	4404      	add	r4, r0
1001a462:	601c      	str	r4, [r3, #0]
1001a464:	9b09      	ldr	r3, [sp, #36]	@ 0x24
1001a466:	f1c0 0035 	rsb	r0, r0, #53	@ 0x35
1001a46a:	6018      	str	r0, [r3, #0]
1001a46c:	4628      	mov	r0, r5
1001a46e:	b003      	add	sp, #12
1001a470:	bdf0      	pop	{r4, r5, r6, r7, pc}
1001a472:	4668      	mov	r0, sp
1001a474:	9600      	str	r6, [sp, #0]
1001a476:	f7ff fd19 	bl	10019eac <__lo0bits>
1001a47a:	9b01      	ldr	r3, [sp, #4]
1001a47c:	b300      	cbz	r0, 1001a4c0 <__d2b+0xa0>
1001a47e:	9900      	ldr	r1, [sp, #0]
1001a480:	f1c0 0220 	rsb	r2, r0, #32
1001a484:	fa03 f202 	lsl.w	r2, r3, r2
1001a488:	40c3      	lsrs	r3, r0
1001a48a:	9301      	str	r3, [sp, #4]
1001a48c:	430a      	orrs	r2, r1
1001a48e:	2b00      	cmp	r3, #0
1001a490:	e9c5 2305 	strd	r2, r3, [r5, #20]
1001a494:	bf0c      	ite	eq
1001a496:	2201      	moveq	r2, #1
1001a498:	2202      	movne	r2, #2
1001a49a:	612a      	str	r2, [r5, #16]
1001a49c:	2c00      	cmp	r4, #0
1001a49e:	d1dc      	bne.n	1001a45a <__d2b+0x3a>
1001a4a0:	eb05 0182 	add.w	r1, r5, r2, lsl #2
1001a4a4:	f2a0 4332 	subw	r3, r0, #1074	@ 0x432
1001a4a8:	6908      	ldr	r0, [r1, #16]
1001a4aa:	9908      	ldr	r1, [sp, #32]
1001a4ac:	600b      	str	r3, [r1, #0]
1001a4ae:	f7ff fcdb 	bl	10019e68 <__hi0bits>
1001a4b2:	9b09      	ldr	r3, [sp, #36]	@ 0x24
1001a4b4:	ebc0 1042 	rsb	r0, r0, r2, lsl #5
1001a4b8:	6018      	str	r0, [r3, #0]
1001a4ba:	4628      	mov	r0, r5
1001a4bc:	b003      	add	sp, #12
1001a4be:	bdf0      	pop	{r4, r5, r6, r7, pc}
1001a4c0:	9a00      	ldr	r2, [sp, #0]
1001a4c2:	e7e4      	b.n	1001a48e <__d2b+0x6e>
1001a4c4:	4b03      	ldr	r3, [pc, #12]	@ (1001a4d4 <__d2b+0xb4>)
1001a4c6:	4804      	ldr	r0, [pc, #16]	@ (1001a4d8 <__d2b+0xb8>)
1001a4c8:	462a      	mov	r2, r5
1001a4ca:	f240 310f 	movw	r1, #783	@ 0x30f
1001a4ce:	f7ff fb5d 	bl	10019b8c <__assert_func>
1001a4d2:	bf00      	nop
1001a4d4:	1001d9d8 	.word	0x1001d9d8
1001a4d8:	1001dbcc 	.word	0x1001dbcc

1001a4dc <_calloc_r>:
1001a4dc:	b538      	push	{r3, r4, r5, lr}
1001a4de:	fba1 1402 	umull	r1, r4, r1, r2
1001a4e2:	bb54      	cbnz	r4, 1001a53a <_calloc_r+0x5e>
1001a4e4:	f7f9 fec0 	bl	10014268 <_malloc_r>
1001a4e8:	4605      	mov	r5, r0
1001a4ea:	b350      	cbz	r0, 1001a542 <_calloc_r+0x66>
1001a4ec:	f850 2c04 	ldr.w	r2, [r0, #-4]
1001a4f0:	f022 0203 	bic.w	r2, r2, #3
1001a4f4:	3a04      	subs	r2, #4
1001a4f6:	2a24      	cmp	r2, #36	@ 0x24
1001a4f8:	d810      	bhi.n	1001a51c <_calloc_r+0x40>
1001a4fa:	2a13      	cmp	r2, #19
1001a4fc:	d913      	bls.n	1001a526 <_calloc_r+0x4a>
1001a4fe:	2a1b      	cmp	r2, #27
1001a500:	6004      	str	r4, [r0, #0]
1001a502:	6044      	str	r4, [r0, #4]
1001a504:	d916      	bls.n	1001a534 <_calloc_r+0x58>
1001a506:	2a24      	cmp	r2, #36	@ 0x24
1001a508:	6084      	str	r4, [r0, #8]
1001a50a:	60c4      	str	r4, [r0, #12]
1001a50c:	bf11      	iteee	ne
1001a50e:	f100 0210 	addne.w	r2, r0, #16
1001a512:	f100 0218 	addeq.w	r2, r0, #24
1001a516:	6104      	streq	r4, [r0, #16]
1001a518:	6144      	streq	r4, [r0, #20]
1001a51a:	e005      	b.n	1001a528 <_calloc_r+0x4c>
1001a51c:	4621      	mov	r1, r4
1001a51e:	f7fa f9e7 	bl	100148f0 <memset>
1001a522:	4628      	mov	r0, r5
1001a524:	bd38      	pop	{r3, r4, r5, pc}
1001a526:	4602      	mov	r2, r0
1001a528:	2300      	movs	r3, #0
1001a52a:	6013      	str	r3, [r2, #0]
1001a52c:	6053      	str	r3, [r2, #4]
1001a52e:	6093      	str	r3, [r2, #8]
1001a530:	4628      	mov	r0, r5
1001a532:	bd38      	pop	{r3, r4, r5, pc}
1001a534:	f100 0208 	add.w	r2, r0, #8
1001a538:	e7f6      	b.n	1001a528 <_calloc_r+0x4c>
1001a53a:	f7f8 f8bf 	bl	100126bc <__errno>
1001a53e:	230c      	movs	r3, #12
1001a540:	6003      	str	r3, [r0, #0]
1001a542:	2500      	movs	r5, #0
1001a544:	4628      	mov	r0, r5
1001a546:	bd38      	pop	{r3, r4, r5, pc}

1001a548 <_wcsnrtombs_l>:
1001a548:	e92d 4ff0 	stmdb	sp!, {r4, r5, r6, r7, r8, r9, sl, fp, lr}
1001a54c:	b08b      	sub	sp, #44	@ 0x2c
1001a54e:	e9dd 7a15 	ldrd	r7, sl, [sp, #84]	@ 0x54
1001a552:	4686      	mov	lr, r0
1001a554:	461e      	mov	r6, r3
1001a556:	2f00      	cmp	r7, #0
1001a558:	d05a      	beq.n	1001a610 <_wcsnrtombs_l+0xc8>
1001a55a:	6815      	ldr	r5, [r2, #0]
1001a55c:	2900      	cmp	r1, #0
1001a55e:	d05c      	beq.n	1001a61a <_wcsnrtombs_l+0xd2>
1001a560:	9b14      	ldr	r3, [sp, #80]	@ 0x50
1001a562:	2b00      	cmp	r3, #0
1001a564:	d069      	beq.n	1001a63a <_wcsnrtombs_l+0xf2>
1001a566:	1e74      	subs	r4, r6, #1
1001a568:	b34e      	cbz	r6, 1001a5be <_wcsnrtombs_l+0x76>
1001a56a:	3d04      	subs	r5, #4
1001a56c:	e9cd 5e01 	strd	r5, lr, [sp, #4]
1001a570:	f8dd b050 	ldr.w	fp, [sp, #80]	@ 0x50
1001a574:	9104      	str	r1, [sp, #16]
1001a576:	2600      	movs	r6, #0
1001a578:	9103      	str	r1, [sp, #12]
1001a57a:	9205      	str	r2, [sp, #20]
1001a57c:	e00b      	b.n	1001a596 <_wcsnrtombs_l+0x4e>
1001a57e:	9b03      	ldr	r3, [sp, #12]
1001a580:	bb0b      	cbnz	r3, 1001a5c6 <_wcsnrtombs_l+0x7e>
1001a582:	9b01      	ldr	r3, [sp, #4]
1001a584:	6818      	ldr	r0, [r3, #0]
1001a586:	2800      	cmp	r0, #0
1001a588:	d036      	beq.n	1001a5f8 <_wcsnrtombs_l+0xb0>
1001a58a:	45dc      	cmp	ip, fp
1001a58c:	d257      	bcs.n	1001a63e <_wcsnrtombs_l+0xf6>
1001a58e:	3c01      	subs	r4, #1
1001a590:	1c63      	adds	r3, r4, #1
1001a592:	4666      	mov	r6, ip
1001a594:	d013      	beq.n	1001a5be <_wcsnrtombs_l+0x76>
1001a596:	9b01      	ldr	r3, [sp, #4]
1001a598:	9802      	ldr	r0, [sp, #8]
1001a59a:	f853 2f04 	ldr.w	r2, [r3, #4]!
1001a59e:	9301      	str	r3, [sp, #4]
1001a5a0:	f8da 50e0 	ldr.w	r5, [sl, #224]	@ 0xe0
1001a5a4:	463b      	mov	r3, r7
1001a5a6:	a907      	add	r1, sp, #28
1001a5a8:	e9d7 9800 	ldrd	r9, r8, [r7]
1001a5ac:	47a8      	blx	r5
1001a5ae:	1c42      	adds	r2, r0, #1
1001a5b0:	d037      	beq.n	1001a622 <_wcsnrtombs_l+0xda>
1001a5b2:	eb00 0c06 	add.w	ip, r0, r6
1001a5b6:	45dc      	cmp	ip, fp
1001a5b8:	d9e1      	bls.n	1001a57e <_wcsnrtombs_l+0x36>
1001a5ba:	e9c7 9800 	strd	r9, r8, [r7]
1001a5be:	4630      	mov	r0, r6
1001a5c0:	b00b      	add	sp, #44	@ 0x2c
1001a5c2:	e8bd 8ff0 	ldmia.w	sp!, {r4, r5, r6, r7, r8, r9, sl, fp, pc}
1001a5c6:	2800      	cmp	r0, #0
1001a5c8:	dd0e      	ble.n	1001a5e8 <_wcsnrtombs_l+0xa0>
1001a5ca:	9b04      	ldr	r3, [sp, #16]
1001a5cc:	9d01      	ldr	r5, [sp, #4]
1001a5ce:	4418      	add	r0, r3
1001a5d0:	1e5a      	subs	r2, r3, #1
1001a5d2:	a907      	add	r1, sp, #28
1001a5d4:	f100 3eff 	add.w	lr, r0, #4294967295	@ 0xffffffff
1001a5d8:	f811 3b01 	ldrb.w	r3, [r1], #1
1001a5dc:	f802 3f01 	strb.w	r3, [r2, #1]!
1001a5e0:	4596      	cmp	lr, r2
1001a5e2:	d1f9      	bne.n	1001a5d8 <_wcsnrtombs_l+0x90>
1001a5e4:	9501      	str	r5, [sp, #4]
1001a5e6:	9004      	str	r0, [sp, #16]
1001a5e8:	9b05      	ldr	r3, [sp, #20]
1001a5ea:	681a      	ldr	r2, [r3, #0]
1001a5ec:	3204      	adds	r2, #4
1001a5ee:	601a      	str	r2, [r3, #0]
1001a5f0:	9b01      	ldr	r3, [sp, #4]
1001a5f2:	6818      	ldr	r0, [r3, #0]
1001a5f4:	2800      	cmp	r0, #0
1001a5f6:	d1c8      	bne.n	1001a58a <_wcsnrtombs_l+0x42>
1001a5f8:	9903      	ldr	r1, [sp, #12]
1001a5fa:	9a05      	ldr	r2, [sp, #20]
1001a5fc:	b101      	cbz	r1, 1001a600 <_wcsnrtombs_l+0xb8>
1001a5fe:	6010      	str	r0, [r2, #0]
1001a600:	f10c 36ff 	add.w	r6, ip, #4294967295	@ 0xffffffff
1001a604:	2200      	movs	r2, #0
1001a606:	4630      	mov	r0, r6
1001a608:	603a      	str	r2, [r7, #0]
1001a60a:	b00b      	add	sp, #44	@ 0x2c
1001a60c:	e8bd 8ff0 	ldmia.w	sp!, {r4, r5, r6, r7, r8, r9, sl, fp, pc}
1001a610:	6815      	ldr	r5, [r2, #0]
1001a612:	f500 7786 	add.w	r7, r0, #268	@ 0x10c
1001a616:	2900      	cmp	r1, #0
1001a618:	d1a2      	bne.n	1001a560 <_wcsnrtombs_l+0x18>
1001a61a:	f04f 33ff 	mov.w	r3, #4294967295	@ 0xffffffff
1001a61e:	9314      	str	r3, [sp, #80]	@ 0x50
1001a620:	e7a1      	b.n	1001a566 <_wcsnrtombs_l+0x1e>
1001a622:	f8dd e008 	ldr.w	lr, [sp, #8]
1001a626:	4606      	mov	r6, r0
1001a628:	218a      	movs	r1, #138	@ 0x8a
1001a62a:	2200      	movs	r2, #0
1001a62c:	4630      	mov	r0, r6
1001a62e:	f8ce 1000 	str.w	r1, [lr]
1001a632:	603a      	str	r2, [r7, #0]
1001a634:	b00b      	add	sp, #44	@ 0x2c
1001a636:	e8bd 8ff0 	ldmia.w	sp!, {r4, r5, r6, r7, r8, r9, sl, fp, pc}
1001a63a:	9e14      	ldr	r6, [sp, #80]	@ 0x50
1001a63c:	e7bf      	b.n	1001a5be <_wcsnrtombs_l+0x76>
1001a63e:	4666      	mov	r6, ip
1001a640:	e7bd      	b.n	1001a5be <_wcsnrtombs_l+0x76>
1001a642:	bf00      	nop

1001a644 <_wcsnrtombs_r>:
1001a644:	b510      	push	{r4, lr}
1001a646:	b084      	sub	sp, #16
1001a648:	4c05      	ldr	r4, [pc, #20]	@ (1001a660 <_wcsnrtombs_r+0x1c>)
1001a64a:	9806      	ldr	r0, [sp, #24]
1001a64c:	9000      	str	r0, [sp, #0]
1001a64e:	9807      	ldr	r0, [sp, #28]
1001a650:	9001      	str	r0, [sp, #4]
1001a652:	4804      	ldr	r0, [pc, #16]	@ (1001a664 <_wcsnrtombs_r+0x20>)
1001a654:	6800      	ldr	r0, [r0, #0]
1001a656:	9402      	str	r4, [sp, #8]
1001a658:	f7ff ff76 	bl	1001a548 <_wcsnrtombs_l>
1001a65c:	b004      	add	sp, #16
1001a65e:	bd10      	pop	{r4, pc}
1001a660:	2000045c 	.word	0x2000045c
1001a664:	200005c8 	.word	0x200005c8

1001a668 <_isatty_r>:
1001a668:	b538      	push	{r3, r4, r5, lr}
1001a66a:	4d07      	ldr	r5, [pc, #28]	@ (1001a688 <_isatty_r+0x20>)
1001a66c:	2200      	movs	r2, #0
1001a66e:	4604      	mov	r4, r0
1001a670:	4608      	mov	r0, r1
1001a672:	602a      	str	r2, [r5, #0]
1001a674:	f7f6 fb42 	bl	10010cfc <_isatty>
1001a678:	1c43      	adds	r3, r0, #1
1001a67a:	d000      	beq.n	1001a67e <_isatty_r+0x16>
1001a67c:	bd38      	pop	{r3, r4, r5, pc}
1001a67e:	682b      	ldr	r3, [r5, #0]
1001a680:	2b00      	cmp	r3, #0
1001a682:	d0fb      	beq.n	1001a67c <_isatty_r+0x14>
1001a684:	6023      	str	r3, [r4, #0]
1001a686:	bd38      	pop	{r3, r4, r5, pc}
1001a688:	20001680 	.word	0x20001680

1001a68c <fiprintf>:
1001a68c:	b40e      	push	{r1, r2, r3}
1001a68e:	b510      	push	{r4, lr}
1001a690:	b083      	sub	sp, #12
1001a692:	ab05      	add	r3, sp, #20
1001a694:	4c06      	ldr	r4, [pc, #24]	@ (1001a6b0 <fiprintf+0x24>)
1001a696:	f853 2b04 	ldr.w	r2, [r3], #4
1001a69a:	9301      	str	r3, [sp, #4]
1001a69c:	4601      	mov	r1, r0
1001a69e:	6820      	ldr	r0, [r4, #0]
1001a6a0:	f7fe fa0a 	bl	10018ab8 <_vfiprintf_r>
1001a6a4:	b003      	add	sp, #12
1001a6a6:	e8bd 4010 	ldmia.w	sp!, {r4, lr}
1001a6aa:	b003      	add	sp, #12
1001a6ac:	4770      	bx	lr
1001a6ae:	bf00      	nop
1001a6b0:	200005c8 	.word	0x200005c8

1001a6b4 <__fputwc>:
1001a6b4:	b570      	push	{r4, r5, r6, lr}
1001a6b6:	b082      	sub	sp, #8
1001a6b8:	4606      	mov	r6, r0
1001a6ba:	460d      	mov	r5, r1
1001a6bc:	4614      	mov	r4, r2
1001a6be:	f7fa f9d3 	bl	10014a68 <__locale_mb_cur_max>
1001a6c2:	2801      	cmp	r0, #1
1001a6c4:	d102      	bne.n	1001a6cc <__fputwc+0x18>
1001a6c6:	1e6b      	subs	r3, r5, #1
1001a6c8:	2bfe      	cmp	r3, #254	@ 0xfe
1001a6ca:	d926      	bls.n	1001a71a <__fputwc+0x66>
1001a6cc:	f104 035c 	add.w	r3, r4, #92	@ 0x5c
1001a6d0:	462a      	mov	r2, r5
1001a6d2:	a901      	add	r1, sp, #4
1001a6d4:	4630      	mov	r0, r6
1001a6d6:	f7fa f95d 	bl	10014994 <_wcrtomb_r>
1001a6da:	1c43      	adds	r3, r0, #1
1001a6dc:	d020      	beq.n	1001a720 <__fputwc+0x6c>
1001a6de:	b178      	cbz	r0, 1001a700 <__fputwc+0x4c>
1001a6e0:	68a3      	ldr	r3, [r4, #8]
1001a6e2:	f89d 1004 	ldrb.w	r1, [sp, #4]
1001a6e6:	3b01      	subs	r3, #1
1001a6e8:	2b00      	cmp	r3, #0
1001a6ea:	60a3      	str	r3, [r4, #8]
1001a6ec:	da04      	bge.n	1001a6f8 <__fputwc+0x44>
1001a6ee:	69a2      	ldr	r2, [r4, #24]
1001a6f0:	4293      	cmp	r3, r2
1001a6f2:	db08      	blt.n	1001a706 <__fputwc+0x52>
1001a6f4:	290a      	cmp	r1, #10
1001a6f6:	d006      	beq.n	1001a706 <__fputwc+0x52>
1001a6f8:	6823      	ldr	r3, [r4, #0]
1001a6fa:	1c5a      	adds	r2, r3, #1
1001a6fc:	6022      	str	r2, [r4, #0]
1001a6fe:	7019      	strb	r1, [r3, #0]
1001a700:	4628      	mov	r0, r5
1001a702:	b002      	add	sp, #8
1001a704:	bd70      	pop	{r4, r5, r6, pc}
1001a706:	4622      	mov	r2, r4
1001a708:	4630      	mov	r0, r6
1001a70a:	f000 f841 	bl	1001a790 <__swbuf_r>
1001a70e:	3001      	adds	r0, #1
1001a710:	d1f6      	bne.n	1001a700 <__fputwc+0x4c>
1001a712:	f04f 30ff 	mov.w	r0, #4294967295	@ 0xffffffff
1001a716:	b002      	add	sp, #8
1001a718:	bd70      	pop	{r4, r5, r6, pc}
1001a71a:	f88d 5004 	strb.w	r5, [sp, #4]
1001a71e:	e7df      	b.n	1001a6e0 <__fputwc+0x2c>
1001a720:	89a3      	ldrh	r3, [r4, #12]
1001a722:	f043 0340 	orr.w	r3, r3, #64	@ 0x40
1001a726:	81a3      	strh	r3, [r4, #12]
1001a728:	f04f 30ff 	mov.w	r0, #4294967295	@ 0xffffffff
1001a72c:	e7f3      	b.n	1001a716 <__fputwc+0x62>
1001a72e:	bf00      	nop

1001a730 <_fputwc_r>:
1001a730:	b530      	push	{r4, r5, lr}
1001a732:	4614      	mov	r4, r2
1001a734:	6e52      	ldr	r2, [r2, #100]	@ 0x64
1001a736:	f9b4 300c 	ldrsh.w	r3, [r4, #12]
1001a73a:	4605      	mov	r5, r0
1001a73c:	07d0      	lsls	r0, r2, #31
1001a73e:	b083      	sub	sp, #12
1001a740:	d401      	bmi.n	1001a746 <_fputwc_r+0x16>
1001a742:	059a      	lsls	r2, r3, #22
1001a744:	d51c      	bpl.n	1001a780 <_fputwc_r+0x50>
1001a746:	0498      	lsls	r0, r3, #18
1001a748:	d406      	bmi.n	1001a758 <_fputwc_r+0x28>
1001a74a:	6e62      	ldr	r2, [r4, #100]	@ 0x64
1001a74c:	f443 5300 	orr.w	r3, r3, #8192	@ 0x2000
1001a750:	f442 5200 	orr.w	r2, r2, #8192	@ 0x2000
1001a754:	81a3      	strh	r3, [r4, #12]
1001a756:	6662      	str	r2, [r4, #100]	@ 0x64
1001a758:	4622      	mov	r2, r4
1001a75a:	4628      	mov	r0, r5
1001a75c:	f7ff ffaa 	bl	1001a6b4 <__fputwc>
1001a760:	6e63      	ldr	r3, [r4, #100]	@ 0x64
1001a762:	07da      	lsls	r2, r3, #31
1001a764:	4605      	mov	r5, r0
1001a766:	d402      	bmi.n	1001a76e <_fputwc_r+0x3e>
1001a768:	89a3      	ldrh	r3, [r4, #12]
1001a76a:	059b      	lsls	r3, r3, #22
1001a76c:	d502      	bpl.n	1001a774 <_fputwc_r+0x44>
1001a76e:	4628      	mov	r0, r5
1001a770:	b003      	add	sp, #12
1001a772:	bd30      	pop	{r4, r5, pc}
1001a774:	6da0      	ldr	r0, [r4, #88]	@ 0x58
1001a776:	f7fa f975 	bl	10014a64 <__retarget_lock_release_recursive>
1001a77a:	4628      	mov	r0, r5
1001a77c:	b003      	add	sp, #12
1001a77e:	bd30      	pop	{r4, r5, pc}
1001a780:	6da0      	ldr	r0, [r4, #88]	@ 0x58
1001a782:	9101      	str	r1, [sp, #4]
1001a784:	f7fa f96c 	bl	10014a60 <__retarget_lock_acquire_recursive>
1001a788:	f9b4 300c 	ldrsh.w	r3, [r4, #12]
1001a78c:	9901      	ldr	r1, [sp, #4]
1001a78e:	e7da      	b.n	1001a746 <_fputwc_r+0x16>

1001a790 <__swbuf_r>:
1001a790:	b5f8      	push	{r3, r4, r5, r6, r7, lr}
1001a792:	460d      	mov	r5, r1
1001a794:	4614      	mov	r4, r2
1001a796:	4606      	mov	r6, r0
1001a798:	b110      	cbz	r0, 1001a7a0 <__swbuf_r+0x10>
1001a79a:	6b43      	ldr	r3, [r0, #52]	@ 0x34
1001a79c:	2b00      	cmp	r3, #0
1001a79e:	d04a      	beq.n	1001a836 <__swbuf_r+0xa6>
1001a7a0:	f9b4 200c 	ldrsh.w	r2, [r4, #12]
1001a7a4:	69a3      	ldr	r3, [r4, #24]
1001a7a6:	60a3      	str	r3, [r4, #8]
1001a7a8:	0710      	lsls	r0, r2, #28
1001a7aa:	d51b      	bpl.n	1001a7e4 <__swbuf_r+0x54>
1001a7ac:	6923      	ldr	r3, [r4, #16]
1001a7ae:	b1cb      	cbz	r3, 1001a7e4 <__swbuf_r+0x54>
1001a7b0:	b2ed      	uxtb	r5, r5
1001a7b2:	0491      	lsls	r1, r2, #18
1001a7b4:	462f      	mov	r7, r5
1001a7b6:	d521      	bpl.n	1001a7fc <__swbuf_r+0x6c>
1001a7b8:	6822      	ldr	r2, [r4, #0]
1001a7ba:	6961      	ldr	r1, [r4, #20]
1001a7bc:	1ad3      	subs	r3, r2, r3
1001a7be:	4299      	cmp	r1, r3
1001a7c0:	dd28      	ble.n	1001a814 <__swbuf_r+0x84>
1001a7c2:	3301      	adds	r3, #1
1001a7c4:	68a1      	ldr	r1, [r4, #8]
1001a7c6:	3901      	subs	r1, #1
1001a7c8:	60a1      	str	r1, [r4, #8]
1001a7ca:	1c51      	adds	r1, r2, #1
1001a7cc:	6021      	str	r1, [r4, #0]
1001a7ce:	7015      	strb	r5, [r2, #0]
1001a7d0:	6962      	ldr	r2, [r4, #20]
1001a7d2:	429a      	cmp	r2, r3
1001a7d4:	d026      	beq.n	1001a824 <__swbuf_r+0x94>
1001a7d6:	89a3      	ldrh	r3, [r4, #12]
1001a7d8:	07db      	lsls	r3, r3, #31
1001a7da:	d501      	bpl.n	1001a7e0 <__swbuf_r+0x50>
1001a7dc:	2d0a      	cmp	r5, #10
1001a7de:	d021      	beq.n	1001a824 <__swbuf_r+0x94>
1001a7e0:	4638      	mov	r0, r7
1001a7e2:	bdf8      	pop	{r3, r4, r5, r6, r7, pc}
1001a7e4:	4621      	mov	r1, r4
1001a7e6:	4630      	mov	r0, r6
1001a7e8:	f7ff f9f0 	bl	10019bcc <__swsetup_r>
1001a7ec:	bb00      	cbnz	r0, 1001a830 <__swbuf_r+0xa0>
1001a7ee:	f9b4 200c 	ldrsh.w	r2, [r4, #12]
1001a7f2:	6923      	ldr	r3, [r4, #16]
1001a7f4:	b2ed      	uxtb	r5, r5
1001a7f6:	0491      	lsls	r1, r2, #18
1001a7f8:	462f      	mov	r7, r5
1001a7fa:	d4dd      	bmi.n	1001a7b8 <__swbuf_r+0x28>
1001a7fc:	f442 5200 	orr.w	r2, r2, #8192	@ 0x2000
1001a800:	81a2      	strh	r2, [r4, #12]
1001a802:	6e62      	ldr	r2, [r4, #100]	@ 0x64
1001a804:	6961      	ldr	r1, [r4, #20]
1001a806:	f422 5200 	bic.w	r2, r2, #8192	@ 0x2000
1001a80a:	6662      	str	r2, [r4, #100]	@ 0x64
1001a80c:	6822      	ldr	r2, [r4, #0]
1001a80e:	1ad3      	subs	r3, r2, r3
1001a810:	4299      	cmp	r1, r3
1001a812:	dcd6      	bgt.n	1001a7c2 <__swbuf_r+0x32>
1001a814:	4621      	mov	r1, r4
1001a816:	4630      	mov	r0, r6
1001a818:	f7fb fa8a 	bl	10015d30 <_fflush_r>
1001a81c:	b940      	cbnz	r0, 1001a830 <__swbuf_r+0xa0>
1001a81e:	6822      	ldr	r2, [r4, #0]
1001a820:	2301      	movs	r3, #1
1001a822:	e7cf      	b.n	1001a7c4 <__swbuf_r+0x34>
1001a824:	4621      	mov	r1, r4
1001a826:	4630      	mov	r0, r6
1001a828:	f7fb fa82 	bl	10015d30 <_fflush_r>
1001a82c:	2800      	cmp	r0, #0
1001a82e:	d0d7      	beq.n	1001a7e0 <__swbuf_r+0x50>
1001a830:	f04f 37ff 	mov.w	r7, #4294967295	@ 0xffffffff
1001a834:	e7d4      	b.n	1001a7e0 <__swbuf_r+0x50>
1001a836:	f7fb fb49 	bl	10015ecc <__sinit>
1001a83a:	e7b1      	b.n	1001a7a0 <__swbuf_r+0x10>

1001a83c <abort>:
1001a83c:	b508      	push	{r3, lr}
1001a83e:	2006      	movs	r0, #6
1001a840:	f000 f804 	bl	1001a84c <raise>
1001a844:	2001      	movs	r0, #1
1001a846:	f000 f855 	bl	1001a8f4 <_exit>
1001a84a:	bf00      	nop

1001a84c <raise>:
1001a84c:	b538      	push	{r3, r4, r5, lr}
1001a84e:	4b14      	ldr	r3, [pc, #80]	@ (1001a8a0 <raise+0x54>)
1001a850:	281f      	cmp	r0, #31
1001a852:	681d      	ldr	r5, [r3, #0]
1001a854:	d81e      	bhi.n	1001a894 <raise+0x48>
1001a856:	f8d5 2118 	ldr.w	r2, [r5, #280]	@ 0x118
1001a85a:	4604      	mov	r4, r0
1001a85c:	b162      	cbz	r2, 1001a878 <raise+0x2c>
1001a85e:	f852 3020 	ldr.w	r3, [r2, r0, lsl #2]
1001a862:	b14b      	cbz	r3, 1001a878 <raise+0x2c>
1001a864:	2b01      	cmp	r3, #1
1001a866:	d005      	beq.n	1001a874 <raise+0x28>
1001a868:	1c59      	adds	r1, r3, #1
1001a86a:	d00f      	beq.n	1001a88c <raise+0x40>
1001a86c:	2100      	movs	r1, #0
1001a86e:	f842 1020 	str.w	r1, [r2, r0, lsl #2]
1001a872:	4798      	blx	r3
1001a874:	2000      	movs	r0, #0
1001a876:	bd38      	pop	{r3, r4, r5, pc}
1001a878:	4628      	mov	r0, r5
1001a87a:	f000 f829 	bl	1001a8d0 <_getpid_r>
1001a87e:	4622      	mov	r2, r4
1001a880:	4601      	mov	r1, r0
1001a882:	4628      	mov	r0, r5
1001a884:	e8bd 4038 	ldmia.w	sp!, {r3, r4, r5, lr}
1001a888:	f000 b80c 	b.w	1001a8a4 <_kill_r>
1001a88c:	2316      	movs	r3, #22
1001a88e:	602b      	str	r3, [r5, #0]
1001a890:	2001      	movs	r0, #1
1001a892:	bd38      	pop	{r3, r4, r5, pc}
1001a894:	2316      	movs	r3, #22
1001a896:	602b      	str	r3, [r5, #0]
1001a898:	f04f 30ff 	mov.w	r0, #4294967295	@ 0xffffffff
1001a89c:	bd38      	pop	{r3, r4, r5, pc}
1001a89e:	bf00      	nop
1001a8a0:	200005c8 	.word	0x200005c8

1001a8a4 <_kill_r>:
1001a8a4:	b570      	push	{r4, r5, r6, lr}
1001a8a6:	460c      	mov	r4, r1
1001a8a8:	4d08      	ldr	r5, [pc, #32]	@ (1001a8cc <_kill_r+0x28>)
1001a8aa:	4603      	mov	r3, r0
1001a8ac:	2600      	movs	r6, #0
1001a8ae:	4620      	mov	r0, r4
1001a8b0:	4611      	mov	r1, r2
1001a8b2:	461c      	mov	r4, r3
1001a8b4:	602e      	str	r6, [r5, #0]
1001a8b6:	f000 f815 	bl	1001a8e4 <_kill>
1001a8ba:	1c43      	adds	r3, r0, #1
1001a8bc:	d000      	beq.n	1001a8c0 <_kill_r+0x1c>
1001a8be:	bd70      	pop	{r4, r5, r6, pc}
1001a8c0:	682b      	ldr	r3, [r5, #0]
1001a8c2:	2b00      	cmp	r3, #0
1001a8c4:	d0fb      	beq.n	1001a8be <_kill_r+0x1a>
1001a8c6:	6023      	str	r3, [r4, #0]
1001a8c8:	bd70      	pop	{r4, r5, r6, pc}
1001a8ca:	bf00      	nop
1001a8cc:	20001680 	.word	0x20001680

1001a8d0 <_getpid_r>:
1001a8d0:	f000 b800 	b.w	1001a8d4 <_getpid>

1001a8d4 <_getpid>:
1001a8d4:	4b02      	ldr	r3, [pc, #8]	@ (1001a8e0 <_getpid+0xc>)
1001a8d6:	2258      	movs	r2, #88	@ 0x58
1001a8d8:	601a      	str	r2, [r3, #0]
1001a8da:	f04f 30ff 	mov.w	r0, #4294967295	@ 0xffffffff
1001a8de:	4770      	bx	lr
1001a8e0:	20001680 	.word	0x20001680

1001a8e4 <_kill>:
1001a8e4:	4b02      	ldr	r3, [pc, #8]	@ (1001a8f0 <_kill+0xc>)
1001a8e6:	2258      	movs	r2, #88	@ 0x58
1001a8e8:	601a      	str	r2, [r3, #0]
1001a8ea:	f04f 30ff 	mov.w	r0, #4294967295	@ 0xffffffff
1001a8ee:	4770      	bx	lr
1001a8f0:	20001680 	.word	0x20001680

1001a8f4 <_exit>:
1001a8f4:	e7fe      	b.n	1001a8f4 <_exit>
1001a8f6:	bf00      	nop

1001a8f8 <__aeabi_drsub>:
1001a8f8:	f081 4100 	eor.w	r1, r1, #2147483648	@ 0x80000000
1001a8fc:	e002      	b.n	1001a904 <__adddf3>
1001a8fe:	bf00      	nop

1001a900 <__aeabi_dsub>:
1001a900:	f083 4300 	eor.w	r3, r3, #2147483648	@ 0x80000000

1001a904 <__adddf3>:
1001a904:	b530      	push	{r4, r5, lr}
1001a906:	ea4f 0441 	mov.w	r4, r1, lsl #1
1001a90a:	ea4f 0543 	mov.w	r5, r3, lsl #1
1001a90e:	ea94 0f05 	teq	r4, r5
1001a912:	bf08      	it	eq
1001a914:	ea90 0f02 	teqeq	r0, r2
1001a918:	bf1f      	itttt	ne
1001a91a:	ea54 0c00 	orrsne.w	ip, r4, r0
1001a91e:	ea55 0c02 	orrsne.w	ip, r5, r2
1001a922:	ea7f 5c64 	mvnsne.w	ip, r4, asr #21
1001a926:	ea7f 5c65 	mvnsne.w	ip, r5, asr #21
1001a92a:	f000 80e2 	beq.w	1001aaf2 <__adddf3+0x1ee>
1001a92e:	ea4f 5454 	mov.w	r4, r4, lsr #21
1001a932:	ebd4 5555 	rsbs	r5, r4, r5, lsr #21
1001a936:	bfb8      	it	lt
1001a938:	426d      	neglt	r5, r5
1001a93a:	dd0c      	ble.n	1001a956 <__adddf3+0x52>
1001a93c:	442c      	add	r4, r5
1001a93e:	ea80 0202 	eor.w	r2, r0, r2
1001a942:	ea81 0303 	eor.w	r3, r1, r3
1001a946:	ea82 0000 	eor.w	r0, r2, r0
1001a94a:	ea83 0101 	eor.w	r1, r3, r1
1001a94e:	ea80 0202 	eor.w	r2, r0, r2
1001a952:	ea81 0303 	eor.w	r3, r1, r3
1001a956:	2d36      	cmp	r5, #54	@ 0x36
1001a958:	bf88      	it	hi
1001a95a:	bd30      	pophi	{r4, r5, pc}
1001a95c:	f011 4f00 	tst.w	r1, #2147483648	@ 0x80000000
1001a960:	ea4f 3101 	mov.w	r1, r1, lsl #12
1001a964:	f44f 1c80 	mov.w	ip, #1048576	@ 0x100000
1001a968:	ea4c 3111 	orr.w	r1, ip, r1, lsr #12
1001a96c:	d002      	beq.n	1001a974 <__adddf3+0x70>
1001a96e:	4240      	negs	r0, r0
1001a970:	eb61 0141 	sbc.w	r1, r1, r1, lsl #1
1001a974:	f013 4f00 	tst.w	r3, #2147483648	@ 0x80000000
1001a978:	ea4f 3303 	mov.w	r3, r3, lsl #12
1001a97c:	ea4c 3313 	orr.w	r3, ip, r3, lsr #12
1001a980:	d002      	beq.n	1001a988 <__adddf3+0x84>
1001a982:	4252      	negs	r2, r2
1001a984:	eb63 0343 	sbc.w	r3, r3, r3, lsl #1
1001a988:	ea94 0f05 	teq	r4, r5
1001a98c:	f000 80a7 	beq.w	1001aade <__adddf3+0x1da>
1001a990:	f1a4 0401 	sub.w	r4, r4, #1
1001a994:	f1d5 0e20 	rsbs	lr, r5, #32
1001a998:	db0d      	blt.n	1001a9b6 <__adddf3+0xb2>
1001a99a:	fa02 fc0e 	lsl.w	ip, r2, lr
1001a99e:	fa22 f205 	lsr.w	r2, r2, r5
1001a9a2:	1880      	adds	r0, r0, r2
1001a9a4:	f141 0100 	adc.w	r1, r1, #0
1001a9a8:	fa03 f20e 	lsl.w	r2, r3, lr
1001a9ac:	1880      	adds	r0, r0, r2
1001a9ae:	fa43 f305 	asr.w	r3, r3, r5
1001a9b2:	4159      	adcs	r1, r3
1001a9b4:	e00e      	b.n	1001a9d4 <__adddf3+0xd0>
1001a9b6:	f1a5 0520 	sub.w	r5, r5, #32
1001a9ba:	f10e 0e20 	add.w	lr, lr, #32
1001a9be:	2a01      	cmp	r2, #1
1001a9c0:	fa03 fc0e 	lsl.w	ip, r3, lr
1001a9c4:	bf28      	it	cs
1001a9c6:	f04c 0c02 	orrcs.w	ip, ip, #2
1001a9ca:	fa43 f305 	asr.w	r3, r3, r5
1001a9ce:	18c0      	adds	r0, r0, r3
1001a9d0:	eb51 71e3 	adcs.w	r1, r1, r3, asr #31
1001a9d4:	f001 4500 	and.w	r5, r1, #2147483648	@ 0x80000000
1001a9d8:	d507      	bpl.n	1001a9ea <__adddf3+0xe6>
1001a9da:	f04f 0e00 	mov.w	lr, #0
1001a9de:	f1dc 0c00 	rsbs	ip, ip, #0
1001a9e2:	eb7e 0000 	sbcs.w	r0, lr, r0
1001a9e6:	eb6e 0101 	sbc.w	r1, lr, r1
1001a9ea:	f5b1 1f80 	cmp.w	r1, #1048576	@ 0x100000
1001a9ee:	d31b      	bcc.n	1001aa28 <__adddf3+0x124>
1001a9f0:	f5b1 1f00 	cmp.w	r1, #2097152	@ 0x200000
1001a9f4:	d30c      	bcc.n	1001aa10 <__adddf3+0x10c>
1001a9f6:	0849      	lsrs	r1, r1, #1
1001a9f8:	ea5f 0030 	movs.w	r0, r0, rrx
1001a9fc:	ea4f 0c3c 	mov.w	ip, ip, rrx
1001aa00:	f104 0401 	add.w	r4, r4, #1
1001aa04:	ea4f 5244 	mov.w	r2, r4, lsl #21
1001aa08:	f512 0f80 	cmn.w	r2, #4194304	@ 0x400000
1001aa0c:	f080 809a 	bcs.w	1001ab44 <__adddf3+0x240>
1001aa10:	f1bc 4f00 	cmp.w	ip, #2147483648	@ 0x80000000
1001aa14:	bf08      	it	eq
1001aa16:	ea5f 0c50 	movseq.w	ip, r0, lsr #1
1001aa1a:	f150 0000 	adcs.w	r0, r0, #0
1001aa1e:	eb41 5104 	adc.w	r1, r1, r4, lsl #20
1001aa22:	ea41 0105 	orr.w	r1, r1, r5
1001aa26:	bd30      	pop	{r4, r5, pc}
1001aa28:	ea5f 0c4c 	movs.w	ip, ip, lsl #1
1001aa2c:	4140      	adcs	r0, r0
1001aa2e:	eb41 0101 	adc.w	r1, r1, r1
1001aa32:	3c01      	subs	r4, #1
1001aa34:	bf28      	it	cs
1001aa36:	f5b1 1f80 	cmpcs.w	r1, #1048576	@ 0x100000
1001aa3a:	d2e9      	bcs.n	1001aa10 <__adddf3+0x10c>
1001aa3c:	f091 0f00 	teq	r1, #0
1001aa40:	bf04      	itt	eq
1001aa42:	4601      	moveq	r1, r0
1001aa44:	2000      	moveq	r0, #0
1001aa46:	fab1 f381 	clz	r3, r1
1001aa4a:	bf08      	it	eq
1001aa4c:	3320      	addeq	r3, #32
1001aa4e:	f1a3 030b 	sub.w	r3, r3, #11
1001aa52:	f1b3 0220 	subs.w	r2, r3, #32
1001aa56:	da0c      	bge.n	1001aa72 <__adddf3+0x16e>
1001aa58:	320c      	adds	r2, #12
1001aa5a:	dd08      	ble.n	1001aa6e <__adddf3+0x16a>
1001aa5c:	f102 0c14 	add.w	ip, r2, #20
1001aa60:	f1c2 020c 	rsb	r2, r2, #12
1001aa64:	fa01 f00c 	lsl.w	r0, r1, ip
1001aa68:	fa21 f102 	lsr.w	r1, r1, r2
1001aa6c:	e00c      	b.n	1001aa88 <__adddf3+0x184>
1001aa6e:	f102 0214 	add.w	r2, r2, #20
1001aa72:	bfd8      	it	le
1001aa74:	f1c2 0c20 	rsble	ip, r2, #32
1001aa78:	fa01 f102 	lsl.w	r1, r1, r2
1001aa7c:	fa20 fc0c 	lsr.w	ip, r0, ip
1001aa80:	bfdc      	itt	le
1001aa82:	ea41 010c 	orrle.w	r1, r1, ip
1001aa86:	4090      	lslle	r0, r2
1001aa88:	1ae4      	subs	r4, r4, r3
1001aa8a:	bfa2      	ittt	ge
1001aa8c:	eb01 5104 	addge.w	r1, r1, r4, lsl #20
1001aa90:	4329      	orrge	r1, r5
1001aa92:	bd30      	popge	{r4, r5, pc}
1001aa94:	ea6f 0404 	mvn.w	r4, r4
1001aa98:	3c1f      	subs	r4, #31
1001aa9a:	da1c      	bge.n	1001aad6 <__adddf3+0x1d2>
1001aa9c:	340c      	adds	r4, #12
1001aa9e:	dc0e      	bgt.n	1001aabe <__adddf3+0x1ba>
1001aaa0:	f104 0414 	add.w	r4, r4, #20
1001aaa4:	f1c4 0220 	rsb	r2, r4, #32
1001aaa8:	fa20 f004 	lsr.w	r0, r0, r4
1001aaac:	fa01 f302 	lsl.w	r3, r1, r2
1001aab0:	ea40 0003 	orr.w	r0, r0, r3
1001aab4:	fa21 f304 	lsr.w	r3, r1, r4
1001aab8:	ea45 0103 	orr.w	r1, r5, r3
1001aabc:	bd30      	pop	{r4, r5, pc}
1001aabe:	f1c4 040c 	rsb	r4, r4, #12
1001aac2:	f1c4 0220 	rsb	r2, r4, #32
1001aac6:	fa20 f002 	lsr.w	r0, r0, r2
1001aaca:	fa01 f304 	lsl.w	r3, r1, r4
1001aace:	ea40 0003 	orr.w	r0, r0, r3
1001aad2:	4629      	mov	r1, r5
1001aad4:	bd30      	pop	{r4, r5, pc}
1001aad6:	fa21 f004 	lsr.w	r0, r1, r4
1001aada:	4629      	mov	r1, r5
1001aadc:	bd30      	pop	{r4, r5, pc}
1001aade:	f094 0f00 	teq	r4, #0
1001aae2:	f483 1380 	eor.w	r3, r3, #1048576	@ 0x100000
1001aae6:	bf06      	itte	eq
1001aae8:	f481 1180 	eoreq.w	r1, r1, #1048576	@ 0x100000
1001aaec:	3401      	addeq	r4, #1
1001aaee:	3d01      	subne	r5, #1
1001aaf0:	e74e      	b.n	1001a990 <__adddf3+0x8c>
1001aaf2:	ea7f 5c64 	mvns.w	ip, r4, asr #21
1001aaf6:	bf18      	it	ne
1001aaf8:	ea7f 5c65 	mvnsne.w	ip, r5, asr #21
1001aafc:	d029      	beq.n	1001ab52 <__adddf3+0x24e>
1001aafe:	ea94 0f05 	teq	r4, r5
1001ab02:	bf08      	it	eq
1001ab04:	ea90 0f02 	teqeq	r0, r2
1001ab08:	d005      	beq.n	1001ab16 <__adddf3+0x212>
1001ab0a:	ea54 0c00 	orrs.w	ip, r4, r0
1001ab0e:	bf04      	itt	eq
1001ab10:	4619      	moveq	r1, r3
1001ab12:	4610      	moveq	r0, r2
1001ab14:	bd30      	pop	{r4, r5, pc}
1001ab16:	ea91 0f03 	teq	r1, r3
1001ab1a:	bf1e      	ittt	ne
1001ab1c:	2100      	movne	r1, #0
1001ab1e:	2000      	movne	r0, #0
1001ab20:	bd30      	popne	{r4, r5, pc}
1001ab22:	ea5f 5c54 	movs.w	ip, r4, lsr #21
1001ab26:	d105      	bne.n	1001ab34 <__adddf3+0x230>
1001ab28:	0040      	lsls	r0, r0, #1
1001ab2a:	4149      	adcs	r1, r1
1001ab2c:	bf28      	it	cs
1001ab2e:	f041 4100 	orrcs.w	r1, r1, #2147483648	@ 0x80000000
1001ab32:	bd30      	pop	{r4, r5, pc}
1001ab34:	f514 0480 	adds.w	r4, r4, #4194304	@ 0x400000
1001ab38:	bf3c      	itt	cc
1001ab3a:	f501 1180 	addcc.w	r1, r1, #1048576	@ 0x100000
1001ab3e:	bd30      	popcc	{r4, r5, pc}
1001ab40:	f001 4500 	and.w	r5, r1, #2147483648	@ 0x80000000
1001ab44:	f045 41fe 	orr.w	r1, r5, #2130706432	@ 0x7f000000
1001ab48:	f441 0170 	orr.w	r1, r1, #15728640	@ 0xf00000
1001ab4c:	f04f 0000 	mov.w	r0, #0
1001ab50:	bd30      	pop	{r4, r5, pc}
1001ab52:	ea7f 5c64 	mvns.w	ip, r4, asr #21
1001ab56:	bf1a      	itte	ne
1001ab58:	4619      	movne	r1, r3
1001ab5a:	4610      	movne	r0, r2
1001ab5c:	ea7f 5c65 	mvnseq.w	ip, r5, asr #21
1001ab60:	bf1c      	itt	ne
1001ab62:	460b      	movne	r3, r1
1001ab64:	4602      	movne	r2, r0
1001ab66:	ea50 3401 	orrs.w	r4, r0, r1, lsl #12
1001ab6a:	bf06      	itte	eq
1001ab6c:	ea52 3503 	orrseq.w	r5, r2, r3, lsl #12
1001ab70:	ea91 0f03 	teqeq	r1, r3
1001ab74:	f441 2100 	orrne.w	r1, r1, #524288	@ 0x80000
1001ab78:	bd30      	pop	{r4, r5, pc}
1001ab7a:	bf00      	nop

1001ab7c <__aeabi_ui2d>:
1001ab7c:	f090 0f00 	teq	r0, #0
1001ab80:	bf04      	itt	eq
1001ab82:	2100      	moveq	r1, #0
1001ab84:	4770      	bxeq	lr
1001ab86:	b530      	push	{r4, r5, lr}
1001ab88:	f44f 6480 	mov.w	r4, #1024	@ 0x400
1001ab8c:	f104 0432 	add.w	r4, r4, #50	@ 0x32
1001ab90:	f04f 0500 	mov.w	r5, #0
1001ab94:	f04f 0100 	mov.w	r1, #0
1001ab98:	e750      	b.n	1001aa3c <__adddf3+0x138>
1001ab9a:	bf00      	nop

1001ab9c <__aeabi_i2d>:
1001ab9c:	f090 0f00 	teq	r0, #0
1001aba0:	bf04      	itt	eq
1001aba2:	2100      	moveq	r1, #0
1001aba4:	4770      	bxeq	lr
1001aba6:	b530      	push	{r4, r5, lr}
1001aba8:	f44f 6480 	mov.w	r4, #1024	@ 0x400
1001abac:	f104 0432 	add.w	r4, r4, #50	@ 0x32
1001abb0:	f010 4500 	ands.w	r5, r0, #2147483648	@ 0x80000000
1001abb4:	bf48      	it	mi
1001abb6:	4240      	negmi	r0, r0
1001abb8:	f04f 0100 	mov.w	r1, #0
1001abbc:	e73e      	b.n	1001aa3c <__adddf3+0x138>
1001abbe:	bf00      	nop

1001abc0 <__aeabi_f2d>:
1001abc0:	0042      	lsls	r2, r0, #1
1001abc2:	ea4f 01e2 	mov.w	r1, r2, asr #3
1001abc6:	ea4f 0131 	mov.w	r1, r1, rrx
1001abca:	ea4f 7002 	mov.w	r0, r2, lsl #28
1001abce:	bf1f      	itttt	ne
1001abd0:	f012 437f 	andsne.w	r3, r2, #4278190080	@ 0xff000000
1001abd4:	f093 4f7f 	teqne	r3, #4278190080	@ 0xff000000
1001abd8:	f081 5160 	eorne.w	r1, r1, #939524096	@ 0x38000000
1001abdc:	4770      	bxne	lr
1001abde:	f032 427f 	bics.w	r2, r2, #4278190080	@ 0xff000000
1001abe2:	bf08      	it	eq
1001abe4:	4770      	bxeq	lr
1001abe6:	f093 4f7f 	teq	r3, #4278190080	@ 0xff000000
1001abea:	bf04      	itt	eq
1001abec:	f441 2100 	orreq.w	r1, r1, #524288	@ 0x80000
1001abf0:	4770      	bxeq	lr
1001abf2:	b530      	push	{r4, r5, lr}
1001abf4:	f44f 7460 	mov.w	r4, #896	@ 0x380
1001abf8:	f001 4500 	and.w	r5, r1, #2147483648	@ 0x80000000
1001abfc:	f021 4100 	bic.w	r1, r1, #2147483648	@ 0x80000000
1001ac00:	e71c      	b.n	1001aa3c <__adddf3+0x138>
1001ac02:	bf00      	nop

1001ac04 <__aeabi_ul2d>:
1001ac04:	ea50 0201 	orrs.w	r2, r0, r1
1001ac08:	bf08      	it	eq
1001ac0a:	4770      	bxeq	lr
1001ac0c:	b530      	push	{r4, r5, lr}
1001ac0e:	f04f 0500 	mov.w	r5, #0
1001ac12:	e00a      	b.n	1001ac2a <__aeabi_l2d+0x16>

1001ac14 <__aeabi_l2d>:
1001ac14:	ea50 0201 	orrs.w	r2, r0, r1
1001ac18:	bf08      	it	eq
1001ac1a:	4770      	bxeq	lr
1001ac1c:	b530      	push	{r4, r5, lr}
1001ac1e:	f011 4500 	ands.w	r5, r1, #2147483648	@ 0x80000000
1001ac22:	d502      	bpl.n	1001ac2a <__aeabi_l2d+0x16>
1001ac24:	4240      	negs	r0, r0
1001ac26:	eb61 0141 	sbc.w	r1, r1, r1, lsl #1
1001ac2a:	f44f 6480 	mov.w	r4, #1024	@ 0x400
1001ac2e:	f104 0432 	add.w	r4, r4, #50	@ 0x32
1001ac32:	ea5f 5c91 	movs.w	ip, r1, lsr #22
1001ac36:	f43f aed8 	beq.w	1001a9ea <__adddf3+0xe6>
1001ac3a:	f04f 0203 	mov.w	r2, #3
1001ac3e:	ea5f 0cdc 	movs.w	ip, ip, lsr #3
1001ac42:	bf18      	it	ne
1001ac44:	3203      	addne	r2, #3
1001ac46:	ea5f 0cdc 	movs.w	ip, ip, lsr #3
1001ac4a:	bf18      	it	ne
1001ac4c:	3203      	addne	r2, #3
1001ac4e:	eb02 02dc 	add.w	r2, r2, ip, lsr #3
1001ac52:	f1c2 0320 	rsb	r3, r2, #32
1001ac56:	fa00 fc03 	lsl.w	ip, r0, r3
1001ac5a:	fa20 f002 	lsr.w	r0, r0, r2
1001ac5e:	fa01 fe03 	lsl.w	lr, r1, r3
1001ac62:	ea40 000e 	orr.w	r0, r0, lr
1001ac66:	fa21 f102 	lsr.w	r1, r1, r2
1001ac6a:	4414      	add	r4, r2
1001ac6c:	e6bd      	b.n	1001a9ea <__adddf3+0xe6>
1001ac6e:	bf00      	nop

1001ac70 <__aeabi_dmul>:
1001ac70:	b570      	push	{r4, r5, r6, lr}
1001ac72:	f04f 0cff 	mov.w	ip, #255	@ 0xff
1001ac76:	f44c 6ce0 	orr.w	ip, ip, #1792	@ 0x700
1001ac7a:	ea1c 5411 	ands.w	r4, ip, r1, lsr #20
1001ac7e:	bf1d      	ittte	ne
1001ac80:	ea1c 5513 	andsne.w	r5, ip, r3, lsr #20
1001ac84:	ea94 0f0c 	teqne	r4, ip
1001ac88:	ea95 0f0c 	teqne	r5, ip
1001ac8c:	f000 f8de 	bleq	1001ae4c <__aeabi_dmul+0x1dc>
1001ac90:	442c      	add	r4, r5
1001ac92:	ea81 0603 	eor.w	r6, r1, r3
1001ac96:	ea21 514c 	bic.w	r1, r1, ip, lsl #21
1001ac9a:	ea23 534c 	bic.w	r3, r3, ip, lsl #21
1001ac9e:	ea50 3501 	orrs.w	r5, r0, r1, lsl #12
1001aca2:	bf18      	it	ne
1001aca4:	ea52 3503 	orrsne.w	r5, r2, r3, lsl #12
1001aca8:	f441 1180 	orr.w	r1, r1, #1048576	@ 0x100000
1001acac:	f443 1380 	orr.w	r3, r3, #1048576	@ 0x100000
1001acb0:	d038      	beq.n	1001ad24 <__aeabi_dmul+0xb4>
1001acb2:	fba0 ce02 	umull	ip, lr, r0, r2
1001acb6:	f04f 0500 	mov.w	r5, #0
1001acba:	fbe1 e502 	umlal	lr, r5, r1, r2
1001acbe:	f006 4200 	and.w	r2, r6, #2147483648	@ 0x80000000
1001acc2:	fbe0 e503 	umlal	lr, r5, r0, r3
1001acc6:	f04f 0600 	mov.w	r6, #0
1001acca:	fbe1 5603 	umlal	r5, r6, r1, r3
1001acce:	f09c 0f00 	teq	ip, #0
1001acd2:	bf18      	it	ne
1001acd4:	f04e 0e01 	orrne.w	lr, lr, #1
1001acd8:	f1a4 04ff 	sub.w	r4, r4, #255	@ 0xff
1001acdc:	f5b6 7f00 	cmp.w	r6, #512	@ 0x200
1001ace0:	f564 7440 	sbc.w	r4, r4, #768	@ 0x300
1001ace4:	d204      	bcs.n	1001acf0 <__aeabi_dmul+0x80>
1001ace6:	ea5f 0e4e 	movs.w	lr, lr, lsl #1
1001acea:	416d      	adcs	r5, r5
1001acec:	eb46 0606 	adc.w	r6, r6, r6
1001acf0:	ea42 21c6 	orr.w	r1, r2, r6, lsl #11
1001acf4:	ea41 5155 	orr.w	r1, r1, r5, lsr #21
1001acf8:	ea4f 20c5 	mov.w	r0, r5, lsl #11
1001acfc:	ea40 505e 	orr.w	r0, r0, lr, lsr #21
1001ad00:	ea4f 2ece 	mov.w	lr, lr, lsl #11
1001ad04:	f1b4 0cfd 	subs.w	ip, r4, #253	@ 0xfd
1001ad08:	bf88      	it	hi
1001ad0a:	f5bc 6fe0 	cmphi.w	ip, #1792	@ 0x700
1001ad0e:	d81e      	bhi.n	1001ad4e <__aeabi_dmul+0xde>
1001ad10:	f1be 4f00 	cmp.w	lr, #2147483648	@ 0x80000000
1001ad14:	bf08      	it	eq
1001ad16:	ea5f 0e50 	movseq.w	lr, r0, lsr #1
1001ad1a:	f150 0000 	adcs.w	r0, r0, #0
1001ad1e:	eb41 5104 	adc.w	r1, r1, r4, lsl #20
1001ad22:	bd70      	pop	{r4, r5, r6, pc}
1001ad24:	f006 4600 	and.w	r6, r6, #2147483648	@ 0x80000000
1001ad28:	ea46 0101 	orr.w	r1, r6, r1
1001ad2c:	ea40 0002 	orr.w	r0, r0, r2
1001ad30:	ea81 0103 	eor.w	r1, r1, r3
1001ad34:	ebb4 045c 	subs.w	r4, r4, ip, lsr #1
1001ad38:	bfc2      	ittt	gt
1001ad3a:	ebd4 050c 	rsbsgt	r5, r4, ip
1001ad3e:	ea41 5104 	orrgt.w	r1, r1, r4, lsl #20
1001ad42:	bd70      	popgt	{r4, r5, r6, pc}
1001ad44:	f441 1180 	orr.w	r1, r1, #1048576	@ 0x100000
1001ad48:	f04f 0e00 	mov.w	lr, #0
1001ad4c:	3c01      	subs	r4, #1
1001ad4e:	f300 80ab 	bgt.w	1001aea8 <__aeabi_dmul+0x238>
1001ad52:	f114 0f36 	cmn.w	r4, #54	@ 0x36
1001ad56:	bfde      	ittt	le
1001ad58:	2000      	movle	r0, #0
1001ad5a:	f001 4100 	andle.w	r1, r1, #2147483648	@ 0x80000000
1001ad5e:	bd70      	pople	{r4, r5, r6, pc}
1001ad60:	f1c4 0400 	rsb	r4, r4, #0
1001ad64:	3c20      	subs	r4, #32
1001ad66:	da35      	bge.n	1001add4 <__aeabi_dmul+0x164>
1001ad68:	340c      	adds	r4, #12
1001ad6a:	dc1b      	bgt.n	1001ada4 <__aeabi_dmul+0x134>
1001ad6c:	f104 0414 	add.w	r4, r4, #20
1001ad70:	f1c4 0520 	rsb	r5, r4, #32
1001ad74:	fa00 f305 	lsl.w	r3, r0, r5
1001ad78:	fa20 f004 	lsr.w	r0, r0, r4
1001ad7c:	fa01 f205 	lsl.w	r2, r1, r5
1001ad80:	ea40 0002 	orr.w	r0, r0, r2
1001ad84:	f001 4200 	and.w	r2, r1, #2147483648	@ 0x80000000
1001ad88:	f021 4100 	bic.w	r1, r1, #2147483648	@ 0x80000000
1001ad8c:	eb10 70d3 	adds.w	r0, r0, r3, lsr #31
1001ad90:	fa21 f604 	lsr.w	r6, r1, r4
1001ad94:	eb42 0106 	adc.w	r1, r2, r6
1001ad98:	ea5e 0e43 	orrs.w	lr, lr, r3, lsl #1
1001ad9c:	bf08      	it	eq
1001ad9e:	ea20 70d3 	biceq.w	r0, r0, r3, lsr #31
1001ada2:	bd70      	pop	{r4, r5, r6, pc}
1001ada4:	f1c4 040c 	rsb	r4, r4, #12
1001ada8:	f1c4 0520 	rsb	r5, r4, #32
1001adac:	fa00 f304 	lsl.w	r3, r0, r4
1001adb0:	fa20 f005 	lsr.w	r0, r0, r5
1001adb4:	fa01 f204 	lsl.w	r2, r1, r4
1001adb8:	ea40 0002 	orr.w	r0, r0, r2
1001adbc:	f001 4100 	and.w	r1, r1, #2147483648	@ 0x80000000
1001adc0:	eb10 70d3 	adds.w	r0, r0, r3, lsr #31
1001adc4:	f141 0100 	adc.w	r1, r1, #0
1001adc8:	ea5e 0e43 	orrs.w	lr, lr, r3, lsl #1
1001adcc:	bf08      	it	eq
1001adce:	ea20 70d3 	biceq.w	r0, r0, r3, lsr #31
1001add2:	bd70      	pop	{r4, r5, r6, pc}
1001add4:	f1c4 0520 	rsb	r5, r4, #32
1001add8:	fa00 f205 	lsl.w	r2, r0, r5
1001addc:	ea4e 0e02 	orr.w	lr, lr, r2
1001ade0:	fa20 f304 	lsr.w	r3, r0, r4
1001ade4:	fa01 f205 	lsl.w	r2, r1, r5
1001ade8:	ea43 0302 	orr.w	r3, r3, r2
1001adec:	fa21 f004 	lsr.w	r0, r1, r4
1001adf0:	f001 4100 	and.w	r1, r1, #2147483648	@ 0x80000000
1001adf4:	fa21 f204 	lsr.w	r2, r1, r4
1001adf8:	ea20 0002 	bic.w	r0, r0, r2
1001adfc:	eb00 70d3 	add.w	r0, r0, r3, lsr #31
1001ae00:	ea5e 0e43 	orrs.w	lr, lr, r3, lsl #1
1001ae04:	bf08      	it	eq
1001ae06:	ea20 70d3 	biceq.w	r0, r0, r3, lsr #31
1001ae0a:	bd70      	pop	{r4, r5, r6, pc}
1001ae0c:	f094 0f00 	teq	r4, #0
1001ae10:	d10f      	bne.n	1001ae32 <__aeabi_dmul+0x1c2>
1001ae12:	f001 4600 	and.w	r6, r1, #2147483648	@ 0x80000000
1001ae16:	0040      	lsls	r0, r0, #1
1001ae18:	eb41 0101 	adc.w	r1, r1, r1
1001ae1c:	f411 1f80 	tst.w	r1, #1048576	@ 0x100000
1001ae20:	bf08      	it	eq
1001ae22:	3c01      	subeq	r4, #1
1001ae24:	d0f7      	beq.n	1001ae16 <__aeabi_dmul+0x1a6>
1001ae26:	ea41 0106 	orr.w	r1, r1, r6
1001ae2a:	f095 0f00 	teq	r5, #0
1001ae2e:	bf18      	it	ne
1001ae30:	4770      	bxne	lr
1001ae32:	f003 4600 	and.w	r6, r3, #2147483648	@ 0x80000000
1001ae36:	0052      	lsls	r2, r2, #1
1001ae38:	eb43 0303 	adc.w	r3, r3, r3
1001ae3c:	f413 1f80 	tst.w	r3, #1048576	@ 0x100000
1001ae40:	bf08      	it	eq
1001ae42:	3d01      	subeq	r5, #1
1001ae44:	d0f7      	beq.n	1001ae36 <__aeabi_dmul+0x1c6>
1001ae46:	ea43 0306 	orr.w	r3, r3, r6
1001ae4a:	4770      	bx	lr
1001ae4c:	ea94 0f0c 	teq	r4, ip
1001ae50:	ea0c 5513 	and.w	r5, ip, r3, lsr #20
1001ae54:	bf18      	it	ne
1001ae56:	ea95 0f0c 	teqne	r5, ip
1001ae5a:	d00c      	beq.n	1001ae76 <__aeabi_dmul+0x206>
1001ae5c:	ea50 0641 	orrs.w	r6, r0, r1, lsl #1
1001ae60:	bf18      	it	ne
1001ae62:	ea52 0643 	orrsne.w	r6, r2, r3, lsl #1
1001ae66:	d1d1      	bne.n	1001ae0c <__aeabi_dmul+0x19c>
1001ae68:	ea81 0103 	eor.w	r1, r1, r3
1001ae6c:	f001 4100 	and.w	r1, r1, #2147483648	@ 0x80000000
1001ae70:	f04f 0000 	mov.w	r0, #0
1001ae74:	bd70      	pop	{r4, r5, r6, pc}
1001ae76:	ea50 0641 	orrs.w	r6, r0, r1, lsl #1
1001ae7a:	bf06      	itte	eq
1001ae7c:	4610      	moveq	r0, r2
1001ae7e:	4619      	moveq	r1, r3
1001ae80:	ea52 0643 	orrsne.w	r6, r2, r3, lsl #1
1001ae84:	d019      	beq.n	1001aeba <__aeabi_dmul+0x24a>
1001ae86:	ea94 0f0c 	teq	r4, ip
1001ae8a:	d102      	bne.n	1001ae92 <__aeabi_dmul+0x222>
1001ae8c:	ea50 3601 	orrs.w	r6, r0, r1, lsl #12
1001ae90:	d113      	bne.n	1001aeba <__aeabi_dmul+0x24a>
1001ae92:	ea95 0f0c 	teq	r5, ip
1001ae96:	d105      	bne.n	1001aea4 <__aeabi_dmul+0x234>
1001ae98:	ea52 3603 	orrs.w	r6, r2, r3, lsl #12
1001ae9c:	bf1c      	itt	ne
1001ae9e:	4610      	movne	r0, r2
1001aea0:	4619      	movne	r1, r3
1001aea2:	d10a      	bne.n	1001aeba <__aeabi_dmul+0x24a>
1001aea4:	ea81 0103 	eor.w	r1, r1, r3
1001aea8:	f001 4100 	and.w	r1, r1, #2147483648	@ 0x80000000
1001aeac:	f041 41fe 	orr.w	r1, r1, #2130706432	@ 0x7f000000
1001aeb0:	f441 0170 	orr.w	r1, r1, #15728640	@ 0xf00000
1001aeb4:	f04f 0000 	mov.w	r0, #0
1001aeb8:	bd70      	pop	{r4, r5, r6, pc}
1001aeba:	f041 41fe 	orr.w	r1, r1, #2130706432	@ 0x7f000000
1001aebe:	f441 0178 	orr.w	r1, r1, #16252928	@ 0xf80000
1001aec2:	bd70      	pop	{r4, r5, r6, pc}

1001aec4 <__aeabi_ddiv>:
1001aec4:	b570      	push	{r4, r5, r6, lr}
1001aec6:	f04f 0cff 	mov.w	ip, #255	@ 0xff
1001aeca:	f44c 6ce0 	orr.w	ip, ip, #1792	@ 0x700
1001aece:	ea1c 5411 	ands.w	r4, ip, r1, lsr #20
1001aed2:	bf1d      	ittte	ne
1001aed4:	ea1c 5513 	andsne.w	r5, ip, r3, lsr #20
1001aed8:	ea94 0f0c 	teqne	r4, ip
1001aedc:	ea95 0f0c 	teqne	r5, ip
1001aee0:	f000 f8a7 	bleq	1001b032 <__aeabi_ddiv+0x16e>
1001aee4:	eba4 0405 	sub.w	r4, r4, r5
1001aee8:	ea81 0e03 	eor.w	lr, r1, r3
1001aeec:	ea52 3503 	orrs.w	r5, r2, r3, lsl #12
1001aef0:	ea4f 3101 	mov.w	r1, r1, lsl #12
1001aef4:	f000 8088 	beq.w	1001b008 <__aeabi_ddiv+0x144>
1001aef8:	ea4f 3303 	mov.w	r3, r3, lsl #12
1001aefc:	f04f 5580 	mov.w	r5, #268435456	@ 0x10000000
1001af00:	ea45 1313 	orr.w	r3, r5, r3, lsr #4
1001af04:	ea43 6312 	orr.w	r3, r3, r2, lsr #24
1001af08:	ea4f 2202 	mov.w	r2, r2, lsl #8
1001af0c:	ea45 1511 	orr.w	r5, r5, r1, lsr #4
1001af10:	ea45 6510 	orr.w	r5, r5, r0, lsr #24
1001af14:	ea4f 2600 	mov.w	r6, r0, lsl #8
1001af18:	f00e 4100 	and.w	r1, lr, #2147483648	@ 0x80000000
1001af1c:	429d      	cmp	r5, r3
1001af1e:	bf08      	it	eq
1001af20:	4296      	cmpeq	r6, r2
1001af22:	f144 04fd 	adc.w	r4, r4, #253	@ 0xfd
1001af26:	f504 7440 	add.w	r4, r4, #768	@ 0x300
1001af2a:	d202      	bcs.n	1001af32 <__aeabi_ddiv+0x6e>
1001af2c:	085b      	lsrs	r3, r3, #1
1001af2e:	ea4f 0232 	mov.w	r2, r2, rrx
1001af32:	1ab6      	subs	r6, r6, r2
1001af34:	eb65 0503 	sbc.w	r5, r5, r3
1001af38:	085b      	lsrs	r3, r3, #1
1001af3a:	ea4f 0232 	mov.w	r2, r2, rrx
1001af3e:	f44f 1080 	mov.w	r0, #1048576	@ 0x100000
1001af42:	f44f 2c00 	mov.w	ip, #524288	@ 0x80000
1001af46:	ebb6 0e02 	subs.w	lr, r6, r2
1001af4a:	eb75 0e03 	sbcs.w	lr, r5, r3
1001af4e:	bf22      	ittt	cs
1001af50:	1ab6      	subcs	r6, r6, r2
1001af52:	4675      	movcs	r5, lr
1001af54:	ea40 000c 	orrcs.w	r0, r0, ip
1001af58:	085b      	lsrs	r3, r3, #1
1001af5a:	ea4f 0232 	mov.w	r2, r2, rrx
1001af5e:	ebb6 0e02 	subs.w	lr, r6, r2
1001af62:	eb75 0e03 	sbcs.w	lr, r5, r3
1001af66:	bf22      	ittt	cs
1001af68:	1ab6      	subcs	r6, r6, r2
1001af6a:	4675      	movcs	r5, lr
1001af6c:	ea40 005c 	orrcs.w	r0, r0, ip, lsr #1
1001af70:	085b      	lsrs	r3, r3, #1
1001af72:	ea4f 0232 	mov.w	r2, r2, rrx
1001af76:	ebb6 0e02 	subs.w	lr, r6, r2
1001af7a:	eb75 0e03 	sbcs.w	lr, r5, r3
1001af7e:	bf22      	ittt	cs
1001af80:	1ab6      	subcs	r6, r6, r2
1001af82:	4675      	movcs	r5, lr
1001af84:	ea40 009c 	orrcs.w	r0, r0, ip, lsr #2
1001af88:	085b      	lsrs	r3, r3, #1
1001af8a:	ea4f 0232 	mov.w	r2, r2, rrx
1001af8e:	ebb6 0e02 	subs.w	lr, r6, r2
1001af92:	eb75 0e03 	sbcs.w	lr, r5, r3
1001af96:	bf22      	ittt	cs
1001af98:	1ab6      	subcs	r6, r6, r2
1001af9a:	4675      	movcs	r5, lr
1001af9c:	ea40 00dc 	orrcs.w	r0, r0, ip, lsr #3
1001afa0:	ea55 0e06 	orrs.w	lr, r5, r6
1001afa4:	d018      	beq.n	1001afd8 <__aeabi_ddiv+0x114>
1001afa6:	ea4f 1505 	mov.w	r5, r5, lsl #4
1001afaa:	ea45 7516 	orr.w	r5, r5, r6, lsr #28
1001afae:	ea4f 1606 	mov.w	r6, r6, lsl #4
1001afb2:	ea4f 03c3 	mov.w	r3, r3, lsl #3
1001afb6:	ea43 7352 	orr.w	r3, r3, r2, lsr #29
1001afba:	ea4f 02c2 	mov.w	r2, r2, lsl #3
1001afbe:	ea5f 1c1c 	movs.w	ip, ip, lsr #4
1001afc2:	d1c0      	bne.n	1001af46 <__aeabi_ddiv+0x82>
1001afc4:	f411 1f80 	tst.w	r1, #1048576	@ 0x100000
1001afc8:	d10b      	bne.n	1001afe2 <__aeabi_ddiv+0x11e>
1001afca:	ea41 0100 	orr.w	r1, r1, r0
1001afce:	f04f 0000 	mov.w	r0, #0
1001afd2:	f04f 4c00 	mov.w	ip, #2147483648	@ 0x80000000
1001afd6:	e7b6      	b.n	1001af46 <__aeabi_ddiv+0x82>
1001afd8:	f411 1f80 	tst.w	r1, #1048576	@ 0x100000
1001afdc:	bf04      	itt	eq
1001afde:	4301      	orreq	r1, r0
1001afe0:	2000      	moveq	r0, #0
1001afe2:	f1b4 0cfd 	subs.w	ip, r4, #253	@ 0xfd
1001afe6:	bf88      	it	hi
1001afe8:	f5bc 6fe0 	cmphi.w	ip, #1792	@ 0x700
1001afec:	f63f aeaf 	bhi.w	1001ad4e <__aeabi_dmul+0xde>
1001aff0:	ebb5 0c03 	subs.w	ip, r5, r3
1001aff4:	bf04      	itt	eq
1001aff6:	ebb6 0c02 	subseq.w	ip, r6, r2
1001affa:	ea5f 0c50 	movseq.w	ip, r0, lsr #1
1001affe:	f150 0000 	adcs.w	r0, r0, #0
1001b002:	eb41 5104 	adc.w	r1, r1, r4, lsl #20
1001b006:	bd70      	pop	{r4, r5, r6, pc}
1001b008:	f00e 4e00 	and.w	lr, lr, #2147483648	@ 0x80000000
1001b00c:	ea4e 3111 	orr.w	r1, lr, r1, lsr #12
1001b010:	eb14 045c 	adds.w	r4, r4, ip, lsr #1
1001b014:	bfc2      	ittt	gt
1001b016:	ebd4 050c 	rsbsgt	r5, r4, ip
1001b01a:	ea41 5104 	orrgt.w	r1, r1, r4, lsl #20
1001b01e:	bd70      	popgt	{r4, r5, r6, pc}
1001b020:	f441 1180 	orr.w	r1, r1, #1048576	@ 0x100000
1001b024:	f04f 0e00 	mov.w	lr, #0
1001b028:	3c01      	subs	r4, #1
1001b02a:	e690      	b.n	1001ad4e <__aeabi_dmul+0xde>
1001b02c:	ea45 0e06 	orr.w	lr, r5, r6
1001b030:	e68d      	b.n	1001ad4e <__aeabi_dmul+0xde>
1001b032:	ea0c 5513 	and.w	r5, ip, r3, lsr #20
1001b036:	ea94 0f0c 	teq	r4, ip
1001b03a:	bf08      	it	eq
1001b03c:	ea95 0f0c 	teqeq	r5, ip
1001b040:	f43f af3b 	beq.w	1001aeba <__aeabi_dmul+0x24a>
1001b044:	ea94 0f0c 	teq	r4, ip
1001b048:	d10a      	bne.n	1001b060 <__aeabi_ddiv+0x19c>
1001b04a:	ea50 3401 	orrs.w	r4, r0, r1, lsl #12
1001b04e:	f47f af34 	bne.w	1001aeba <__aeabi_dmul+0x24a>
1001b052:	ea95 0f0c 	teq	r5, ip
1001b056:	f47f af25 	bne.w	1001aea4 <__aeabi_dmul+0x234>
1001b05a:	4610      	mov	r0, r2
1001b05c:	4619      	mov	r1, r3
1001b05e:	e72c      	b.n	1001aeba <__aeabi_dmul+0x24a>
1001b060:	ea95 0f0c 	teq	r5, ip
1001b064:	d106      	bne.n	1001b074 <__aeabi_ddiv+0x1b0>
1001b066:	ea52 3503 	orrs.w	r5, r2, r3, lsl #12
1001b06a:	f43f aefd 	beq.w	1001ae68 <__aeabi_dmul+0x1f8>
1001b06e:	4610      	mov	r0, r2
1001b070:	4619      	mov	r1, r3
1001b072:	e722      	b.n	1001aeba <__aeabi_dmul+0x24a>
1001b074:	ea50 0641 	orrs.w	r6, r0, r1, lsl #1
1001b078:	bf18      	it	ne
1001b07a:	ea52 0643 	orrsne.w	r6, r2, r3, lsl #1
1001b07e:	f47f aec5 	bne.w	1001ae0c <__aeabi_dmul+0x19c>
1001b082:	ea50 0441 	orrs.w	r4, r0, r1, lsl #1
1001b086:	f47f af0d 	bne.w	1001aea4 <__aeabi_dmul+0x234>
1001b08a:	ea52 0543 	orrs.w	r5, r2, r3, lsl #1
1001b08e:	f47f aeeb 	bne.w	1001ae68 <__aeabi_dmul+0x1f8>
1001b092:	e712      	b.n	1001aeba <__aeabi_dmul+0x24a>

1001b094 <__gedf2>:
1001b094:	f04f 3cff 	mov.w	ip, #4294967295	@ 0xffffffff
1001b098:	e006      	b.n	1001b0a8 <__cmpdf2+0x4>
1001b09a:	bf00      	nop

1001b09c <__ledf2>:
1001b09c:	f04f 0c01 	mov.w	ip, #1
1001b0a0:	e002      	b.n	1001b0a8 <__cmpdf2+0x4>
1001b0a2:	bf00      	nop

1001b0a4 <__cmpdf2>:
1001b0a4:	f04f 0c01 	mov.w	ip, #1
1001b0a8:	f84d cd04 	str.w	ip, [sp, #-4]!
1001b0ac:	ea4f 0c41 	mov.w	ip, r1, lsl #1
1001b0b0:	ea7f 5c6c 	mvns.w	ip, ip, asr #21
1001b0b4:	ea4f 0c43 	mov.w	ip, r3, lsl #1
1001b0b8:	bf18      	it	ne
1001b0ba:	ea7f 5c6c 	mvnsne.w	ip, ip, asr #21
1001b0be:	d01b      	beq.n	1001b0f8 <__cmpdf2+0x54>
1001b0c0:	b001      	add	sp, #4
1001b0c2:	ea50 0c41 	orrs.w	ip, r0, r1, lsl #1
1001b0c6:	bf0c      	ite	eq
1001b0c8:	ea52 0c43 	orrseq.w	ip, r2, r3, lsl #1
1001b0cc:	ea91 0f03 	teqne	r1, r3
1001b0d0:	bf02      	ittt	eq
1001b0d2:	ea90 0f02 	teqeq	r0, r2
1001b0d6:	2000      	moveq	r0, #0
1001b0d8:	4770      	bxeq	lr
1001b0da:	f110 0f00 	cmn.w	r0, #0
1001b0de:	ea91 0f03 	teq	r1, r3
1001b0e2:	bf58      	it	pl
1001b0e4:	4299      	cmppl	r1, r3
1001b0e6:	bf08      	it	eq
1001b0e8:	4290      	cmpeq	r0, r2
1001b0ea:	bf2c      	ite	cs
1001b0ec:	17d8      	asrcs	r0, r3, #31
1001b0ee:	ea6f 70e3 	mvncc.w	r0, r3, asr #31
1001b0f2:	f040 0001 	orr.w	r0, r0, #1
1001b0f6:	4770      	bx	lr
1001b0f8:	ea4f 0c41 	mov.w	ip, r1, lsl #1
1001b0fc:	ea7f 5c6c 	mvns.w	ip, ip, asr #21
1001b100:	d102      	bne.n	1001b108 <__cmpdf2+0x64>
1001b102:	ea50 3c01 	orrs.w	ip, r0, r1, lsl #12
1001b106:	d107      	bne.n	1001b118 <__cmpdf2+0x74>
1001b108:	ea4f 0c43 	mov.w	ip, r3, lsl #1
1001b10c:	ea7f 5c6c 	mvns.w	ip, ip, asr #21
1001b110:	d1d6      	bne.n	1001b0c0 <__cmpdf2+0x1c>
1001b112:	ea52 3c03 	orrs.w	ip, r2, r3, lsl #12
1001b116:	d0d3      	beq.n	1001b0c0 <__cmpdf2+0x1c>
1001b118:	f85d 0b04 	ldr.w	r0, [sp], #4
1001b11c:	4770      	bx	lr
1001b11e:	bf00      	nop

1001b120 <__aeabi_cdrcmple>:
1001b120:	4684      	mov	ip, r0
1001b122:	4610      	mov	r0, r2
1001b124:	4662      	mov	r2, ip
1001b126:	468c      	mov	ip, r1
1001b128:	4619      	mov	r1, r3
1001b12a:	4663      	mov	r3, ip
1001b12c:	e000      	b.n	1001b130 <__aeabi_cdcmpeq>
1001b12e:	bf00      	nop

1001b130 <__aeabi_cdcmpeq>:
1001b130:	b501      	push	{r0, lr}
1001b132:	f7ff ffb7 	bl	1001b0a4 <__cmpdf2>
1001b136:	2800      	cmp	r0, #0
1001b138:	bf48      	it	mi
1001b13a:	f110 0f00 	cmnmi.w	r0, #0
1001b13e:	bd01      	pop	{r0, pc}

1001b140 <__aeabi_dcmpeq>:
1001b140:	f84d ed08 	str.w	lr, [sp, #-8]!
1001b144:	f7ff fff4 	bl	1001b130 <__aeabi_cdcmpeq>
1001b148:	bf0c      	ite	eq
1001b14a:	2001      	moveq	r0, #1
1001b14c:	2000      	movne	r0, #0
1001b14e:	f85d fb08 	ldr.w	pc, [sp], #8
1001b152:	bf00      	nop

1001b154 <__aeabi_dcmplt>:
1001b154:	f84d ed08 	str.w	lr, [sp, #-8]!
1001b158:	f7ff ffea 	bl	1001b130 <__aeabi_cdcmpeq>
1001b15c:	bf34      	ite	cc
1001b15e:	2001      	movcc	r0, #1
1001b160:	2000      	movcs	r0, #0
1001b162:	f85d fb08 	ldr.w	pc, [sp], #8
1001b166:	bf00      	nop

1001b168 <__aeabi_dcmple>:
1001b168:	f84d ed08 	str.w	lr, [sp, #-8]!
1001b16c:	f7ff ffe0 	bl	1001b130 <__aeabi_cdcmpeq>
1001b170:	bf94      	ite	ls
1001b172:	2001      	movls	r0, #1
1001b174:	2000      	movhi	r0, #0
1001b176:	f85d fb08 	ldr.w	pc, [sp], #8
1001b17a:	bf00      	nop

1001b17c <__aeabi_dcmpge>:
1001b17c:	f84d ed08 	str.w	lr, [sp, #-8]!
1001b180:	f7ff ffce 	bl	1001b120 <__aeabi_cdrcmple>
1001b184:	bf94      	ite	ls
1001b186:	2001      	movls	r0, #1
1001b188:	2000      	movhi	r0, #0
1001b18a:	f85d fb08 	ldr.w	pc, [sp], #8
1001b18e:	bf00      	nop

1001b190 <__aeabi_dcmpgt>:
1001b190:	f84d ed08 	str.w	lr, [sp, #-8]!
1001b194:	f7ff ffc4 	bl	1001b120 <__aeabi_cdrcmple>
1001b198:	bf34      	ite	cc
1001b19a:	2001      	movcc	r0, #1
1001b19c:	2000      	movcs	r0, #0
1001b19e:	f85d fb08 	ldr.w	pc, [sp], #8
1001b1a2:	bf00      	nop

1001b1a4 <__aeabi_dcmpun>:
1001b1a4:	ea4f 0c41 	mov.w	ip, r1, lsl #1
1001b1a8:	ea7f 5c6c 	mvns.w	ip, ip, asr #21
1001b1ac:	d102      	bne.n	1001b1b4 <__aeabi_dcmpun+0x10>
1001b1ae:	ea50 3c01 	orrs.w	ip, r0, r1, lsl #12
1001b1b2:	d10a      	bne.n	1001b1ca <__aeabi_dcmpun+0x26>
1001b1b4:	ea4f 0c43 	mov.w	ip, r3, lsl #1
1001b1b8:	ea7f 5c6c 	mvns.w	ip, ip, asr #21
1001b1bc:	d102      	bne.n	1001b1c4 <__aeabi_dcmpun+0x20>
1001b1be:	ea52 3c03 	orrs.w	ip, r2, r3, lsl #12
1001b1c2:	d102      	bne.n	1001b1ca <__aeabi_dcmpun+0x26>
1001b1c4:	f04f 0000 	mov.w	r0, #0
1001b1c8:	4770      	bx	lr
1001b1ca:	f04f 0001 	mov.w	r0, #1
1001b1ce:	4770      	bx	lr

1001b1d0 <__aeabi_d2iz>:
1001b1d0:	ea4f 0241 	mov.w	r2, r1, lsl #1
1001b1d4:	f512 1200 	adds.w	r2, r2, #2097152	@ 0x200000
1001b1d8:	d215      	bcs.n	1001b206 <__aeabi_d2iz+0x36>
1001b1da:	d511      	bpl.n	1001b200 <__aeabi_d2iz+0x30>
1001b1dc:	f46f 7378 	mvn.w	r3, #992	@ 0x3e0
1001b1e0:	ebb3 5262 	subs.w	r2, r3, r2, asr #21
1001b1e4:	d912      	bls.n	1001b20c <__aeabi_d2iz+0x3c>
1001b1e6:	ea4f 23c1 	mov.w	r3, r1, lsl #11
1001b1ea:	f043 4300 	orr.w	r3, r3, #2147483648	@ 0x80000000
1001b1ee:	ea43 5350 	orr.w	r3, r3, r0, lsr #21
1001b1f2:	f011 4f00 	tst.w	r1, #2147483648	@ 0x80000000
1001b1f6:	fa23 f002 	lsr.w	r0, r3, r2
1001b1fa:	bf18      	it	ne
1001b1fc:	4240      	negne	r0, r0
1001b1fe:	4770      	bx	lr
1001b200:	f04f 0000 	mov.w	r0, #0
1001b204:	4770      	bx	lr
1001b206:	ea50 3001 	orrs.w	r0, r0, r1, lsl #12
1001b20a:	d105      	bne.n	1001b218 <__aeabi_d2iz+0x48>
1001b20c:	f011 4000 	ands.w	r0, r1, #2147483648	@ 0x80000000
1001b210:	bf08      	it	eq
1001b212:	f06f 4000 	mvneq.w	r0, #2147483648	@ 0x80000000
1001b216:	4770      	bx	lr
1001b218:	f04f 0000 	mov.w	r0, #0
1001b21c:	4770      	bx	lr
1001b21e:	bf00      	nop

1001b220 <__aeabi_uldivmod>:
1001b220:	b953      	cbnz	r3, 1001b238 <__aeabi_uldivmod+0x18>
1001b222:	b94a      	cbnz	r2, 1001b238 <__aeabi_uldivmod+0x18>
1001b224:	2900      	cmp	r1, #0
1001b226:	bf08      	it	eq
1001b228:	2800      	cmpeq	r0, #0
1001b22a:	bf1c      	itt	ne
1001b22c:	f04f 31ff 	movne.w	r1, #4294967295	@ 0xffffffff
1001b230:	f04f 30ff 	movne.w	r0, #4294967295	@ 0xffffffff
1001b234:	f000 b96a 	b.w	1001b50c <__aeabi_idiv0>
1001b238:	f1ad 0c08 	sub.w	ip, sp, #8
1001b23c:	e96d ce04 	strd	ip, lr, [sp, #-16]!
1001b240:	f000 f806 	bl	1001b250 <__udivmoddi4>
1001b244:	f8dd e004 	ldr.w	lr, [sp, #4]
1001b248:	e9dd 2302 	ldrd	r2, r3, [sp, #8]
1001b24c:	b004      	add	sp, #16
1001b24e:	4770      	bx	lr

1001b250 <__udivmoddi4>:
1001b250:	e92d 47f0 	stmdb	sp!, {r4, r5, r6, r7, r8, r9, sl, lr}
1001b254:	9d08      	ldr	r5, [sp, #32]
1001b256:	460c      	mov	r4, r1
1001b258:	2b00      	cmp	r3, #0
1001b25a:	d14e      	bne.n	1001b2fa <__udivmoddi4+0xaa>
1001b25c:	4694      	mov	ip, r2
1001b25e:	458c      	cmp	ip, r1
1001b260:	4686      	mov	lr, r0
1001b262:	fab2 f282 	clz	r2, r2
1001b266:	d962      	bls.n	1001b32e <__udivmoddi4+0xde>
1001b268:	b14a      	cbz	r2, 1001b27e <__udivmoddi4+0x2e>
1001b26a:	f1c2 0320 	rsb	r3, r2, #32
1001b26e:	4091      	lsls	r1, r2
1001b270:	fa20 f303 	lsr.w	r3, r0, r3
1001b274:	fa0c fc02 	lsl.w	ip, ip, r2
1001b278:	4319      	orrs	r1, r3
1001b27a:	fa00 fe02 	lsl.w	lr, r0, r2
1001b27e:	ea4f 471c 	mov.w	r7, ip, lsr #16
1001b282:	fa1f f68c 	uxth.w	r6, ip
1001b286:	fbb1 f4f7 	udiv	r4, r1, r7
1001b28a:	ea4f 431e 	mov.w	r3, lr, lsr #16
1001b28e:	fb07 1114 	mls	r1, r7, r4, r1
1001b292:	ea43 4301 	orr.w	r3, r3, r1, lsl #16
1001b296:	fb04 f106 	mul.w	r1, r4, r6
1001b29a:	4299      	cmp	r1, r3
1001b29c:	d90a      	bls.n	1001b2b4 <__udivmoddi4+0x64>
1001b29e:	eb1c 0303 	adds.w	r3, ip, r3
1001b2a2:	f104 30ff 	add.w	r0, r4, #4294967295	@ 0xffffffff
1001b2a6:	f080 8112 	bcs.w	1001b4ce <__udivmoddi4+0x27e>
1001b2aa:	4299      	cmp	r1, r3
1001b2ac:	f240 810f 	bls.w	1001b4ce <__udivmoddi4+0x27e>
1001b2b0:	3c02      	subs	r4, #2
1001b2b2:	4463      	add	r3, ip
1001b2b4:	1a59      	subs	r1, r3, r1
1001b2b6:	fa1f f38e 	uxth.w	r3, lr
1001b2ba:	fbb1 f0f7 	udiv	r0, r1, r7
1001b2be:	fb07 1110 	mls	r1, r7, r0, r1
1001b2c2:	ea43 4301 	orr.w	r3, r3, r1, lsl #16
1001b2c6:	fb00 f606 	mul.w	r6, r0, r6
1001b2ca:	429e      	cmp	r6, r3
1001b2cc:	d90a      	bls.n	1001b2e4 <__udivmoddi4+0x94>
1001b2ce:	eb1c 0303 	adds.w	r3, ip, r3
1001b2d2:	f100 31ff 	add.w	r1, r0, #4294967295	@ 0xffffffff
1001b2d6:	f080 80fc 	bcs.w	1001b4d2 <__udivmoddi4+0x282>
1001b2da:	429e      	cmp	r6, r3
1001b2dc:	f240 80f9 	bls.w	1001b4d2 <__udivmoddi4+0x282>
1001b2e0:	4463      	add	r3, ip
1001b2e2:	3802      	subs	r0, #2
1001b2e4:	1b9b      	subs	r3, r3, r6
1001b2e6:	ea40 4004 	orr.w	r0, r0, r4, lsl #16
1001b2ea:	2100      	movs	r1, #0
1001b2ec:	b11d      	cbz	r5, 1001b2f6 <__udivmoddi4+0xa6>
1001b2ee:	40d3      	lsrs	r3, r2
1001b2f0:	2200      	movs	r2, #0
1001b2f2:	e9c5 3200 	strd	r3, r2, [r5]
1001b2f6:	e8bd 87f0 	ldmia.w	sp!, {r4, r5, r6, r7, r8, r9, sl, pc}
1001b2fa:	428b      	cmp	r3, r1
1001b2fc:	d905      	bls.n	1001b30a <__udivmoddi4+0xba>
1001b2fe:	b10d      	cbz	r5, 1001b304 <__udivmoddi4+0xb4>
1001b300:	e9c5 0100 	strd	r0, r1, [r5]
1001b304:	2100      	movs	r1, #0
1001b306:	4608      	mov	r0, r1
1001b308:	e7f5      	b.n	1001b2f6 <__udivmoddi4+0xa6>
1001b30a:	fab3 f183 	clz	r1, r3
1001b30e:	2900      	cmp	r1, #0
1001b310:	d146      	bne.n	1001b3a0 <__udivmoddi4+0x150>
1001b312:	42a3      	cmp	r3, r4
1001b314:	d302      	bcc.n	1001b31c <__udivmoddi4+0xcc>
1001b316:	4290      	cmp	r0, r2
1001b318:	f0c0 80f0 	bcc.w	1001b4fc <__udivmoddi4+0x2ac>
1001b31c:	1a86      	subs	r6, r0, r2
1001b31e:	eb64 0303 	sbc.w	r3, r4, r3
1001b322:	2001      	movs	r0, #1
1001b324:	2d00      	cmp	r5, #0
1001b326:	d0e6      	beq.n	1001b2f6 <__udivmoddi4+0xa6>
1001b328:	e9c5 6300 	strd	r6, r3, [r5]
1001b32c:	e7e3      	b.n	1001b2f6 <__udivmoddi4+0xa6>
1001b32e:	2a00      	cmp	r2, #0
1001b330:	f040 8090 	bne.w	1001b454 <__udivmoddi4+0x204>
1001b334:	eba1 040c 	sub.w	r4, r1, ip
1001b338:	ea4f 481c 	mov.w	r8, ip, lsr #16
1001b33c:	fa1f f78c 	uxth.w	r7, ip
1001b340:	2101      	movs	r1, #1
1001b342:	fbb4 f6f8 	udiv	r6, r4, r8
1001b346:	ea4f 431e 	mov.w	r3, lr, lsr #16
1001b34a:	fb08 4416 	mls	r4, r8, r6, r4
1001b34e:	ea43 4304 	orr.w	r3, r3, r4, lsl #16
1001b352:	fb07 f006 	mul.w	r0, r7, r6
1001b356:	4298      	cmp	r0, r3
1001b358:	d908      	bls.n	1001b36c <__udivmoddi4+0x11c>
1001b35a:	eb1c 0303 	adds.w	r3, ip, r3
1001b35e:	f106 34ff 	add.w	r4, r6, #4294967295	@ 0xffffffff
1001b362:	d202      	bcs.n	1001b36a <__udivmoddi4+0x11a>
1001b364:	4298      	cmp	r0, r3
1001b366:	f200 80cd 	bhi.w	1001b504 <__udivmoddi4+0x2b4>
1001b36a:	4626      	mov	r6, r4
1001b36c:	1a1c      	subs	r4, r3, r0
1001b36e:	fa1f f38e 	uxth.w	r3, lr
1001b372:	fbb4 f0f8 	udiv	r0, r4, r8
1001b376:	fb08 4410 	mls	r4, r8, r0, r4
1001b37a:	ea43 4304 	orr.w	r3, r3, r4, lsl #16
1001b37e:	fb00 f707 	mul.w	r7, r0, r7
1001b382:	429f      	cmp	r7, r3
1001b384:	d908      	bls.n	1001b398 <__udivmoddi4+0x148>
1001b386:	eb1c 0303 	adds.w	r3, ip, r3
1001b38a:	f100 34ff 	add.w	r4, r0, #4294967295	@ 0xffffffff
1001b38e:	d202      	bcs.n	1001b396 <__udivmoddi4+0x146>
1001b390:	429f      	cmp	r7, r3
1001b392:	f200 80b0 	bhi.w	1001b4f6 <__udivmoddi4+0x2a6>
1001b396:	4620      	mov	r0, r4
1001b398:	1bdb      	subs	r3, r3, r7
1001b39a:	ea40 4006 	orr.w	r0, r0, r6, lsl #16
1001b39e:	e7a5      	b.n	1001b2ec <__udivmoddi4+0x9c>
1001b3a0:	f1c1 0620 	rsb	r6, r1, #32
1001b3a4:	408b      	lsls	r3, r1
1001b3a6:	fa22 f706 	lsr.w	r7, r2, r6
1001b3aa:	431f      	orrs	r7, r3
1001b3ac:	fa20 fc06 	lsr.w	ip, r0, r6
1001b3b0:	fa04 f301 	lsl.w	r3, r4, r1
1001b3b4:	ea43 030c 	orr.w	r3, r3, ip
1001b3b8:	40f4      	lsrs	r4, r6
1001b3ba:	fa00 f801 	lsl.w	r8, r0, r1
1001b3be:	0c38      	lsrs	r0, r7, #16
1001b3c0:	ea4f 4913 	mov.w	r9, r3, lsr #16
1001b3c4:	fbb4 fef0 	udiv	lr, r4, r0
1001b3c8:	fa1f fc87 	uxth.w	ip, r7
1001b3cc:	fb00 441e 	mls	r4, r0, lr, r4
1001b3d0:	ea49 4404 	orr.w	r4, r9, r4, lsl #16
1001b3d4:	fb0e f90c 	mul.w	r9, lr, ip
1001b3d8:	45a1      	cmp	r9, r4
1001b3da:	fa02 f201 	lsl.w	r2, r2, r1
1001b3de:	d90a      	bls.n	1001b3f6 <__udivmoddi4+0x1a6>
1001b3e0:	193c      	adds	r4, r7, r4
1001b3e2:	f10e 3aff 	add.w	sl, lr, #4294967295	@ 0xffffffff
1001b3e6:	f080 8084 	bcs.w	1001b4f2 <__udivmoddi4+0x2a2>
1001b3ea:	45a1      	cmp	r9, r4
1001b3ec:	f240 8081 	bls.w	1001b4f2 <__udivmoddi4+0x2a2>
1001b3f0:	f1ae 0e02 	sub.w	lr, lr, #2
1001b3f4:	443c      	add	r4, r7
1001b3f6:	eba4 0409 	sub.w	r4, r4, r9
1001b3fa:	fa1f f983 	uxth.w	r9, r3
1001b3fe:	fbb4 f3f0 	udiv	r3, r4, r0
1001b402:	fb00 4413 	mls	r4, r0, r3, r4
1001b406:	ea49 4404 	orr.w	r4, r9, r4, lsl #16
1001b40a:	fb03 fc0c 	mul.w	ip, r3, ip
1001b40e:	45a4      	cmp	ip, r4
1001b410:	d907      	bls.n	1001b422 <__udivmoddi4+0x1d2>
1001b412:	193c      	adds	r4, r7, r4
1001b414:	f103 30ff 	add.w	r0, r3, #4294967295	@ 0xffffffff
1001b418:	d267      	bcs.n	1001b4ea <__udivmoddi4+0x29a>
1001b41a:	45a4      	cmp	ip, r4
1001b41c:	d965      	bls.n	1001b4ea <__udivmoddi4+0x29a>
1001b41e:	3b02      	subs	r3, #2
1001b420:	443c      	add	r4, r7
1001b422:	ea43 400e 	orr.w	r0, r3, lr, lsl #16
1001b426:	fba0 9302 	umull	r9, r3, r0, r2
1001b42a:	eba4 040c 	sub.w	r4, r4, ip
1001b42e:	429c      	cmp	r4, r3
1001b430:	46ce      	mov	lr, r9
1001b432:	469c      	mov	ip, r3
1001b434:	d351      	bcc.n	1001b4da <__udivmoddi4+0x28a>
1001b436:	d04e      	beq.n	1001b4d6 <__udivmoddi4+0x286>
1001b438:	b155      	cbz	r5, 1001b450 <__udivmoddi4+0x200>
1001b43a:	ebb8 030e 	subs.w	r3, r8, lr
1001b43e:	eb64 040c 	sbc.w	r4, r4, ip
1001b442:	fa04 f606 	lsl.w	r6, r4, r6
1001b446:	40cb      	lsrs	r3, r1
1001b448:	431e      	orrs	r6, r3
1001b44a:	40cc      	lsrs	r4, r1
1001b44c:	e9c5 6400 	strd	r6, r4, [r5]
1001b450:	2100      	movs	r1, #0
1001b452:	e750      	b.n	1001b2f6 <__udivmoddi4+0xa6>
1001b454:	f1c2 0320 	rsb	r3, r2, #32
1001b458:	fa20 f103 	lsr.w	r1, r0, r3
1001b45c:	fa0c fc02 	lsl.w	ip, ip, r2
1001b460:	fa24 f303 	lsr.w	r3, r4, r3
1001b464:	4094      	lsls	r4, r2
1001b466:	430c      	orrs	r4, r1
1001b468:	ea4f 481c 	mov.w	r8, ip, lsr #16
1001b46c:	fa00 fe02 	lsl.w	lr, r0, r2
1001b470:	fa1f f78c 	uxth.w	r7, ip
1001b474:	fbb3 f0f8 	udiv	r0, r3, r8
1001b478:	fb08 3110 	mls	r1, r8, r0, r3
1001b47c:	0c23      	lsrs	r3, r4, #16
1001b47e:	ea43 4301 	orr.w	r3, r3, r1, lsl #16
1001b482:	fb00 f107 	mul.w	r1, r0, r7
1001b486:	4299      	cmp	r1, r3
1001b488:	d908      	bls.n	1001b49c <__udivmoddi4+0x24c>
1001b48a:	eb1c 0303 	adds.w	r3, ip, r3
1001b48e:	f100 36ff 	add.w	r6, r0, #4294967295	@ 0xffffffff
1001b492:	d22c      	bcs.n	1001b4ee <__udivmoddi4+0x29e>
1001b494:	4299      	cmp	r1, r3
1001b496:	d92a      	bls.n	1001b4ee <__udivmoddi4+0x29e>
1001b498:	3802      	subs	r0, #2
1001b49a:	4463      	add	r3, ip
1001b49c:	1a5b      	subs	r3, r3, r1
1001b49e:	b2a4      	uxth	r4, r4
1001b4a0:	fbb3 f1f8 	udiv	r1, r3, r8
1001b4a4:	fb08 3311 	mls	r3, r8, r1, r3
1001b4a8:	ea44 4403 	orr.w	r4, r4, r3, lsl #16
1001b4ac:	fb01 f307 	mul.w	r3, r1, r7
1001b4b0:	42a3      	cmp	r3, r4
1001b4b2:	d908      	bls.n	1001b4c6 <__udivmoddi4+0x276>
1001b4b4:	eb1c 0404 	adds.w	r4, ip, r4
1001b4b8:	f101 36ff 	add.w	r6, r1, #4294967295	@ 0xffffffff
1001b4bc:	d213      	bcs.n	1001b4e6 <__udivmoddi4+0x296>
1001b4be:	42a3      	cmp	r3, r4
1001b4c0:	d911      	bls.n	1001b4e6 <__udivmoddi4+0x296>
1001b4c2:	3902      	subs	r1, #2
1001b4c4:	4464      	add	r4, ip
1001b4c6:	1ae4      	subs	r4, r4, r3
1001b4c8:	ea41 4100 	orr.w	r1, r1, r0, lsl #16
1001b4cc:	e739      	b.n	1001b342 <__udivmoddi4+0xf2>
1001b4ce:	4604      	mov	r4, r0
1001b4d0:	e6f0      	b.n	1001b2b4 <__udivmoddi4+0x64>
1001b4d2:	4608      	mov	r0, r1
1001b4d4:	e706      	b.n	1001b2e4 <__udivmoddi4+0x94>
1001b4d6:	45c8      	cmp	r8, r9
1001b4d8:	d2ae      	bcs.n	1001b438 <__udivmoddi4+0x1e8>
1001b4da:	ebb9 0e02 	subs.w	lr, r9, r2
1001b4de:	eb63 0c07 	sbc.w	ip, r3, r7
1001b4e2:	3801      	subs	r0, #1
1001b4e4:	e7a8      	b.n	1001b438 <__udivmoddi4+0x1e8>
1001b4e6:	4631      	mov	r1, r6
1001b4e8:	e7ed      	b.n	1001b4c6 <__udivmoddi4+0x276>
1001b4ea:	4603      	mov	r3, r0
1001b4ec:	e799      	b.n	1001b422 <__udivmoddi4+0x1d2>
1001b4ee:	4630      	mov	r0, r6
1001b4f0:	e7d4      	b.n	1001b49c <__udivmoddi4+0x24c>
1001b4f2:	46d6      	mov	lr, sl
1001b4f4:	e77f      	b.n	1001b3f6 <__udivmoddi4+0x1a6>
1001b4f6:	4463      	add	r3, ip
1001b4f8:	3802      	subs	r0, #2
1001b4fa:	e74d      	b.n	1001b398 <__udivmoddi4+0x148>
1001b4fc:	4606      	mov	r6, r0
1001b4fe:	4623      	mov	r3, r4
1001b500:	4608      	mov	r0, r1
1001b502:	e70f      	b.n	1001b324 <__udivmoddi4+0xd4>
1001b504:	3e02      	subs	r6, #2
1001b506:	4463      	add	r3, ip
1001b508:	e730      	b.n	1001b36c <__udivmoddi4+0x11c>
1001b50a:	bf00      	nop

1001b50c <__aeabi_idiv0>:
1001b50c:	4770      	bx	lr
1001b50e:	bf00      	nop
1001b510:	20656854 	.word	0x20656854
1001b514:	706d6f43 	.word	0x706d6f43
1001b518:	6e656e6f 	.word	0x6e656e6f
1001b51c:	44492074 	.word	0x44492074
1001b520:	65686320 	.word	0x65686320
1001b524:	20736b63 	.word	0x20736b63
1001b528:	6c696166 	.word	0x6c696166
1001b52c:	61206465 	.word	0x61206465
1001b530:	68742074 	.word	0x68742074
1001b534:	6f632065 	.word	0x6f632065
1001b538:	6e6f706d 	.word	0x6e6f706d
1001b53c:	20746e65 	.word	0x20746e65
1001b540:	65646973 	.word	0x65646973
1001b544:	00000064 	.word	0x00000064
1001b548:	20303243 	.word	0x20303243
1001b54c:	746f6f62 	.word	0x746f6f62
1001b550:	00000000 	.word	0x00000000
1001b554:	35322f31 	.word	0x35322f31
1001b558:	0034322f 	.word	0x0034322f
1001b55c:	2077654e 	.word	0x2077654e
1001b560:	6b726f59 	.word	0x6b726f59
1001b564:	00000000 	.word	0x00000000
1001b568:	3e434f4c 	.word	0x3e434f4c
1001b56c:	440a7325 	.word	0x440a7325
1001b570:	3e455441 	.word	0x3e455441
1001b574:	430a7325 	.word	0x430a7325
1001b578:	3e545355 	.word	0x3e545355
1001b57c:	000a7325 	.word	0x000a7325
1001b580:	76696e55 	.word	0x76696e55
1001b584:	69737265 	.word	0x69737265
1001b588:	00007974 	.word	0x00007974
1001b58c:	2079654b 	.word	0x2079654b
1001b590:	636e7973 	.word	0x636e7973
1001b594:	746f6e20 	.word	0x746f6e20
1001b598:	6d6f6320 	.word	0x6d6f6320
1001b59c:	74656c70 	.word	0x74656c70
1001b5a0:	00006465 	.word	0x00006465
1001b5a4:	6f727245 	.word	0x6f727245
1001b5a8:	55203a72 	.word	0x55203a72
1001b5ac:	6365726e 	.word	0x6365726e
1001b5b0:	696e676f 	.word	0x696e676f
1001b5b4:	2064657a 	.word	0x2064657a
1001b5b8:	6d6d6f63 	.word	0x6d6d6f63
1001b5bc:	20646e61 	.word	0x20646e61
1001b5c0:	65636572 	.word	0x65636572
1001b5c4:	64657669 	.word	0x64657669
1001b5c8:	0a642520 	.word	0x0a642520
1001b5cc:	00000000 	.word	0x00000000
1001b5d0:	706d6f43 	.word	0x706d6f43
1001b5d4:	6e656e6f 	.word	0x6e656e6f
1001b5d8:	74532074 	.word	0x74532074
1001b5dc:	65747261 	.word	0x65747261
1001b5e0:	00000064 	.word	0x00000064

1001b5e4 <FINAL_MASK>:
1001b5e4:	966e4336 79c1ddc3 43d089a0 7fbb6213     6Cn....y...C.b..

1001b5f4 <MASK>:
1001b5f4:	b11fd04b 6fa4e2fb 67d2e956 d42911bb     K......oV..g..).
1001b604:	6c696146 74206465 6e69206f 61697469     Failed to initia
1001b614:	657a696c 43324920 0000002e              lize I2C....

1001b620 <Td4>:
1001b620:	d56a0952 38a53630 9ea340bf fbd7f381     R.j.06.8.@......
1001b630:	8239e37c 87ff2f9b 44438e34 cbe9dec4     |.9../..4.CD....
1001b640:	32947b54 3d23c2a6 0b954cee 4ec3fa42     T{.2..#=.L..B..N
1001b650:	66a12e08 b224d928 49a25b76 25d18b6d     ...f(.$.v[.Im..%
1001b660:	64f6f872 16986886 cc5ca4d4 92b6655d     r..d.h....\.]e..
1001b670:	5048706c dab9edfd 5746155e 849d8da7     lpHP....^.FW....
1001b680:	00abd890 0ad3bc8c 0558e4f7 0645b3b8     ..........X...E.
1001b690:	8f1e2cd0 020f3fca 03bdafc1 6b8a1301     .,...?.........k
1001b6a0:	4111913a eadc674f cecff297 73e6b4f0     :..AOg.........s
1001b6b0:	2274ac96 8535ade7 e837f9e2 6edf751c     ..t"..5...7..u.n
1001b6c0:	711af147 89c5291d 0e62b76f 1bbe18aa     G..q.)..o.b.....
1001b6d0:	4b3e56fc 2079d2c6 fec0db9a f45acd78     .V>K..y ....x.Z.
1001b6e0:	33a8dd1f 31c70788 591012b1 5fec8027     ...3...1...Y'.._
1001b6f0:	a97f5160 0d4ab519 9f7ae52d ef9cc993     `Q....J.-.z.....
1001b700:	4d3be0a0 b0f52aae 3cbbebc8 61995383     ..;M.*.....<.S.a
1001b710:	7e042b17 26d677ba 631469e1 7d0c2155     .+.~.w.&.i.cU!.}

1001b720 <Td>:
1001b720:	51f4a750 7e416553 1a17a4c3 3a275e96     P..QSeA~.....^':
1001b730:	3bab6bcb 1f9d45f1 acfa58ab 4be30393     .k.;.E...X.....K
1001b740:	2030fa55 ad766df6 88cc7691 f5024c25     U.0 .mv..v..%L..
1001b750:	4fe5d7fc c52acbd7 26354480 b562a38f     ...O..*..D5&..b.
1001b760:	deb15a49 25ba1b67 45ea0e98 5dfec0e1     IZ..g..%...E...]
1001b770:	c32f7502 814cf012 8d4697a3 6bd3f9c6     .u/...L...F....k
1001b780:	038f5fe7 15929c95 bf6d7aeb 955259da     ._.......zm..YR.
1001b790:	d4be832d 587421d3 49e06929 8ec9c844     -....!tX)i.ID...
1001b7a0:	75c2896a f48e7978 99583e6b 27b971dd     j..uxy..k>X..q.'
1001b7b0:	bee14fb6 f088ad17 c920ac66 7dce3ab4     .O......f. ..:.}
1001b7c0:	63df4a18 e51a3182 97513360 62537f45     .J.c.1..`3Q.E.Sb
1001b7d0:	b16477e0 bb6bae84 fe81a01c f9082b94     .wd...k......+..
1001b7e0:	70486858 8f45fd19 94de6c87 527bf8b7     XhHp..E..l....{R
1001b7f0:	ab73d323 724b02e2 e31f8f57 6655ab2a     #.s...KrW...*.Uf
1001b800:	b2eb2807 2fb5c203 86c57b9a d33708a5     .(...../.{....7.
1001b810:	302887f2 23bfa5b2 02036aba ed16825c     ..(0...#.j..\...
1001b820:	8acf1c2b a779b492 f307f2f0 4e69e2a1     +.....y.......iN
1001b830:	65daf4cd 0605bed5 d134621f c4a6fe8a     ...e.....b4.....
1001b840:	342e539d a2f355a0 058ae132 a4f6eb75     .S.4.U..2...u...
1001b850:	0b83ec39 4060efaa 5e719f06 bd6e1051     9.....`@..q^Q.n.
1001b860:	3e218af9 96dd063d dd3e05ae 4de6bd46     ..!>=.....>.F..M
1001b870:	91548db5 71c45d05 0406d46f 605015ff     ..T..].qo.....P`
1001b880:	1998fb24 d6bde997 894043cc 67d99e77     $........C@.w..g
1001b890:	b0e842bd 07898b88 e7195b38 79c8eedb     .B......8[.....y
1001b8a0:	a17c0a47 7c420fe9 f8841ec9 00000000     G.|...B|........
1001b8b0:	09808683 322bed48 1e1170ac 6c5a724e     ....H.+2.p..NrZl
1001b8c0:	fd0efffb 0f853856 3daed51e 362d3927     ....V8.....='9-6
1001b8d0:	0a0fd964 685ca621 9b5b54d1 24362e3a     d...!.\h.T[.:.6$
1001b8e0:	0c0a67b1 9357e70f b4ee96d2 1b9b919e     .g....W.........
1001b8f0:	80c0c54f 61dc20a2 5a774b69 1c121a16     O.... .aiKwZ....
1001b900:	e293ba0a c0a02ae5 3c22e043 121b171d     .....*..C."<....
1001b910:	0e090d0b f28bc7ad 2db6a8b9 141ea9c8     ...........-....
1001b920:	57f11985 af75074c ee99ddbb a37f60fd     ...WL.u......`..
1001b930:	f701269f 5c72f5bc 44663bc5 5bfb7e34     .&....r\.;fD4~.[
1001b940:	8b432976 cb23c6dc b6edfc68 b8e4f163     v)C...#.h...c...
1001b950:	d731dcca 42638510 13972240 84c61120     ..1...cB@".. ...
1001b960:	854a247d d2bb3df8 aef93211 c729a16d     }$J..=...2..m.).
1001b970:	1d9e2f4b dcb230f3 0d8652ec 77c1e3d0     K/...0...R.....w
1001b980:	2bb3166c a970b999 119448fa 47e96422     l..+..p..H.."d.G
1001b990:	a8fc8cc4 a0f03f1a 567d2cd8 223390ef     .....?...,}V..3"
1001b9a0:	87494ec7 d938d1c1 8ccaa2fe 98d40b36     .NI...8.....6...
1001b9b0:	a6f581cf a57ade28 dab78e26 3fadbfa4     ....(.z.&......?
1001b9c0:	2c3a9de4 5078920d 6a5fcc9b 547e4662     ..:,..xP.._jbF~T
1001b9d0:	f68d13c2 90d8b8e8 2e39f75e 82c3aff5     ........^.9.....
1001b9e0:	9f5d80be 69d0937c 6fd52da9 cf2512b3     ..].|..i.-.o..%.
1001b9f0:	c8ac993b 10187da7 e89c636e db3bbb7b     ;....}..nc..{.;.
1001ba00:	cd267809 6e5918f4 ec9ab701 834f9aa8     .x&...Yn......O.
1001ba10:	e6956e65 aaffe67e 21bccf08 ef15e8e6     en..~......!....
1001ba20:	bae79bd9 4a6f36ce ea9f09d4 29b07cd6     .....6oJ.....|.)
1001ba30:	31a4b2af 2a3f2331 c6a59430 35a266c0     ...11#?*0....f.5
1001ba40:	744ebc37 fc82caa6 e090d0b0 33a7d815     7.Nt...........3
1001ba50:	f104984a 41ecdaf7 7fcd500e 1791f62f     J......A.P../...
1001ba60:	764dd68d 43efb04d ccaa4d54 e49604df     ..MvM..CTM......
1001ba70:	9ed1b5e3 4c6a881b c12c1fb8 4665517f     ......jL..,..QeF
1001ba80:	9d5eea04 018c355d fa877473 fb0b412e     ..^.]5..st...A..
1001ba90:	b3671d5a 92dbd252 e9105633 6dd64713     Z.g.R...3V...G.m
1001baa0:	9ad7618c 37a10c7a 59f8148e eb133c89     .a..z..7...Y.<..
1001bab0:	cea927ee b761c935 e11ce5ed 7a47b13c     .'..5.a.....<.Gz
1001bac0:	9cd2df59 55f2733f 1814ce79 73c737bf     Y...?s.Uy....7.s
1001bad0:	53f7cdea 5ffdaa5b df3d6f14 7844db86     ...S[.._.o=...Dx
1001bae0:	caaff381 b968c43e 3824342c c2a3405f     ....>.h.,4$8_@..
1001baf0:	161dc372 bce2250c 283c498b ff0d9541     r....%...I<(A...
1001bb00:	39a80171 080cb3de d8b4e49c 6456c190     q..9..........Vd
1001bb10:	7bcb8461 d532b670 486c5c74 d0b85742     a..{p.2.t\lHBW..
1001bb20:	5051f4a7 537e4165 c31a17a4 963a275e     ..QPeA~S....^':.
1001bb30:	cb3bab6b f11f9d45 abacfa58 934be303     k.;.E...X.....K.
1001bb40:	552030fa f6ad766d 9188cc76 25f5024c     .0 Umv..v...L..%
1001bb50:	fc4fe5d7 d7c52acb 80263544 8fb562a3     ..O..*..D5&..b..
1001bb60:	49deb15a 6725ba1b 9845ea0e e15dfec0     Z..I..%g..E...].
1001bb70:	02c32f75 12814cf0 a38d4697 c66bd3f9     u/...L...F....k.
1001bb80:	e7038f5f 9515929c ebbf6d7a da955259     _.......zm..YR..
1001bb90:	2dd4be83 d3587421 2949e069 448ec9c8     ...-!tX.i.I)...D
1001bba0:	6a75c289 78f48e79 6b99583e dd27b971     ..ujy..x>X.kq.'.
1001bbb0:	b6bee14f 17f088ad 66c920ac b47dce3a     O........ .f:.}.
1001bbc0:	1863df4a 82e51a31 60975133 4562537f     J.c.1...3Q.`.SbE
1001bbd0:	e0b16477 84bb6bae 1cfe81a0 94f9082b     wd...k......+...
1001bbe0:	58704868 198f45fd 8794de6c b7527bf8     hHpX.E..l....{R.
1001bbf0:	23ab73d3 e2724b02 57e31f8f 2a6655ab     .s.#.Kr....W.Uf*
1001bc00:	07b2eb28 032fb5c2 9a86c57b a5d33708     (...../.{....7..
1001bc10:	f2302887 b223bfa5 ba02036a 5ced1682     .(0...#.j......\
1001bc20:	2b8acf1c 92a779b4 f0f307f2 a14e69e2     ...+.y.......iN.
1001bc30:	cd65daf4 d50605be 1fd13462 8ac4a6fe     ..e.....b4......
1001bc40:	9d342e53 a0a2f355 32058ae1 75a4f6eb     S.4.U......2...u
1001bc50:	390b83ec aa4060ef 065e719f 51bd6e10     ...9.`@..q^..n.Q
1001bc60:	f93e218a 3d96dd06 aedd3e05 464de6bd     .!>....=.>....MF
1001bc70:	b591548d 0571c45d 6f0406d4 ff605015     .T..].q....o.P`.
1001bc80:	241998fb 97d6bde9 cc894043 7767d99e     ...$....C@....gw
1001bc90:	bdb0e842 8807898b 38e7195b db79c8ee     B.......[..8..y.
1001bca0:	47a17c0a e97c420f c9f8841e 00000000     .|.G.B|.........
1001bcb0:	83098086 48322bed ac1e1170 4e6c5a72     .....+2Hp...rZlN
1001bcc0:	fbfd0eff 560f8538 1e3daed5 27362d39     ....8..V..=.9-6'
1001bcd0:	640a0fd9 21685ca6 d19b5b54 3a24362e     ...d.\h!T[...6$:
1001bce0:	b10c0a67 0f9357e7 d2b4ee96 9e1b9b91     g....W..........
1001bcf0:	4f80c0c5 a261dc20 695a774b 161c121a     ...O .a.KwZi....
1001bd00:	0ae293ba e5c0a02a 433c22e0 1d121b17     ....*...."<C....
1001bd10:	0b0e090d adf28bc7 b92db6a8 c8141ea9     ..........-.....
1001bd20:	8557f119 4caf7507 bbee99dd fda37f60     ..W..u.L....`...
1001bd30:	9ff70126 bc5c72f5 c544663b 345bfb7e     &....r\.;fD.~.[4
1001bd40:	768b4329 dccb23c6 68b6edfc 63b8e4f1     )C.v.#.....h...c
1001bd50:	cad731dc 10426385 40139722 2084c611     .1...cB."..@... 
1001bd60:	7d854a24 f8d2bb3d 11aef932 6dc729a1     $J.}=...2....).m
1001bd70:	4b1d9e2f f3dcb230 ec0d8652 d077c1e3     /..K0...R.....w.
1001bd80:	6c2bb316 99a970b9 fa119448 2247e964     ..+l.p..H...d.G"
1001bd90:	c4a8fc8c 1aa0f03f d8567d2c ef223390     ....?...,}V..3".
1001bda0:	c787494e c1d938d1 fe8ccaa2 3698d40b     NI...8.........6
1001bdb0:	cfa6f581 28a57ade 26dab78e a43fadbf     .....z.(...&..?.
1001bdc0:	e42c3a9d 0d507892 9b6a5fcc 62547e46     .:,..xP.._j.F~Tb
1001bdd0:	c2f68d13 e890d8b8 5e2e39f7 f582c3af     .........9.^....
1001bde0:	be9f5d80 7c69d093 a96fd52d b3cf2512     .]....i|-.o..%..
1001bdf0:	3bc8ac99 a710187d 6ee89c63 7bdb3bbb     ...;}...c..n.;.{
1001be00:	09cd2678 f46e5918 01ec9ab7 a8834f9a     x&...Yn......O..
1001be10:	65e6956e 7eaaffe6 0821bccf e6ef15e8     n..e...~..!.....
1001be20:	d9bae79b ce4a6f36 d4ea9f09 d629b07c     ....6oJ.....|.).
1001be30:	af31a4b2 312a3f23 30c6a594 c035a266     ..1.#?*1...0f.5.
1001be40:	37744ebc a6fc82ca b0e090d0 1533a7d8     .Nt7..........3.
1001be50:	4af10498 f741ecda 0e7fcd50 2f1791f6     ...J..A.P....../
1001be60:	8d764dd6 4d43efb0 54ccaa4d dfe49604     .Mv...CMM..T....
1001be70:	e39ed1b5 1b4c6a88 b8c12c1f 7f466551     .....jL..,..QeF.
1001be80:	049d5eea 5d018c35 73fa8774 2efb0b41     .^..5..]t..sA...
1001be90:	5ab3671d 5292dbd2 33e91056 136dd647     .g.Z...RV..3G.m.
1001bea0:	8c9ad761 7a37a10c 8e59f814 89eb133c     a.....7z..Y.<...
1001beb0:	eecea927 35b761c9 ede11ce5 3c7a47b1     '....a.5.....Gz<
1001bec0:	599cd2df 3f55f273 791814ce bf73c737     ...Ys.U?...y7.s.
1001bed0:	ea53f7cd 5b5ffdaa 14df3d6f 867844db     ..S..._[o=...Dx.
1001bee0:	81caaff3 3eb968c4 2c382434 5fc2a340     .....h.>4$8,@.._
1001bef0:	72161dc3 0cbce225 8b283c49 41ff0d95     ...r%...I<(....A
1001bf00:	7139a801 de080cb3 9cd8b4e4 906456c1     ..9q.........Vd.
1001bf10:	617bcb84 70d532b6 74486c5c 42d0b857     ..{a.2.p\lHtW..B
1001bf20:	a75051f4 65537e41 a4c31a17 5e963a27     .QP.A~Se....':.^
1001bf30:	6bcb3bab 45f11f9d 58abacfa 03934be3     .;.k...E...X.K..
1001bf40:	fa552030 6df6ad76 769188cc 4c25f502     0 U.v..m...v..%L
1001bf50:	d7fc4fe5 cbd7c52a 44802635 a38fb562     .O..*...5&.Db...
1001bf60:	5a49deb1 1b6725ba 0e9845ea c0e15dfe     ..IZ.%g..E...]..
1001bf70:	7502c32f f012814c 97a38d46 f9c66bd3     /..uL...F....k..
1001bf80:	5fe7038f 9c951592 7aebbf6d 59da9552     ..._....m..zR..Y
1001bf90:	832dd4be 21d35874 692949e0 c8448ec9     ..-.tX.!.I)i..D.
1001bfa0:	896a75c2 7978f48e 3e6b9958 71dd27b9     .uj...xyX.k>.'.q
1001bfb0:	4fb6bee1 ad17f088 ac66c920 3ab47dce     ...O.... .f..}.:
1001bfc0:	4a1863df 3182e51a 33609751 7f456253     .c.J...1Q.`3SbE.
1001bfd0:	77e0b164 ae84bb6b a01cfe81 2b94f908     d..wk..........+
1001bfe0:	68587048 fd198f45 6c8794de f8b7527b     HpXhE......l{R..
1001bff0:	d323ab73 02e2724b 8f57e31f ab2a6655     s.#.Kr....W.Uf*.
1001c000:	2807b2eb c2032fb5 7b9a86c5 08a5d337     ...(./.....{7...
1001c010:	87f23028 a5b223bf 6aba0203 825ced16     (0...#.....j..\.
1001c020:	1c2b8acf b492a779 f2f0f307 e2a14e69     ..+.y.......iN..
1001c030:	f4cd65da bed50605 621fd134 fe8ac4a6     .e......4..b....
1001c040:	539d342e 55a0a2f3 e132058a eb75a4f6     .4.S...U..2...u.
1001c050:	ec390b83 efaa4060 9f065e71 1051bd6e     ..9.`@..q^..n.Q.
1001c060:	8af93e21 063d96dd 05aedd3e bd464de6     !>....=.>....MF.
1001c070:	8db59154 5d0571c4 d46f0406 15ff6050     T....q.]..o.P`..
1001c080:	fb241998 e997d6bd 43cc8940 9e7767d9     ..$.....@..C.gw.
1001c090:	42bdb0e8 8b880789 5b38e719 eedb79c8     ...B......8[.y..
1001c0a0:	0a47a17c 0fe97c42 1ec9f884 00000000     |.G.B|..........
1001c0b0:	86830980 ed48322b 70ac1e11 724e6c5a     ....+2H....pZlNr
1001c0c0:	fffbfd0e 38560f85 d51e3dae 3927362d     ......V8.=..-6'9
1001c0d0:	d9640a0f a621685c 54d19b5b 2e3a2436     ..d.\h!.[..T6$:.
1001c0e0:	67b10c0a e70f9357 96d2b4ee 919e1b9b     ...gW...........
1001c0f0:	c54f80c0 20a261dc 4b695a77 1a161c12     ..O..a. wZiK....
1001c100:	ba0ae293 2ae5c0a0 e0433c22 171d121b     .......*"<C.....
1001c110:	0d0b0e09 c7adf28b a8b92db6 a9c8141e     .........-......
1001c120:	198557f1 074caf75 ddbbee99 60fda37f     .W..u.L........`
1001c130:	269ff701 f5bc5c72 3bc54466 7e345bfb     ...&r\..fD.;.[4~
1001c140:	29768b43 c6dccb23 fc68b6ed f163b8e4     C.v)#.....h...c.
1001c150:	dccad731 85104263 22401397 112084c6     1...cB....@".. .
1001c160:	247d854a 3df8d2bb 3211aef9 a16dc729     J.}$...=...2).m.
1001c170:	2f4b1d9e 30f3dcb2 52ec0d86 e3d077c1     ..K/...0...R.w..
1001c180:	166c2bb3 b999a970 48fa1194 642247e9     .+l.p......H.G"d
1001c190:	8cc4a8fc 3f1aa0f0 2cd8567d 90ef2233     .......?}V.,3"..
1001c1a0:	4ec78749 d1c1d938 a2fe8cca 0b3698d4     I..N8.........6.
1001c1b0:	81cfa6f5 de28a57a 8e26dab7 bfa43fad     ....z.(...&..?..
1001c1c0:	9de42c3a 920d5078 cc9b6a5f 4662547e     :,..xP.._j..~TbF
1001c1d0:	13c2f68d b8e890d8 f75e2e39 aff582c3     ........9.^.....
1001c1e0:	80be9f5d 937c69d0 2da96fd5 12b3cf25     ]....i|..o.-%...
1001c1f0:	993bc8ac 7da71018 636ee89c bb7bdb3b     ..;....}..nc;.{.
1001c200:	7809cd26 18f46e59 b701ec9a 9aa8834f     &..xYn......O...
1001c210:	6e65e695 e67eaaff cf0821bc e8e6ef15     ..en..~..!......
1001c220:	9bd9bae7 36ce4a6f 09d4ea9f 7cd629b0     ....oJ.6.....).|
1001c230:	b2af31a4 23312a3f 9430c6a5 66c035a2     .1..?*1#..0..5.f
1001c240:	bc37744e caa6fc82 d0b0e090 d81533a7     Nt7..........3..
1001c250:	984af104 daf741ec 500e7fcd f62f1791     ..J..A.....P../.
1001c260:	d68d764d b04d43ef 4d54ccaa 04dfe496     Mv...CM...TM....
1001c270:	b5e39ed1 881b4c6a 1fb8c12c 517f4665     ....jL..,...eF.Q
1001c280:	ea049d5e 355d018c 7473fa87 412efb0b     ^.....]5..st...A
1001c290:	1d5ab367 d25292db 5633e910 47136dd6     g.Z...R...3V.m.G
1001c2a0:	618c9ad7 0c7a37a1 148e59f8 3c89eb13     ...a.7z..Y.....<
1001c2b0:	27eecea9 c935b761 e5ede11c b13c7a47     ...'a.5.....Gz<.
1001c2c0:	df599cd2 733f55f2 ce791814 37bf73c7     ..Y..U?s..y..s.7
1001c2d0:	cdea53f7 aa5b5ffd 6f14df3d db867844     .S..._[.=..oDx..
1001c2e0:	f381caaf c43eb968 342c3824 405fc2a3     ....h.>.$8,4.._@
1001c2f0:	c372161d 250cbce2 498b283c 9541ff0d     ..r....%<(.I..A.
1001c300:	017139a8 b3de080c e49cd8b4 c1906456     .9q.........Vd..
1001c310:	84617bcb b670d532 5c74486c 5742d0b8     .{a.2.p.lHt\..BW
1001c320:	f4a75051 4165537e 17a4c31a 275e963a     QP..~SeA....:.^'
1001c330:	ab6bcb3b 9d45f11f fa58abac e303934b     ;.k...E...X.K...
1001c340:	30fa5520 766df6ad cc769188 024c25f5      U.0..mv..v..%L.
1001c350:	e5d7fc4f 2acbd7c5 35448026 62a38fb5     O......*&.D5...b
1001c360:	b15a49de ba1b6725 ea0e9845 fec0e15d     .IZ.%g..E...]...
1001c370:	2f7502c3 4cf01281 4697a38d d3f9c66b     ..u/...L...Fk...
1001c380:	8f5fe703 929c9515 6d7aebbf 5259da95     .._.......zm..YR
1001c390:	be832dd4 7421d358 e0692949 c9c8448e     .-..X.!tI)i..D..
1001c3a0:	c2896a75 8e7978f4 583e6b99 b971dd27     uj...xy..k>X'.q.
1001c3b0:	e14fb6be 88ad17f0 20ac66c9 ce3ab47d     ..O......f. }.:.
1001c3c0:	df4a1863 1a3182e5 51336097 537f4562     c.J...1..`3QbE.S
1001c3d0:	6477e0b1 6bae84bb 81a01cfe 082b94f9     ..wd...k......+.
1001c3e0:	48685870 45fd198f de6c8794 7bf8b752     pXhH...E..l.R..{
1001c3f0:	73d323ab 4b02e272 1f8f57e3 55ab2a66     .#.sr..K.W..f*.U
1001c400:	eb2807b2 b5c2032f c57b9a86 3708a5d3     ..(./.....{....7
1001c410:	2887f230 bfa5b223 036aba02 16825ced     0..(#.....j..\..
1001c420:	cf1c2b8a 79b492a7 07f2f0f3 69e2a14e     .+.....y....N..i
1001c430:	daf4cd65 05bed506 34621fd1 a6fe8ac4     e.........b4....
1001c440:	2e539d34 f355a0a2 8ae13205 f6eb75a4     4.S...U..2...u..
1001c450:	83ec390b 60efaa40 719f065e 6e1051bd     .9..@..`^..q.Q.n
1001c460:	218af93e dd063d96 3e05aedd e6bd464d     >..!.=.....>MF..
1001c470:	548db591 c45d0571 06d46f04 5015ff60     ...Tq.]..o..`..P
1001c480:	98fb2419 bde997d6 4043cc89 d99e7767     .$........C@gw..
1001c490:	e842bdb0 898b8807 195b38e7 c8eedb79     ..B......8[.y...
1001c4a0:	7c0a47a1 420fe97c 841ec9f8 00000000     .G.||..B........
1001c4b0:	80868309 2bed4832 1170ac1e 5a724e6c     ....2H.+..p.lNrZ
1001c4c0:	0efffbfd 8538560f aed51e3d 2d392736     .....V8.=...6'9-
1001c4d0:	0fd9640a 5ca62168 5b54d19b 362e3a24     .d..h!.\..T[$:.6
1001c4e0:	0a67b10c 57e70f93 ee96d2b4 9b919e1b     ..g....W........
1001c4f0:	c0c54f80 dc20a261 774b695a 121a161c     .O..a. .ZiKw....
1001c500:	93ba0ae2 a02ae5c0 22e0433c 1b171d12     ......*.<C."....
1001c510:	090d0b0e 8bc7adf2 b6a8b92d 1ea9c814     ........-.......
1001c520:	f1198557 75074caf 99ddbbee 7f60fda3     W....L.u......`.
1001c530:	01269ff7 72f5bc5c 663bc544 fb7e345b     ..&.\..rD.;f[4~.
1001c540:	4329768b 23c6dccb edfc68b6 e4f163b8     .v)C...#.h...c..
1001c550:	31dccad7 63851042 97224013 c6112084     ...1B..c.@".. ..
1001c560:	4a247d85 bb3df8d2 f93211ae 29a16dc7     .}$J..=...2..m.)
1001c570:	9e2f4b1d b230f3dc 8652ec0d c1e3d077     .K/...0...R.w...
1001c580:	b3166c2b 70b999a9 9448fa11 e9642247     +l.....p..H.G"d.
1001c590:	fc8cc4a8 f03f1aa0 7d2cd856 3390ef22     ......?.V.,}"..3
1001c5a0:	494ec787 38d1c1d9 caa2fe8c d40b3698     ..NI...8.....6..
1001c5b0:	f581cfa6 7ade28a5 b78e26da adbfa43f     .....(.z.&..?...
1001c5c0:	3a9de42c 78920d50 5fcc9b6a 7e466254     ,..:P..xj.._TbF~
1001c5d0:	8d13c2f6 d8b8e890 39f75e2e c3aff582     .........^.9....
1001c5e0:	5d80be9f d0937c69 d52da96f 2512b3cf     ...]i|..o.-....%
1001c5f0:	ac993bc8 187da710 9c636ee8 3bbb7bdb     .;....}..nc..{.;
1001c600:	267809cd 5918f46e 9ab701ec 4f9aa883     ..x&n..Y.......O
1001c610:	956e65e6 ffe67eaa bccf0821 15e8e6ef     .en..~..!.......
1001c620:	e79bd9ba 6f36ce4a 9f09d4ea b07cd629     ....J.6o....).|.
1001c630:	a4b2af31 3f23312a a59430c6 a266c035     1...*1#?.0..5.f.
1001c640:	4ebc3774 82caa6fc 90d0b0e0 a7d81533     t7.N........3...
1001c650:	04984af1 ecdaf741 cd500e7f 91f62f17     .J..A.....P../..
1001c660:	4dd68d76 efb04d43 aa4d54cc 9604dfe4     v..MCM...TM.....
1001c670:	d1b5e39e 6a881b4c 2c1fb8c1 65517f46     ....L..j...,F.Qe
1001c680:	5eea049d 8c355d01 877473fa 0b412efb     ...^.]5..st...A.
1001c690:	671d5ab3 dbd25292 105633e9 d647136d     .Z.g.R...3V.m.G.
1001c6a0:	d7618c9a a10c7a37 f8148e59 133c89eb     ..a.7z..Y.....<.
1001c6b0:	a927eece 61c935b7 1ce5ede1 47b13c7a     ..'..5.a....z<.G
1001c6c0:	d2df599c f2733f55 14ce7918 c737bf73     .Y..U?s..y..s.7.
1001c6d0:	f7cdea53 fdaa5b5f 3d6f14df 44db8678     S..._[....o=x..D
1001c6e0:	aff381ca 68c43eb9 24342c38 a3405fc2     .....>.h8,4$._@.
1001c6f0:	1dc37216 e2250cbc 3c498b28 0d9541ff     .r....%.(.I<.A..
1001c700:	a8017139 0cb3de08 b4e49cd8 56c19064     9q..........d..V
1001c710:	cb84617b 32b670d5 6c5c7448 b85742d0     {a...p.2Ht\l.BW.

1001c720 <Te>:
1001c720:	c66363a5 f87c7c84 ee777799 f67b7b8d     .cc..||..ww..{{.
1001c730:	fff2f20d d66b6bbd de6f6fb1 91c5c554     .....kk..oo.T...
1001c740:	60303050 02010103 ce6767a9 562b2b7d     P00`.....gg.}++V
1001c750:	e7fefe19 b5d7d762 4dababe6 ec76769a     ....b......M.vv.
1001c760:	8fcaca45 1f82829d 89c9c940 fa7d7d87     E.......@....}}.
1001c770:	effafa15 b25959eb 8e4747c9 fbf0f00b     .....YY..GG.....
1001c780:	41adadec b3d4d467 5fa2a2fd 45afafea     ...Ag......_...E
1001c790:	239c9cbf 53a4a4f7 e4727296 9bc0c05b     ...#...S.rr.[...
1001c7a0:	75b7b7c2 e1fdfd1c 3d9393ae 4c26266a     ...u.......=j&&L
1001c7b0:	6c36365a 7e3f3f41 f5f7f702 83cccc4f     Z66lA??~....O...
1001c7c0:	6834345c 51a5a5f4 d1e5e534 f9f1f108     \44h...Q4.......
1001c7d0:	e2717193 abd8d873 62313153 2a15153f     .qq.s...S11b?..*
1001c7e0:	0804040c 95c7c752 46232365 9dc3c35e     ....R...e##F^...
1001c7f0:	30181828 379696a1 0a05050f 2f9a9ab5     (..0...7......./
1001c800:	0e070709 24121236 1b80809b dfe2e23d     ....6..$....=...
1001c810:	cdebeb26 4e272769 7fb2b2cd ea75759f     &...i''N.....uu.
1001c820:	1209091b 1d83839e 582c2c74 341a1a2e     ........t,,X...4
1001c830:	361b1b2d dc6e6eb2 b45a5aee 5ba0a0fb     -..6.nn..ZZ....[
1001c840:	a45252f6 763b3b4d b7d6d661 7db3b3ce     .RR.M;;va......}
1001c850:	5229297b dde3e33e 5e2f2f71 13848497     {))R>...q//^....
1001c860:	a65353f5 b9d1d168 00000000 c1eded2c     .SS.h.......,...
1001c870:	40202060 e3fcfc1f 79b1b1c8 b65b5bed     `  @.......y.[[.
1001c880:	d46a6abe 8dcbcb46 67bebed9 7239394b     .jj.F......gK99r
1001c890:	944a4ade 984c4cd4 b05858e8 85cfcf4a     .JJ..LL..XX.J...
1001c8a0:	bbd0d06b c5efef2a 4faaaae5 edfbfb16     k...*......O....
1001c8b0:	864343c5 9a4d4dd7 66333355 11858594     .CC..MM.U33f....
1001c8c0:	8a4545cf e9f9f910 04020206 fe7f7f81     .EE.............
1001c8d0:	a05050f0 783c3c44 259f9fba 4ba8a8e3     .PP.D<<x...%...K
1001c8e0:	a25151f3 5da3a3fe 804040c0 058f8f8a     .QQ....].@@.....
1001c8f0:	3f9292ad 219d9dbc 70383848 f1f5f504     ...?...!H88p....
1001c900:	63bcbcdf 77b6b6c1 afdada75 42212163     ...c...wu...c!!B
1001c910:	20101030 e5ffff1a fdf3f30e bfd2d26d     0.. ........m...
1001c920:	81cdcd4c 180c0c14 26131335 c3ecec2f     L.......5..&/...
1001c930:	be5f5fe1 359797a2 884444cc 2e171739     .__....5.DD.9...
1001c940:	93c4c457 55a7a7f2 fc7e7e82 7a3d3d47     W......U.~~.G==z
1001c950:	c86464ac ba5d5de7 3219192b e6737395     .dd..]].+..2.ss.
1001c960:	c06060a0 19818198 9e4f4fd1 a3dcdc7f     .``......OO.....
1001c970:	44222266 542a2a7e 3b9090ab 0b888883     f""D~**T...;....
1001c980:	8c4646ca c7eeee29 6bb8b8d3 2814143c     .FF.)......k<..(
1001c990:	a7dede79 bc5e5ee2 160b0b1d addbdb76     y....^^.....v...
1001c9a0:	dbe0e03b 64323256 743a3a4e 140a0a1e     ;...V22dN::t....
1001c9b0:	924949db 0c06060a 4824246c b85c5ce4     .II.....l$$H.\\.
1001c9c0:	9fc2c25d bdd3d36e 43acacef c46262a6     ]...n......C.bb.
1001c9d0:	399191a8 319595a4 d3e4e437 f279798b     ...9...17....yy.
1001c9e0:	d5e7e732 8bc8c843 6e373759 da6d6db7     2...C...Y77n.mm.
1001c9f0:	018d8d8c b1d5d564 9c4e4ed2 49a9a9e0     ....d....NN....I
1001ca00:	d86c6cb4 ac5656fa f3f4f407 cfeaea25     .ll..VV.....%...
1001ca10:	ca6565af f47a7a8e 47aeaee9 10080818     .ee..zz....G....
1001ca20:	6fbabad5 f0787888 4a25256f 5c2e2e72     ...o.xx.o%%Jr..\
1001ca30:	381c1c24 57a6a6f1 73b4b4c7 97c6c651     $..8...W...sQ...
1001ca40:	cbe8e823 a1dddd7c e874749c 3e1f1f21     #...|....tt.!..>
1001ca50:	964b4bdd 61bdbddc 0d8b8b86 0f8a8a85     .KK....a........
1001ca60:	e0707090 7c3e3e42 71b5b5c4 cc6666aa     .pp.B>>|...q.ff.
1001ca70:	904848d8 06030305 f7f6f601 1c0e0e12     .HH.............
1001ca80:	c26161a3 6a35355f ae5757f9 69b9b9d0     .aa._55j.WW....i
1001ca90:	17868691 99c1c158 3a1d1d27 279e9eb9     ....X...'..:...'
1001caa0:	d9e1e138 ebf8f813 2b9898b3 22111133     8..........+3.."
1001cab0:	d26969bb a9d9d970 078e8e89 339494a7     .ii.p..........3
1001cac0:	2d9b9bb6 3c1e1e22 15878792 c9e9e920     ...-"..<.... ...
1001cad0:	87cece49 aa5555ff 50282878 a5dfdf7a     I....UU.x((Pz...
1001cae0:	038c8c8f 59a1a1f8 09898980 1a0d0d17     .......Y........
1001caf0:	65bfbfda d7e6e631 844242c6 d06868b8     ...e1....BB..hh.
1001cb00:	824141c3 299999b0 5a2d2d77 1e0f0f11     .AA....)w--Z....
1001cb10:	7bb0b0cb a85454fc 6dbbbbd6 2c16163a     ...{.TT....m:..,
1001cb20:	a5c66363 84f87c7c 99ee7777 8df67b7b     cc..||..ww..{{..
1001cb30:	0dfff2f2 bdd66b6b b1de6f6f 5491c5c5     ....kk..oo.....T
1001cb40:	50603030 03020101 a9ce6767 7d562b2b     00`P....gg..++V}
1001cb50:	19e7fefe 62b5d7d7 e64dabab 9aec7676     .......b..M.vv..
1001cb60:	458fcaca 9d1f8282 4089c9c9 87fa7d7d     ...E.......@}}..
1001cb70:	15effafa ebb25959 c98e4747 0bfbf0f0     ....YY..GG......
1001cb80:	ec41adad 67b3d4d4 fd5fa2a2 ea45afaf     ..A....g.._...E.
1001cb90:	bf239c9c f753a4a4 96e47272 5b9bc0c0     ..#...S.rr.....[
1001cba0:	c275b7b7 1ce1fdfd ae3d9393 6a4c2626     ..u.......=.&&Lj
1001cbb0:	5a6c3636 417e3f3f 02f5f7f7 4f83cccc     66lZ??~A.......O
1001cbc0:	5c683434 f451a5a5 34d1e5e5 08f9f1f1     44h\..Q....4....
1001cbd0:	93e27171 73abd8d8 53623131 3f2a1515     qq.....s11bS..*?
1001cbe0:	0c080404 5295c7c7 65462323 5e9dc3c3     .......R##Fe...^
1001cbf0:	28301818 a1379696 0f0a0505 b52f9a9a     ..0(..7......./.
1001cc00:	090e0707 36241212 9b1b8080 3ddfe2e2     ......$6.......=
1001cc10:	26cdebeb 694e2727 cd7fb2b2 9fea7575     ...&''Ni....uu..
1001cc20:	1b120909 9e1d8383 74582c2c 2e341a1a     ........,,Xt..4.
1001cc30:	2d361b1b b2dc6e6e eeb45a5a fb5ba0a0     ..6-nn..ZZ....[.
1001cc40:	f6a45252 4d763b3b 61b7d6d6 ce7db3b3     RR..;;vM...a..}.
1001cc50:	7b522929 3edde3e3 715e2f2f 97138484     ))R{...>//^q....
1001cc60:	f5a65353 68b9d1d1 00000000 2cc1eded     SS.....h.......,
1001cc70:	60402020 1fe3fcfc c879b1b1 edb65b5b       @`......y.[[..
1001cc80:	bed46a6a 468dcbcb d967bebe 4b723939     jj.....F..g.99rK
1001cc90:	de944a4a d4984c4c e8b05858 4a85cfcf     JJ..LL..XX.....J
1001cca0:	6bbbd0d0 2ac5efef e54faaaa 16edfbfb     ...k...*..O.....
1001ccb0:	c5864343 d79a4d4d 55663333 94118585     CC..MM..33fU....
1001ccc0:	cf8a4545 10e9f9f9 06040202 81fe7f7f     EE..............
1001ccd0:	f0a05050 44783c3c ba259f9f e34ba8a8     PP..<<xD..%...K.
1001cce0:	f3a25151 fe5da3a3 c0804040 8a058f8f     QQ....].@@......
1001ccf0:	ad3f9292 bc219d9d 48703838 04f1f5f5     ..?...!.88pH....
1001cd00:	df63bcbc c177b6b6 75afdada 63422121     ..c...w....u!!Bc
1001cd10:	30201010 1ae5ffff 0efdf3f3 6dbfd2d2     .. 0...........m
1001cd20:	4c81cdcd 14180c0c 35261313 2fc3ecec     ...L......&5.../
1001cd30:	e1be5f5f a2359797 cc884444 392e1717     __....5.DD.....9
1001cd40:	5793c4c4 f255a7a7 82fc7e7e 477a3d3d     ...W..U.~~..==zG
1001cd50:	acc86464 e7ba5d5d 2b321919 95e67373     dd..]]....2+ss..
1001cd60:	a0c06060 98198181 d19e4f4f 7fa3dcdc     ``......OO......
1001cd70:	66442222 7e542a2a ab3b9090 830b8888     ""Df**T~..;.....
1001cd80:	ca8c4646 29c7eeee d36bb8b8 3c281414     FF.....)..k...(<
1001cd90:	79a7dede e2bc5e5e 1d160b0b 76addbdb     ...y^^.........v
1001cda0:	3bdbe0e0 56643232 4e743a3a 1e140a0a     ...;22dV::tN....
1001cdb0:	db924949 0a0c0606 6c482424 e4b85c5c     II......$$Hl\\..
1001cdc0:	5d9fc2c2 6ebdd3d3 ef43acac a6c46262     ...]...n..C.bb..
1001cdd0:	a8399191 a4319595 37d3e4e4 8bf27979     ..9...1....7yy..
1001cde0:	32d5e7e7 438bc8c8 596e3737 b7da6d6d     ...2...C77nYmm..
1001cdf0:	8c018d8d 64b1d5d5 d29c4e4e e049a9a9     .......dNN....I.
1001ce00:	b4d86c6c faac5656 07f3f4f4 25cfeaea     ll..VV.........%
1001ce10:	afca6565 8ef47a7a e947aeae 18100808     ee..zz....G.....
1001ce20:	d56fbaba 88f07878 6f4a2525 725c2e2e     ..o.xx..%%Jo..\r
1001ce30:	24381c1c f157a6a6 c773b4b4 5197c6c6     ..8$..W...s....Q
1001ce40:	23cbe8e8 7ca1dddd 9ce87474 213e1f1f     ...#...|tt....>!
1001ce50:	dd964b4b dc61bdbd 860d8b8b 850f8a8a     KK....a.........
1001ce60:	90e07070 427c3e3e c471b5b5 aacc6666     pp..>>|B..q.ff..
1001ce70:	d8904848 05060303 01f7f6f6 121c0e0e     HH..............
1001ce80:	a3c26161 5f6a3535 f9ae5757 d069b9b9     aa..55j_WW....i.
1001ce90:	91178686 5899c1c1 273a1d1d b9279e9e     .......X..:'..'.
1001cea0:	38d9e1e1 13ebf8f8 b32b9898 33221111     ...8......+..."3
1001ceb0:	bbd26969 70a9d9d9 89078e8e a7339494     ii.....p......3.
1001cec0:	b62d9b9b 223c1e1e 92158787 20c9e9e9     ..-...<"....... 
1001ced0:	4987cece ffaa5555 78502828 7aa5dfdf     ...IUU..((Px...z
1001cee0:	8f038c8c f859a1a1 80098989 171a0d0d     ......Y.........
1001cef0:	da65bfbf 31d7e6e6 c6844242 b8d06868     ..e....1BB..hh..
1001cf00:	c3824141 b0299999 775a2d2d 111e0f0f     AA....).--Zw....
1001cf10:	cb7bb0b0 fca85454 d66dbbbb 3a2c1616     ..{.TT....m...,:
1001cf20:	63a5c663 7c84f87c 7799ee77 7b8df67b     c..c|..|w..w{..{
1001cf30:	f20dfff2 6bbdd66b 6fb1de6f c55491c5     ....k..ko..o..T.
1001cf40:	30506030 01030201 67a9ce67 2b7d562b     0`P0....g..g+V}+
1001cf50:	fe19e7fe d762b5d7 abe64dab 769aec76     ......b..M..v..v
1001cf60:	ca458fca 829d1f82 c94089c9 7d87fa7d     ..E.......@.}..}
1001cf70:	fa15effa 59ebb259 47c98e47 f00bfbf0     ....Y..YG..G....
1001cf80:	adec41ad d467b3d4 a2fd5fa2 afea45af     .A....g.._...E..
1001cf90:	9cbf239c a4f753a4 7296e472 c05b9bc0     .#...S..r..r..[.
1001cfa0:	b7c275b7 fd1ce1fd 93ae3d93 266a4c26     .u.......=..&Lj&
1001cfb0:	365a6c36 3f417e3f f702f5f7 cc4f83cc     6lZ6?~A?......O.
1001cfc0:	345c6834 a5f451a5 e534d1e5 f108f9f1     4h\4.Q....4.....
1001cfd0:	7193e271 d873abd8 31536231 153f2a15     q..q..s.1bS1.*?.
1001cfe0:	040c0804 c75295c7 23654623 c35e9dc3     ......R.#Fe#..^.
1001cff0:	18283018 96a13796 050f0a05 9ab52f9a     .0(..7......./..
1001d000:	07090e07 12362412 809b1b80 e23ddfe2     .....$6.......=.
1001d010:	eb26cdeb 27694e27 b2cd7fb2 759fea75     ..&.'Ni'....u..u
1001d020:	091b1209 839e1d83 2c74582c 1a2e341a     ........,Xt,.4..
1001d030:	1b2d361b 6eb2dc6e 5aeeb45a a0fb5ba0     .6-.n..nZ..Z.[..
1001d040:	52f6a452 3b4d763b d661b7d6 b3ce7db3     R..R;vM;..a..}..
1001d050:	297b5229 e33edde3 2f715e2f 84971384     )R{)..>./^q/....
1001d060:	53f5a653 d168b9d1 00000000 ed2cc1ed     S..S..h.......,.
1001d070:	20604020 fc1fe3fc b1c879b1 5bedb65b      @` .....y..[..[
1001d080:	6abed46a cb468dcb bed967be 394b7239     j..j..F..g..9rK9
1001d090:	4ade944a 4cd4984c 58e8b058 cf4a85cf     J..JL..LX..X..J.
1001d0a0:	d06bbbd0 ef2ac5ef aae54faa fb16edfb     ..k...*..O......
1001d0b0:	43c58643 4dd79a4d 33556633 85941185     C..CM..M3fU3....
1001d0c0:	45cf8a45 f910e9f9 02060402 7f81fe7f     E..E............
1001d0d0:	50f0a050 3c44783c 9fba259f a8e34ba8     P..P<xD<.%...K..
1001d0e0:	51f3a251 a3fe5da3 40c08040 8f8a058f     Q..Q.]..@..@....
1001d0f0:	92ad3f92 9dbc219d 38487038 f504f1f5     .?...!..8pH8....
1001d100:	bcdf63bc b6c177b6 da75afda 21634221     .c...w....u.!Bc!
1001d110:	10302010 ff1ae5ff f30efdf3 d26dbfd2     . 0...........m.
1001d120:	cd4c81cd 0c14180c 13352613 ec2fc3ec     ..L......&5.../.
1001d130:	5fe1be5f 97a23597 44cc8844 17392e17     _.._.5..D..D..9.
1001d140:	c45793c4 a7f255a7 7e82fc7e 3d477a3d     ..W..U..~..~=zG=
1001d150:	64acc864 5de7ba5d 192b3219 7395e673     d..d]..].2+.s..s
1001d160:	60a0c060 81981981 4fd19e4f dc7fa3dc     `..`....O..O....
1001d170:	22664422 2a7e542a 90ab3b90 88830b88     "Df"*T~*.;......
1001d180:	46ca8c46 ee29c7ee b8d36bb8 143c2814     F..F..)..k...(<.
1001d190:	de79a7de 5ee2bc5e 0b1d160b db76addb     ..y.^..^......v.
1001d1a0:	e03bdbe0 32566432 3a4e743a 0a1e140a     ..;.2dV2:tN:....
1001d1b0:	49db9249 060a0c06 246c4824 5ce4b85c     I..I....$Hl$\..\
1001d1c0:	c25d9fc2 d36ebdd3 acef43ac 62a6c462     ..]...n..C..b..b
1001d1d0:	91a83991 95a43195 e437d3e4 798bf279     .9...1....7.y..y
1001d1e0:	e732d5e7 c8438bc8 37596e37 6db7da6d     ..2...C.7nY7m..m
1001d1f0:	8d8c018d d564b1d5 4ed29c4e a9e049a9     ......d.N..N.I..
1001d200:	6cb4d86c 56faac56 f407f3f4 ea25cfea     l..lV..V......%.
1001d210:	65afca65 7a8ef47a aee947ae 08181008     e..ez..z.G......
1001d220:	bad56fba 7888f078 256f4a25 2e725c2e     .o..x..x%Jo%.\r.
1001d230:	1c24381c a6f157a6 b4c773b4 c65197c6     .8$..W...s....Q.
1001d240:	e823cbe8 dd7ca1dd 749ce874 1f213e1f     ..#...|.t..t.>!.
1001d250:	4bdd964b bddc61bd 8b860d8b 8a850f8a     K..K.a..........
1001d260:	7090e070 3e427c3e b5c471b5 66aacc66     p..p>|B>.q..f..f
1001d270:	48d89048 03050603 f601f7f6 0e121c0e     H..H............
1001d280:	61a3c261 355f6a35 57f9ae57 b9d069b9     a..a5j_5W..W.i..
1001d290:	86911786 c15899c1 1d273a1d 9eb9279e     ......X..:'..'..
1001d2a0:	e138d9e1 f813ebf8 98b32b98 11332211     ..8......+..."3.
1001d2b0:	69bbd269 d970a9d9 8e89078e 94a73394     i..i..p......3..
1001d2c0:	9bb62d9b 1e223c1e 87921587 e920c9e9     .-...<"....... .
1001d2d0:	ce4987ce 55ffaa55 28785028 df7aa5df     ..I.U..U(Px(..z.
1001d2e0:	8c8f038c a1f859a1 89800989 0d171a0d     .....Y..........
1001d2f0:	bfda65bf e631d7e6 42c68442 68b8d068     .e....1.B..Bh..h
1001d300:	41c38241 99b02999 2d775a2d 0f111e0f     A..A.)..-Zw-....
1001d310:	b0cb7bb0 54fca854 bbd66dbb 163a2c16     .{..T..T.m...,:.
1001d320:	6363a5c6 7c7c84f8 777799ee 7b7b8df6     ..cc..||..ww..{{
1001d330:	f2f20dff 6b6bbdd6 6f6fb1de c5c55491     ......kk..oo.T..
1001d340:	30305060 01010302 6767a9ce 2b2b7d56     `P00......ggV}++
1001d350:	fefe19e7 d7d762b5 ababe64d 76769aec     .....b..M.....vv
1001d360:	caca458f 82829d1f c9c94089 7d7d87fa     .E.......@....}}
1001d370:	fafa15ef 5959ebb2 4747c98e f0f00bfb     ......YY..GG....
1001d380:	adadec41 d4d467b3 a2a2fd5f afafea45     A....g.._...E...
1001d390:	9c9cbf23 a4a4f753 727296e4 c0c05b9b     #...S.....rr.[..
1001d3a0:	b7b7c275 fdfd1ce1 9393ae3d 26266a4c     u.......=...Lj&&
1001d3b0:	36365a6c 3f3f417e f7f702f5 cccc4f83     lZ66~A??.....O..
1001d3c0:	34345c68 a5a5f451 e5e534d1 f1f108f9     h\44Q....4......
1001d3d0:	717193e2 d8d873ab 31315362 15153f2a     ..qq.s..bS11*?..
1001d3e0:	04040c08 c7c75295 23236546 c3c35e9d     .....R..Fe##.^..
1001d3f0:	18182830 9696a137 05050f0a 9a9ab52f     0(..7......./...
1001d400:	0707090e 12123624 80809b1b e2e23ddf     ....$6.......=..
1001d410:	ebeb26cd 2727694e b2b2cd7f 75759fea     .&..Ni''......uu
1001d420:	09091b12 83839e1d 2c2c7458 1a1a2e34     ........Xt,,4...
1001d430:	1b1b2d36 6e6eb2dc 5a5aeeb4 a0a0fb5b     6-....nn..ZZ[...
1001d440:	5252f6a4 3b3b4d76 d6d661b7 b3b3ce7d     ..RRvM;;.a..}...
1001d450:	29297b52 e3e33edd 2f2f715e 84849713     R{)).>..^q//....
1001d460:	5353f5a6 d1d168b9 00000000 eded2cc1     ..SS.h.......,..
1001d470:	20206040 fcfc1fe3 b1b1c879 5b5bedb6     @`  ....y.....[[
1001d480:	6a6abed4 cbcb468d bebed967 39394b72     ..jj.F..g...rK99
1001d490:	4a4ade94 4c4cd498 5858e8b0 cfcf4a85     ..JJ..LL..XX.J..
1001d4a0:	d0d06bbb efef2ac5 aaaae54f fbfb16ed     .k...*..O.......
1001d4b0:	4343c586 4d4dd79a 33335566 85859411     ..CC..MMfU33....
1001d4c0:	4545cf8a f9f910e9 02020604 7f7f81fe     ..EE............
1001d4d0:	5050f0a0 3c3c4478 9f9fba25 a8a8e34b     ..PPxD<<%...K...
1001d4e0:	5151f3a2 a3a3fe5d 4040c080 8f8f8a05     ..QQ].....@@....
1001d4f0:	9292ad3f 9d9dbc21 38384870 f5f504f1     ?...!...pH88....
1001d500:	bcbcdf63 b6b6c177 dada75af 21216342     c...w....u..Bc!!
1001d510:	10103020 ffff1ae5 f3f30efd d2d26dbf      0...........m..
1001d520:	cdcd4c81 0c0c1418 13133526 ecec2fc3     .L......&5.../..
1001d530:	5f5fe1be 9797a235 4444cc88 1717392e     ..__5.....DD.9..
1001d540:	c4c45793 a7a7f255 7e7e82fc 3d3d477a     .W..U.....~~zG==
1001d550:	6464acc8 5d5de7ba 19192b32 737395e6     ..dd..]]2+....ss
1001d560:	6060a0c0 81819819 4f4fd19e dcdc7fa3     ..``......OO....
1001d570:	22226644 2a2a7e54 9090ab3b 8888830b     Df""T~**;.......
1001d580:	4646ca8c eeee29c7 b8b8d36b 14143c28     ..FF.)..k...(<..
1001d590:	dede79a7 5e5ee2bc 0b0b1d16 dbdb76ad     .y....^^.....v..
1001d5a0:	e0e03bdb 32325664 3a3a4e74 0a0a1e14     .;..dV22tN::....
1001d5b0:	4949db92 06060a0c 24246c48 5c5ce4b8     ..II....Hl$$..\\
1001d5c0:	c2c25d9f d3d36ebd acacef43 6262a6c4     .]...n..C.....bb
1001d5d0:	9191a839 9595a431 e4e437d3 79798bf2     9...1....7....yy
1001d5e0:	e7e732d5 c8c8438b 3737596e 6d6db7da     .2...C..nY77..mm
1001d5f0:	8d8d8c01 d5d564b1 4e4ed29c a9a9e049     .....d....NNI...
1001d600:	6c6cb4d8 5656faac f4f407f3 eaea25cf     ..ll..VV.....%..
1001d610:	6565afca 7a7a8ef4 aeaee947 08081810     ..ee..zzG.......
1001d620:	babad56f 787888f0 25256f4a 2e2e725c     o.....xxJo%%\r..
1001d630:	1c1c2438 a6a6f157 b4b4c773 c6c65197     8$..W...s....Q..
1001d640:	e8e823cb dddd7ca1 74749ce8 1f1f213e     .#...|....tt>!..
1001d650:	4b4bdd96 bdbddc61 8b8b860d 8a8a850f     ..KKa...........
1001d660:	707090e0 3e3e427c b5b5c471 6666aacc     ..pp|B>>q.....ff
1001d670:	4848d890 03030506 f6f601f7 0e0e121c     ..HH............
1001d680:	6161a3c2 35355f6a 5757f9ae b9b9d069     ..aaj_55..WWi...
1001d690:	86869117 c1c15899 1d1d273a 9e9eb927     .....X..:'..'...
1001d6a0:	e1e138d9 f8f813eb 9898b32b 11113322     .8......+..."3..
1001d6b0:	6969bbd2 d9d970a9 8e8e8907 9494a733     ..ii.p......3...
1001d6c0:	9b9bb62d 1e1e223c 87879215 e9e920c9     -...<"....... ..
1001d6d0:	cece4987 5555ffaa 28287850 dfdf7aa5     .I....UUPx((.z..
1001d6e0:	8c8c8f03 a1a1f859 89898009 0d0d171a     ....Y...........
1001d6f0:	bfbfda65 e6e631d7 4242c684 6868b8d0     e....1....BB..hh
1001d700:	4141c382 9999b029 2d2d775a 0f0f111e     ..AA)...Zw--....
1001d710:	b0b0cb7b 5454fca8 bbbbd66d 16163a2c     {.....TTm...,:..

1001d720 <rcon>:
1001d720:	01000000 02000000 04000000 08000000     ................
1001d730:	10000000 20000000 40000000 80000000     ....... ...@....
1001d740:	1b000000 36000000 5f43584d 45535341     .......6MXC_ASSE
1001d750:	25205452 25232073 28203a64 0a297325     RT %s #%d: (%s).
1001d760:	00000000 6361502f 30322d65 652d3432     ..../Pace-2024-e
1001d770:	2f667463 6b64736d 62694c2f 69726172     ctf/msdk/Librari
1001d780:	422f7365 6472616f 414d2f73 30383758     es/Boards/MAX780
1001d790:	462f3030 5f524854 41766552 756f532f     00/FTHR_RevA/Sou
1001d7a0:	2f656372 72616f62 00632e64 4c494146     rce/board.c.FAIL
1001d7b0:	00000000                                ....

1001d7b4 <num_leds>:
1001d7b4:	00000003                                ....

1001d7b8 <led_pin>:
1001d7b8:	40080400 00000001 00010001 40080400     ...@...........@
1001d7c8:	00000002 00010001 40080400 00000004     ...........@....
1001d7d8:	00010001                                ....

1001d7dc <num_pbs>:
1001d7dc:	00000002                                ....

1001d7e0 <pb_pin>:
1001d7e0:	40008000 00000004 00010100 40009000     ...@...........@
1001d7f0:	00000080 00010100 6361502f 30322d65     ......../Pace-20
1001d800:	652d3432 2f667463 6b64736d 62694c2f     24-ectf/msdk/Lib
1001d810:	69726172 4d2f7365 44637369 65766972     raries/MiscDrive
1001d820:	4c2f7372 6c2f4445 632e6465 00000000     rs/LED/led.c....
1001d830:	20786469 756e203c 656c5f6d 00007364     idx < num_leds..

1001d840 <gpio_cfg_uart3>:
1001d840:	40080400 000000c0 00000003              ...@........

1001d84c <gpio_cfg_uart2>:
1001d84c:	40009000 00000003 00000002              ...@........

1001d858 <gpio_cfg_uart1>:
1001d858:	40008000 00003000 00000002              ...@.0......

1001d864 <gpio_cfg_uart0>:
1001d864:	40008000 00000003 00000002              ...@........

1001d870 <gpio_cfg_i2c2>:
1001d870:	40008000 c0000000 00000002              ...@........

1001d87c <gpio_cfg_i2c1>:
1001d87c:	40008000 00030000 00000002              ...@........

1001d888 <gpio_cfg_i2c0>:
1001d888:	40008000 00000c00 00000002              ...@........

1001d894 <gpio_cfg_extclk>:
1001d894:	40008000 00000008 00000002 6361502f     ...@......../Pac
1001d8a4:	30322d65 652d3432 2f667463 6b64736d     e-2024-ectf/msdk
1001d8b4:	62694c2f 69726172 432f7365 5349534d     /Libraries/CMSIS
1001d8c4:	2f2e2e2f 69726550 72446870 72657669     /../PeriphDriver
1001d8d4:	6f532f73 65637275 4950472f 70672f4f     s/Source/GPIO/gp
1001d8e4:	635f6f69 6f6d6d6f 00632e6e 74726f70     io_common.c.port
1001d8f4:	4d203c20 435f4358 475f4746 5f4f4950      < MXC_CFG_GPIO_
1001d904:	54534e49 45434e41 00000053              INSTANCES...

1001d910 <CSWTCH.16>:
1001d910:	40009000 40080400 40080600 00464e49     ...@...@...@INF.
1001d920:	00666e69 004e414e 006e616e 33323130     inf.NAN.nan.0123
1001d930:	37363534 62613938 66656463 00000000     456789abcdef....
1001d940:	33323130 37363534 42413938 46454443     0123456789ABCDEF
1001d950:	00000000 6c756e28 0000296c 00000030     ....(null)..0...

1001d960 <zeroes.0>:
1001d960:	30303030 30303030 30303030 30303030     0000000000000000

1001d970 <blanks.1>:
1001d970:	20202020 20202020 20202020 20202020                     
1001d980:	435f434c 414c4c4f 00004554 435f434c     LC_COLLATE..LC_C
1001d990:	45505954 00000000 4d5f434c 54454e4f     TYPE....LC_MONET
1001d9a0:	00595241 4e5f434c 52454d55 00004349     ARY.LC_NUMERIC..
1001d9b0:	545f434c 00454d49 4d5f434c 41535345     LC_TIME.LC_MESSA
1001d9c0:	00534547 0000000a 69666e49 7974696e     GES.....Infinity
1001d9d0:	00000000 004e614e 6c6c6142 7320636f     ....NaN.Balloc s
1001d9e0:	65636375 64656465 00000000 7461642f     ucceeded..../dat
1001d9f0:	656a2f61 6e696b6e 6f772f73 70736b72     a/jenkins/worksp
1001da00:	2f656361 2d554e47 6c6f6f74 69616863     ace/GNU-toolchai
1001da10:	72612f6e 32312d6d 6372732f 77656e2f     n/arm-12/src/new
1001da20:	2d62696c 77677963 6e2f6e69 696c7765     lib-cygwin/newli
1001da30:	696c2f62 732f6362 696c6474 74642f62     b/libc/stdlib/dt
1001da40:	632e616f 00000000                       oa.c....

1001da48 <_ctype_>:
1001da48:	20202000 20202020 28282020 20282828     .         ((((( 
1001da58:	20202020 20202020 20202020 20202020                     
1001da68:	10108820 10101010 10101010 10101010      ...............
1001da78:	04040410 04040404 10040404 10101010     ................
1001da88:	41411010 41414141 01010101 01010101     ..AAAAAA........
1001da98:	01010101 01010101 01010101 10101010     ................
1001daa8:	42421010 42424242 02020202 02020202     ..BBBBBB........
1001dab8:	02020202 02020202 02020202 10101010     ................
1001dac8:	00000020 00000000 00000000 00000000      ...............
	...

1001db4c <zeroes.0>:
1001db4c:	30303030 30303030 30303030 30303030     0000000000000000

1001db5c <blanks.1>:
1001db5c:	20202020 20202020 20202020 20202020                     

1001db6c <zeroes.0>:
1001db6c:	30303030 30303030 30303030 30303030     0000000000000000

1001db7c <blanks.1>:
1001db7c:	20202020 20202020 20202020 20202020                     
1001db8c:	7566202c 6974636e 203a6e6f 00000000     , function: ....
1001db9c:	65737361 6f697472 2522206e 66202273     assertion "%s" f
1001dbac:	656c6961 66203a64 20656c69 22732522     ailed: file "%s"
1001dbbc:	696c202c 2520656e 25732564 00000a73     , line %d%s%s...
1001dbcc:	7461642f 656a2f61 6e696b6e 6f772f73     /data/jenkins/wo
1001dbdc:	70736b72 2f656361 2d554e47 6c6f6f74     rkspace/GNU-tool
1001dbec:	69616863 72612f6e 32312d6d 6372732f     chain/arm-12/src
1001dbfc:	77656e2f 2d62696c 77677963 6e2f6e69     /newlib-cygwin/n
1001dc0c:	696c7765 696c2f62 732f6362 696c6474     ewlib/libc/stdli
1001dc1c:	706d2f62 2e636572 00000063              b/mprec.c...

1001dc28 <p05.0>:
1001dc28:	00000005 00000019 0000007d 00000000     ........}.......

1001dc38 <__mprec_bigtens>:
1001dc38:	37e08000 4341c379 b5056e17 4693b8b5     ...7y.AC.n.....F
1001dc48:	e93ff9f5 4d384f03 f9301d32 5a827748     ..?..O8M2.0.Hw.Z
1001dc58:	7f73bf3c 75154fdd                       <.s..O.u

1001dc60 <__mprec_tens>:
1001dc60:	00000000 3ff00000 00000000 40240000     .......?......$@
1001dc70:	00000000 40590000 00000000 408f4000     ......Y@.....@.@
1001dc80:	00000000 40c38800 00000000 40f86a00     .......@.....j.@
1001dc90:	00000000 412e8480 00000000 416312d0     .......A......cA
1001dca0:	00000000 4197d784 00000000 41cdcd65     .......A....e..A
1001dcb0:	20000000 4202a05f e8000000 42374876     ... _..B....vH7B
1001dcc0:	a2000000 426d1a94 e5400000 42a2309c     ......mB..@..0.B
1001dcd0:	1e900000 42d6bcc4 26340000 430c6bf5     .......B..4&.k.C
1001dce0:	37e08000 4341c379 85d8a000 43763457     ...7y.AC....W4vC
1001dcf0:	674ec800 43abc16d 60913d00 43e158e4     ..Ngm..C.=.`.X.C
1001dd00:	78b58c40 4415af1d d6e2ef50 444b1ae4     @..x...DP.....KD
1001dd10:	064dd592 4480f0cf c7e14af6 44b52d02     ..M....D.J...-.D
1001dd20:	79d99db4 44ea7843                       ...yCx.D

1001dd28 <_init>:
1001dd28:	b5f8      	push	{r3, r4, r5, r6, r7, lr}
1001dd2a:	bf00      	nop
1001dd2c:	bcf8      	pop	{r3, r4, r5, r6, r7}
1001dd2e:	bc08      	pop	{r3}
1001dd30:	469e      	mov	lr, r3
1001dd32:	4770      	bx	lr

1001dd34 <_fini>:
1001dd34:	b5f8      	push	{r3, r4, r5, r6, r7, lr}
1001dd36:	bf00      	nop
1001dd38:	bcf8      	pop	{r3, r4, r5, r6, r7}
1001dd3a:	bc08      	pop	{r3}
1001dd3c:	469e      	mov	lr, r3
1001dd3e:	4770      	bx	lr

1001dd40 <__EH_FRAME_BEGIN__>:
1001dd40:	0010 0000 0000 0000 7a01 0052 7c02 010e     .........zR..|..
1001dd50:	0c1b 000d 0038 0000 0018 0000 81c4 ffff     ....8...........
1001dd60:	009e 0000 5100 100e 0484 0385 0286 0187     .....Q..........
1001dd70:	c75b c5c6 0ec4 4c00 420a 0a0b 0b42 100e     [......L.B..B...
1001dd80:	0484 0385 0286 0187 c751 c5c6 0ec4 0000     ........Q.......
1001dd90:	0010 0000 0000 0000 7a01 0052 7c02 010e     .........zR..|..
1001dda0:	0c1b 000d 0014 0000 0018 0000 8214 ffff     ................
1001ddb0:	0134 0000 0200 0a71 0b43 0000 0010 0000     4.....q.C.......
1001ddc0:	0000 0000 7a01 0052 7c02 010e 0c1b 000d     .....zR..|......
1001ddd0:	001c 0000 0018 0000 8328 ffff 00d8 0000     ........(.......
1001dde0:	4100 080e 0185 0284 4902 4a0a c4c5 0b41     .A.......I.J..A.

1001ddf0 <__FRAME_END__>:
1001ddf0:	0000 0000                                   ....
